
Micros_1.2.elf:     file format elf32-littlearm

Sections:
Idx Name          Size      VMA       LMA       File off  Algn
  0 .isr_vector   0000013c  08000000  08000000  00010000  2**0
                  CONTENTS, ALLOC, LOAD, READONLY, DATA
  1 .text         000054d8  0800013c  0800013c  0001013c  2**2
                  CONTENTS, ALLOC, LOAD, READONLY, CODE
  2 .rodata       000001e0  08005614  08005614  00015614  2**2
                  CONTENTS, ALLOC, LOAD, READONLY, DATA
  3 .ARM.extab    00000000  080057f4  080057f4  00020078  2**0
                  CONTENTS
  4 .ARM          00000008  080057f4  080057f4  000157f4  2**2
                  CONTENTS, ALLOC, LOAD, READONLY, DATA
  5 .preinit_array 00000000  080057fc  080057fc  00020078  2**0
                  CONTENTS, ALLOC, LOAD, DATA
  6 .init_array   00000004  080057fc  080057fc  000157fc  2**2
                  CONTENTS, ALLOC, LOAD, DATA
  7 .fini_array   00000004  08005800  08005800  00015800  2**2
                  CONTENTS, ALLOC, LOAD, DATA
  8 .data         00000078  20000000  08005804  00020000  2**2
                  CONTENTS, ALLOC, LOAD, DATA
  9 .bss          000001f8  20000078  0800587c  00020078  2**2
                  ALLOC
 10 ._user_heap_stack 00000600  20000270  0800587c  00020270  2**0
                  ALLOC
 11 .ARM.attributes 00000029  00000000  00000000  00020078  2**0
                  CONTENTS, READONLY
 12 .debug_info   0000ac87  00000000  00000000  000200a1  2**0
                  CONTENTS, READONLY, DEBUGGING, OCTETS
 13 .debug_abbrev 00001fa1  00000000  00000000  0002ad28  2**0
                  CONTENTS, READONLY, DEBUGGING, OCTETS
 14 .debug_aranges 00000b70  00000000  00000000  0002ccd0  2**3
                  CONTENTS, READONLY, DEBUGGING, OCTETS
 15 .debug_ranges 00000a70  00000000  00000000  0002d840  2**3
                  CONTENTS, READONLY, DEBUGGING, OCTETS
 16 .debug_macro  0001649b  00000000  00000000  0002e2b0  2**0
                  CONTENTS, READONLY, DEBUGGING, OCTETS
 17 .debug_line   0000c961  00000000  00000000  0004474b  2**0
                  CONTENTS, READONLY, DEBUGGING, OCTETS
 18 .debug_str    00088d8f  00000000  00000000  000510ac  2**0
                  CONTENTS, READONLY, DEBUGGING, OCTETS
 19 .comment      00000050  00000000  00000000  000d9e3b  2**0
                  CONTENTS, READONLY
 20 .debug_frame  000037bc  00000000  00000000  000d9e8c  2**2
                  CONTENTS, READONLY, DEBUGGING, OCTETS

Disassembly of section .text:

0800013c <__do_global_dtors_aux>:
 800013c:	b510      	push	{r4, lr}
 800013e:	4c05      	ldr	r4, [pc, #20]	; (8000154 <__do_global_dtors_aux+0x18>)
 8000140:	7823      	ldrb	r3, [r4, #0]
 8000142:	b933      	cbnz	r3, 8000152 <__do_global_dtors_aux+0x16>
 8000144:	4b04      	ldr	r3, [pc, #16]	; (8000158 <__do_global_dtors_aux+0x1c>)
 8000146:	b113      	cbz	r3, 800014e <__do_global_dtors_aux+0x12>
 8000148:	4804      	ldr	r0, [pc, #16]	; (800015c <__do_global_dtors_aux+0x20>)
 800014a:	f3af 8000 	nop.w
 800014e:	2301      	movs	r3, #1
 8000150:	7023      	strb	r3, [r4, #0]
 8000152:	bd10      	pop	{r4, pc}
 8000154:	20000078 	.word	0x20000078
 8000158:	00000000 	.word	0x00000000
 800015c:	080055fc 	.word	0x080055fc

08000160 <frame_dummy>:
 8000160:	b508      	push	{r3, lr}
 8000162:	4b03      	ldr	r3, [pc, #12]	; (8000170 <frame_dummy+0x10>)
 8000164:	b11b      	cbz	r3, 800016e <frame_dummy+0xe>
 8000166:	4903      	ldr	r1, [pc, #12]	; (8000174 <frame_dummy+0x14>)
 8000168:	4803      	ldr	r0, [pc, #12]	; (8000178 <frame_dummy+0x18>)
 800016a:	f3af 8000 	nop.w
 800016e:	bd08      	pop	{r3, pc}
 8000170:	00000000 	.word	0x00000000
 8000174:	2000007c 	.word	0x2000007c
 8000178:	080055fc 	.word	0x080055fc

0800017c <__aeabi_uldivmod>:
 800017c:	b953      	cbnz	r3, 8000194 <__aeabi_uldivmod+0x18>
 800017e:	b94a      	cbnz	r2, 8000194 <__aeabi_uldivmod+0x18>
 8000180:	2900      	cmp	r1, #0
 8000182:	bf08      	it	eq
 8000184:	2800      	cmpeq	r0, #0
 8000186:	bf1c      	itt	ne
 8000188:	f04f 31ff 	movne.w	r1, #4294967295
 800018c:	f04f 30ff 	movne.w	r0, #4294967295
 8000190:	f000 b976 	b.w	8000480 <__aeabi_idiv0>
 8000194:	f1ad 0c08 	sub.w	ip, sp, #8
 8000198:	e96d ce04 	strd	ip, lr, [sp, #-16]!
 800019c:	f000 f806 	bl	80001ac <__udivmoddi4>
 80001a0:	f8dd e004 	ldr.w	lr, [sp, #4]
 80001a4:	e9dd 2302 	ldrd	r2, r3, [sp, #8]
 80001a8:	b004      	add	sp, #16
 80001aa:	4770      	bx	lr

080001ac <__udivmoddi4>:
 80001ac:	e92d 47f0 	stmdb	sp!, {r4, r5, r6, r7, r8, r9, sl, lr}
 80001b0:	9e08      	ldr	r6, [sp, #32]
 80001b2:	460d      	mov	r5, r1
 80001b4:	4604      	mov	r4, r0
 80001b6:	4688      	mov	r8, r1
 80001b8:	2b00      	cmp	r3, #0
 80001ba:	d14d      	bne.n	8000258 <__udivmoddi4+0xac>
 80001bc:	428a      	cmp	r2, r1
 80001be:	4694      	mov	ip, r2
 80001c0:	d968      	bls.n	8000294 <__udivmoddi4+0xe8>
 80001c2:	fab2 f282 	clz	r2, r2
 80001c6:	b152      	cbz	r2, 80001de <__udivmoddi4+0x32>
 80001c8:	fa01 f302 	lsl.w	r3, r1, r2
 80001cc:	f1c2 0120 	rsb	r1, r2, #32
 80001d0:	fa20 f101 	lsr.w	r1, r0, r1
 80001d4:	fa0c fc02 	lsl.w	ip, ip, r2
 80001d8:	ea41 0803 	orr.w	r8, r1, r3
 80001dc:	4094      	lsls	r4, r2
 80001de:	ea4f 411c 	mov.w	r1, ip, lsr #16
 80001e2:	fbb8 f7f1 	udiv	r7, r8, r1
 80001e6:	fa1f fe8c 	uxth.w	lr, ip
 80001ea:	fb01 8817 	mls	r8, r1, r7, r8
 80001ee:	fb07 f00e 	mul.w	r0, r7, lr
 80001f2:	0c23      	lsrs	r3, r4, #16
 80001f4:	ea43 4308 	orr.w	r3, r3, r8, lsl #16
 80001f8:	4298      	cmp	r0, r3
 80001fa:	d90a      	bls.n	8000212 <__udivmoddi4+0x66>
 80001fc:	eb1c 0303 	adds.w	r3, ip, r3
 8000200:	f107 35ff 	add.w	r5, r7, #4294967295
 8000204:	f080 811e 	bcs.w	8000444 <__udivmoddi4+0x298>
 8000208:	4298      	cmp	r0, r3
 800020a:	f240 811b 	bls.w	8000444 <__udivmoddi4+0x298>
 800020e:	3f02      	subs	r7, #2
 8000210:	4463      	add	r3, ip
 8000212:	1a1b      	subs	r3, r3, r0
 8000214:	fbb3 f0f1 	udiv	r0, r3, r1
 8000218:	fb01 3310 	mls	r3, r1, r0, r3
 800021c:	fb00 fe0e 	mul.w	lr, r0, lr
 8000220:	b2a4      	uxth	r4, r4
 8000222:	ea44 4403 	orr.w	r4, r4, r3, lsl #16
 8000226:	45a6      	cmp	lr, r4
 8000228:	d90a      	bls.n	8000240 <__udivmoddi4+0x94>
 800022a:	eb1c 0404 	adds.w	r4, ip, r4
 800022e:	f100 33ff 	add.w	r3, r0, #4294967295
 8000232:	f080 8109 	bcs.w	8000448 <__udivmoddi4+0x29c>
 8000236:	45a6      	cmp	lr, r4
 8000238:	f240 8106 	bls.w	8000448 <__udivmoddi4+0x29c>
 800023c:	4464      	add	r4, ip
 800023e:	3802      	subs	r0, #2
 8000240:	2100      	movs	r1, #0
 8000242:	eba4 040e 	sub.w	r4, r4, lr
 8000246:	ea40 4007 	orr.w	r0, r0, r7, lsl #16
 800024a:	b11e      	cbz	r6, 8000254 <__udivmoddi4+0xa8>
 800024c:	2300      	movs	r3, #0
 800024e:	40d4      	lsrs	r4, r2
 8000250:	e9c6 4300 	strd	r4, r3, [r6]
 8000254:	e8bd 87f0 	ldmia.w	sp!, {r4, r5, r6, r7, r8, r9, sl, pc}
 8000258:	428b      	cmp	r3, r1
 800025a:	d908      	bls.n	800026e <__udivmoddi4+0xc2>
 800025c:	2e00      	cmp	r6, #0
 800025e:	f000 80ee 	beq.w	800043e <__udivmoddi4+0x292>
 8000262:	2100      	movs	r1, #0
 8000264:	e9c6 0500 	strd	r0, r5, [r6]
 8000268:	4608      	mov	r0, r1
 800026a:	e8bd 87f0 	ldmia.w	sp!, {r4, r5, r6, r7, r8, r9, sl, pc}
 800026e:	fab3 f183 	clz	r1, r3
 8000272:	2900      	cmp	r1, #0
 8000274:	d14a      	bne.n	800030c <__udivmoddi4+0x160>
 8000276:	42ab      	cmp	r3, r5
 8000278:	d302      	bcc.n	8000280 <__udivmoddi4+0xd4>
 800027a:	4282      	cmp	r2, r0
 800027c:	f200 80fc 	bhi.w	8000478 <__udivmoddi4+0x2cc>
 8000280:	1a84      	subs	r4, r0, r2
 8000282:	eb65 0303 	sbc.w	r3, r5, r3
 8000286:	2001      	movs	r0, #1
 8000288:	4698      	mov	r8, r3
 800028a:	2e00      	cmp	r6, #0
 800028c:	d0e2      	beq.n	8000254 <__udivmoddi4+0xa8>
 800028e:	e9c6 4800 	strd	r4, r8, [r6]
 8000292:	e7df      	b.n	8000254 <__udivmoddi4+0xa8>
 8000294:	b902      	cbnz	r2, 8000298 <__udivmoddi4+0xec>
 8000296:	deff      	udf	#255	; 0xff
 8000298:	fab2 f282 	clz	r2, r2
 800029c:	2a00      	cmp	r2, #0
 800029e:	f040 8091 	bne.w	80003c4 <__udivmoddi4+0x218>
 80002a2:	eba1 000c 	sub.w	r0, r1, ip
 80002a6:	2101      	movs	r1, #1
 80002a8:	ea4f 471c 	mov.w	r7, ip, lsr #16
 80002ac:	fa1f fe8c 	uxth.w	lr, ip
 80002b0:	fbb0 f3f7 	udiv	r3, r0, r7
 80002b4:	fb07 0013 	mls	r0, r7, r3, r0
 80002b8:	0c25      	lsrs	r5, r4, #16
 80002ba:	ea45 4500 	orr.w	r5, r5, r0, lsl #16
 80002be:	fb0e f003 	mul.w	r0, lr, r3
 80002c2:	42a8      	cmp	r0, r5
 80002c4:	d908      	bls.n	80002d8 <__udivmoddi4+0x12c>
 80002c6:	eb1c 0505 	adds.w	r5, ip, r5
 80002ca:	f103 38ff 	add.w	r8, r3, #4294967295
 80002ce:	d202      	bcs.n	80002d6 <__udivmoddi4+0x12a>
 80002d0:	42a8      	cmp	r0, r5
 80002d2:	f200 80ce 	bhi.w	8000472 <__udivmoddi4+0x2c6>
 80002d6:	4643      	mov	r3, r8
 80002d8:	1a2d      	subs	r5, r5, r0
 80002da:	fbb5 f0f7 	udiv	r0, r5, r7
 80002de:	fb07 5510 	mls	r5, r7, r0, r5
 80002e2:	fb0e fe00 	mul.w	lr, lr, r0
 80002e6:	b2a4      	uxth	r4, r4
 80002e8:	ea44 4405 	orr.w	r4, r4, r5, lsl #16
 80002ec:	45a6      	cmp	lr, r4
 80002ee:	d908      	bls.n	8000302 <__udivmoddi4+0x156>
 80002f0:	eb1c 0404 	adds.w	r4, ip, r4
 80002f4:	f100 35ff 	add.w	r5, r0, #4294967295
 80002f8:	d202      	bcs.n	8000300 <__udivmoddi4+0x154>
 80002fa:	45a6      	cmp	lr, r4
 80002fc:	f200 80b6 	bhi.w	800046c <__udivmoddi4+0x2c0>
 8000300:	4628      	mov	r0, r5
 8000302:	eba4 040e 	sub.w	r4, r4, lr
 8000306:	ea40 4003 	orr.w	r0, r0, r3, lsl #16
 800030a:	e79e      	b.n	800024a <__udivmoddi4+0x9e>
 800030c:	f1c1 0720 	rsb	r7, r1, #32
 8000310:	408b      	lsls	r3, r1
 8000312:	fa22 fc07 	lsr.w	ip, r2, r7
 8000316:	ea4c 0c03 	orr.w	ip, ip, r3
 800031a:	fa25 fa07 	lsr.w	sl, r5, r7
 800031e:	ea4f 491c 	mov.w	r9, ip, lsr #16
 8000322:	fbba f8f9 	udiv	r8, sl, r9
 8000326:	fa20 f307 	lsr.w	r3, r0, r7
 800032a:	fb09 aa18 	mls	sl, r9, r8, sl
 800032e:	408d      	lsls	r5, r1
 8000330:	fa1f fe8c 	uxth.w	lr, ip
 8000334:	431d      	orrs	r5, r3
 8000336:	fa00 f301 	lsl.w	r3, r0, r1
 800033a:	fb08 f00e 	mul.w	r0, r8, lr
 800033e:	0c2c      	lsrs	r4, r5, #16
 8000340:	ea44 440a 	orr.w	r4, r4, sl, lsl #16
 8000344:	42a0      	cmp	r0, r4
 8000346:	fa02 f201 	lsl.w	r2, r2, r1
 800034a:	d90b      	bls.n	8000364 <__udivmoddi4+0x1b8>
 800034c:	eb1c 0404 	adds.w	r4, ip, r4
 8000350:	f108 3aff 	add.w	sl, r8, #4294967295
 8000354:	f080 8088 	bcs.w	8000468 <__udivmoddi4+0x2bc>
 8000358:	42a0      	cmp	r0, r4
 800035a:	f240 8085 	bls.w	8000468 <__udivmoddi4+0x2bc>
 800035e:	f1a8 0802 	sub.w	r8, r8, #2
 8000362:	4464      	add	r4, ip
 8000364:	1a24      	subs	r4, r4, r0
 8000366:	fbb4 f0f9 	udiv	r0, r4, r9
 800036a:	fb09 4410 	mls	r4, r9, r0, r4
 800036e:	fb00 fe0e 	mul.w	lr, r0, lr
 8000372:	b2ad      	uxth	r5, r5
 8000374:	ea45 4404 	orr.w	r4, r5, r4, lsl #16
 8000378:	45a6      	cmp	lr, r4
 800037a:	d908      	bls.n	800038e <__udivmoddi4+0x1e2>
 800037c:	eb1c 0404 	adds.w	r4, ip, r4
 8000380:	f100 35ff 	add.w	r5, r0, #4294967295
 8000384:	d26c      	bcs.n	8000460 <__udivmoddi4+0x2b4>
 8000386:	45a6      	cmp	lr, r4
 8000388:	d96a      	bls.n	8000460 <__udivmoddi4+0x2b4>
 800038a:	3802      	subs	r0, #2
 800038c:	4464      	add	r4, ip
 800038e:	ea40 4008 	orr.w	r0, r0, r8, lsl #16
 8000392:	fba0 9502 	umull	r9, r5, r0, r2
 8000396:	eba4 040e 	sub.w	r4, r4, lr
 800039a:	42ac      	cmp	r4, r5
 800039c:	46c8      	mov	r8, r9
 800039e:	46ae      	mov	lr, r5
 80003a0:	d356      	bcc.n	8000450 <__udivmoddi4+0x2a4>
 80003a2:	d053      	beq.n	800044c <__udivmoddi4+0x2a0>
 80003a4:	2e00      	cmp	r6, #0
 80003a6:	d069      	beq.n	800047c <__udivmoddi4+0x2d0>
 80003a8:	ebb3 0208 	subs.w	r2, r3, r8
 80003ac:	eb64 040e 	sbc.w	r4, r4, lr
 80003b0:	fa22 f301 	lsr.w	r3, r2, r1
 80003b4:	fa04 f707 	lsl.w	r7, r4, r7
 80003b8:	431f      	orrs	r7, r3
 80003ba:	40cc      	lsrs	r4, r1
 80003bc:	e9c6 7400 	strd	r7, r4, [r6]
 80003c0:	2100      	movs	r1, #0
 80003c2:	e747      	b.n	8000254 <__udivmoddi4+0xa8>
 80003c4:	fa0c fc02 	lsl.w	ip, ip, r2
 80003c8:	f1c2 0120 	rsb	r1, r2, #32
 80003cc:	fa25 f301 	lsr.w	r3, r5, r1
 80003d0:	ea4f 471c 	mov.w	r7, ip, lsr #16
 80003d4:	fa20 f101 	lsr.w	r1, r0, r1
 80003d8:	4095      	lsls	r5, r2
 80003da:	430d      	orrs	r5, r1
 80003dc:	fbb3 f1f7 	udiv	r1, r3, r7
 80003e0:	fb07 3311 	mls	r3, r7, r1, r3
 80003e4:	fa1f fe8c 	uxth.w	lr, ip
 80003e8:	0c28      	lsrs	r0, r5, #16
 80003ea:	ea40 4003 	orr.w	r0, r0, r3, lsl #16
 80003ee:	fb01 f30e 	mul.w	r3, r1, lr
 80003f2:	4283      	cmp	r3, r0
 80003f4:	fa04 f402 	lsl.w	r4, r4, r2
 80003f8:	d908      	bls.n	800040c <__udivmoddi4+0x260>
 80003fa:	eb1c 0000 	adds.w	r0, ip, r0
 80003fe:	f101 38ff 	add.w	r8, r1, #4294967295
 8000402:	d22f      	bcs.n	8000464 <__udivmoddi4+0x2b8>
 8000404:	4283      	cmp	r3, r0
 8000406:	d92d      	bls.n	8000464 <__udivmoddi4+0x2b8>
 8000408:	3902      	subs	r1, #2
 800040a:	4460      	add	r0, ip
 800040c:	1ac0      	subs	r0, r0, r3
 800040e:	fbb0 f3f7 	udiv	r3, r0, r7
 8000412:	fb07 0013 	mls	r0, r7, r3, r0
 8000416:	b2ad      	uxth	r5, r5
 8000418:	ea45 4500 	orr.w	r5, r5, r0, lsl #16
 800041c:	fb03 f00e 	mul.w	r0, r3, lr
 8000420:	42a8      	cmp	r0, r5
 8000422:	d908      	bls.n	8000436 <__udivmoddi4+0x28a>
 8000424:	eb1c 0505 	adds.w	r5, ip, r5
 8000428:	f103 38ff 	add.w	r8, r3, #4294967295
 800042c:	d216      	bcs.n	800045c <__udivmoddi4+0x2b0>
 800042e:	42a8      	cmp	r0, r5
 8000430:	d914      	bls.n	800045c <__udivmoddi4+0x2b0>
 8000432:	3b02      	subs	r3, #2
 8000434:	4465      	add	r5, ip
 8000436:	1a28      	subs	r0, r5, r0
 8000438:	ea43 4101 	orr.w	r1, r3, r1, lsl #16
 800043c:	e738      	b.n	80002b0 <__udivmoddi4+0x104>
 800043e:	4631      	mov	r1, r6
 8000440:	4630      	mov	r0, r6
 8000442:	e707      	b.n	8000254 <__udivmoddi4+0xa8>
 8000444:	462f      	mov	r7, r5
 8000446:	e6e4      	b.n	8000212 <__udivmoddi4+0x66>
 8000448:	4618      	mov	r0, r3
 800044a:	e6f9      	b.n	8000240 <__udivmoddi4+0x94>
 800044c:	454b      	cmp	r3, r9
 800044e:	d2a9      	bcs.n	80003a4 <__udivmoddi4+0x1f8>
 8000450:	ebb9 0802 	subs.w	r8, r9, r2
 8000454:	eb65 0e0c 	sbc.w	lr, r5, ip
 8000458:	3801      	subs	r0, #1
 800045a:	e7a3      	b.n	80003a4 <__udivmoddi4+0x1f8>
 800045c:	4643      	mov	r3, r8
 800045e:	e7ea      	b.n	8000436 <__udivmoddi4+0x28a>
 8000460:	4628      	mov	r0, r5
 8000462:	e794      	b.n	800038e <__udivmoddi4+0x1e2>
 8000464:	4641      	mov	r1, r8
 8000466:	e7d1      	b.n	800040c <__udivmoddi4+0x260>
 8000468:	46d0      	mov	r8, sl
 800046a:	e77b      	b.n	8000364 <__udivmoddi4+0x1b8>
 800046c:	4464      	add	r4, ip
 800046e:	3802      	subs	r0, #2
 8000470:	e747      	b.n	8000302 <__udivmoddi4+0x156>
 8000472:	3b02      	subs	r3, #2
 8000474:	4465      	add	r5, ip
 8000476:	e72f      	b.n	80002d8 <__udivmoddi4+0x12c>
 8000478:	4608      	mov	r0, r1
 800047a:	e706      	b.n	800028a <__udivmoddi4+0xde>
 800047c:	4631      	mov	r1, r6
 800047e:	e6e9      	b.n	8000254 <__udivmoddi4+0xa8>

08000480 <__aeabi_idiv0>:
 8000480:	4770      	bx	lr
 8000482:	bf00      	nop

08000484 <espera>:
void espera(int time)
{
 8000484:	b480      	push	{r7}
 8000486:	b085      	sub	sp, #20
 8000488:	af00      	add	r7, sp, #0
 800048a:	6078      	str	r0, [r7, #4]
  int i;
  for (i = 0; i < time; i++);
 800048c:	2300      	movs	r3, #0
 800048e:	60fb      	str	r3, [r7, #12]
 8000490:	e002      	b.n	8000498 <espera+0x14>
 8000492:	68fb      	ldr	r3, [r7, #12]
 8000494:	3301      	adds	r3, #1
 8000496:	60fb      	str	r3, [r7, #12]
 8000498:	68fa      	ldr	r2, [r7, #12]
 800049a:	687b      	ldr	r3, [r7, #4]
 800049c:	429a      	cmp	r2, r3
 800049e:	dbf8      	blt.n	8000492 <espera+0xe>
}
 80004a0:	bf00      	nop
 80004a2:	bf00      	nop
 80004a4:	3714      	adds	r7, #20
 80004a6:	46bd      	mov	sp, r7
 80004a8:	bc80      	pop	{r7}
 80004aa:	4770      	bx	lr

080004ac <Bin2Ascii>:

void Bin2Ascii(unsigned short number, unsigned char* chain)
{
 80004ac:	b480      	push	{r7}
 80004ae:	b085      	sub	sp, #20
 80004b0:	af00      	add	r7, sp, #0
 80004b2:	4603      	mov	r3, r0
 80004b4:	6039      	str	r1, [r7, #0]
 80004b6:	80fb      	strh	r3, [r7, #6]
  unsigned short partial, j, cocient, divisor;

  partial = number;
 80004b8:	88fb      	ldrh	r3, [r7, #6]
 80004ba:	81fb      	strh	r3, [r7, #14]
  divisor = 10000;
 80004bc:	f242 7310 	movw	r3, #10000	; 0x2710
 80004c0:	817b      	strh	r3, [r7, #10]
  *(chain) = ' ';
 80004c2:	683b      	ldr	r3, [r7, #0]
 80004c4:	2220      	movs	r2, #32
 80004c6:	701a      	strb	r2, [r3, #0]
  for (j = 1; j < 6; j++)
 80004c8:	2301      	movs	r3, #1
 80004ca:	81bb      	strh	r3, [r7, #12]
 80004cc:	e01d      	b.n	800050a <Bin2Ascii+0x5e>
  {
    cocient = partial/divisor;
 80004ce:	89fa      	ldrh	r2, [r7, #14]
 80004d0:	897b      	ldrh	r3, [r7, #10]
 80004d2:	fbb2 f3f3 	udiv	r3, r2, r3
 80004d6:	813b      	strh	r3, [r7, #8]
    *(chain + j) = '0' + (unsigned char)cocient;
 80004d8:	893b      	ldrh	r3, [r7, #8]
 80004da:	b2da      	uxtb	r2, r3
 80004dc:	89bb      	ldrh	r3, [r7, #12]
 80004de:	6839      	ldr	r1, [r7, #0]
 80004e0:	440b      	add	r3, r1
 80004e2:	3230      	adds	r2, #48	; 0x30
 80004e4:	b2d2      	uxtb	r2, r2
 80004e6:	701a      	strb	r2, [r3, #0]
    partial = partial - (cocient*divisor);
 80004e8:	893b      	ldrh	r3, [r7, #8]
 80004ea:	897a      	ldrh	r2, [r7, #10]
 80004ec:	fb02 f303 	mul.w	r3, r2, r3
 80004f0:	b29b      	uxth	r3, r3
 80004f2:	89fa      	ldrh	r2, [r7, #14]
 80004f4:	1ad3      	subs	r3, r2, r3
 80004f6:	81fb      	strh	r3, [r7, #14]
    divisor = divisor/10;
 80004f8:	897b      	ldrh	r3, [r7, #10]
 80004fa:	4a0a      	ldr	r2, [pc, #40]	; (8000524 <Bin2Ascii+0x78>)
 80004fc:	fba2 2303 	umull	r2, r3, r2, r3
 8000500:	08db      	lsrs	r3, r3, #3
 8000502:	817b      	strh	r3, [r7, #10]
  for (j = 1; j < 6; j++)
 8000504:	89bb      	ldrh	r3, [r7, #12]
 8000506:	3301      	adds	r3, #1
 8000508:	81bb      	strh	r3, [r7, #12]
 800050a:	89bb      	ldrh	r3, [r7, #12]
 800050c:	2b05      	cmp	r3, #5
 800050e:	d9de      	bls.n	80004ce <Bin2Ascii+0x22>
  }
  *(chain + 6) = 0;
 8000510:	683b      	ldr	r3, [r7, #0]
 8000512:	3306      	adds	r3, #6
 8000514:	2200      	movs	r2, #0
 8000516:	701a      	strb	r2, [r3, #0]
}
 8000518:	bf00      	nop
 800051a:	3714      	adds	r7, #20
 800051c:	46bd      	mov	sp, r7
 800051e:	bc80      	pop	{r7}
 8000520:	4770      	bx	lr
 8000522:	bf00      	nop
 8000524:	cccccccd 	.word	0xcccccccd

08000528 <random_num>:

// Credit goes to GeeksForGeeks - https://www.geeksforgeeks.org/generating-random-number-range-c/
int random_num(int lower_limit, int upper_limit)
{
 8000528:	b580      	push	{r7, lr}
 800052a:	b084      	sub	sp, #16
 800052c:	af00      	add	r7, sp, #0
 800052e:	6078      	str	r0, [r7, #4]
 8000530:	6039      	str	r1, [r7, #0]
  int num = (rand() % (upper_limit - lower_limit + 1)) + lower_limit;
 8000532:	f004 f825 	bl	8004580 <rand>
 8000536:	4602      	mov	r2, r0
 8000538:	6839      	ldr	r1, [r7, #0]
 800053a:	687b      	ldr	r3, [r7, #4]
 800053c:	1acb      	subs	r3, r1, r3
 800053e:	3301      	adds	r3, #1
 8000540:	fb92 f1f3 	sdiv	r1, r2, r3
 8000544:	fb01 f303 	mul.w	r3, r1, r3
 8000548:	1ad3      	subs	r3, r2, r3
 800054a:	687a      	ldr	r2, [r7, #4]
 800054c:	4413      	add	r3, r2
 800054e:	60fb      	str	r3, [r7, #12]
  return num;
 8000550:	68fb      	ldr	r3, [r7, #12]
}
 8000552:	4618      	mov	r0, r3
 8000554:	3710      	adds	r7, #16
 8000556:	46bd      	mov	sp, r7
 8000558:	bd80      	pop	{r7, pc}
	...

0800055c <EXTI0_IRQHandler>:

/* Private user code ---------------------------------------------------------*/
/* USER CODE BEGIN 0 */
//INTERRUPTS
void EXTI0_IRQHandler(void)
{
 800055c:	b480      	push	{r7}
 800055e:	af00      	add	r7, sp, #0
  // USER BUTTON is pressed, a rising edge is detected in PA0
  if ((EXTI->PR &BIT_0) != 0) // Is EXTI0 flag on? //0000000000000001 in the Pending Register of ISER[0]
 8000560:	4b0d      	ldr	r3, [pc, #52]	; (8000598 <EXTI0_IRQHandler+0x3c>)
 8000562:	695b      	ldr	r3, [r3, #20]
 8000564:	f003 0301 	and.w	r3, r3, #1
 8000568:	2b00      	cmp	r3, #0
 800056a:	d00b      	beq.n	8000584 <EXTI0_IRQHandler+0x28>
  {
    game++; //If at GAME 1, proceed to GAME 2
 800056c:	4b0b      	ldr	r3, [pc, #44]	; (800059c <EXTI0_IRQHandler+0x40>)
 800056e:	681b      	ldr	r3, [r3, #0]
 8000570:	3301      	adds	r3, #1
 8000572:	4a0a      	ldr	r2, [pc, #40]	; (800059c <EXTI0_IRQHandler+0x40>)
 8000574:	6013      	str	r3, [r2, #0]
    if (game > 2) game = 1; //Reset to 1 after requesting change from GAME 2
 8000576:	4b09      	ldr	r3, [pc, #36]	; (800059c <EXTI0_IRQHandler+0x40>)
 8000578:	681b      	ldr	r3, [r3, #0]
 800057a:	2b02      	cmp	r3, #2
 800057c:	d902      	bls.n	8000584 <EXTI0_IRQHandler+0x28>
 800057e:	4b07      	ldr	r3, [pc, #28]	; (800059c <EXTI0_IRQHandler+0x40>)
 8000580:	2201      	movs	r2, #1
 8000582:	601a      	str	r2, [r3, #0]
  }
  EXTI->PR |= (1 << 6); // Clear EXTI0 flag (writes a 1 in PR0 pos)
 8000584:	4b04      	ldr	r3, [pc, #16]	; (8000598 <EXTI0_IRQHandler+0x3c>)
 8000586:	695b      	ldr	r3, [r3, #20]
 8000588:	4a03      	ldr	r2, [pc, #12]	; (8000598 <EXTI0_IRQHandler+0x3c>)
 800058a:	f043 0340 	orr.w	r3, r3, #64	; 0x40
 800058e:	6153      	str	r3, [r2, #20]
  //Clear flag must be out of condition so it never hangs if condition is not met
}
 8000590:	bf00      	nop
 8000592:	46bd      	mov	sp, r7
 8000594:	bc80      	pop	{r7}
 8000596:	4770      	bx	lr
 8000598:	40010400 	.word	0x40010400
 800059c:	20000000 	.word	0x20000000

080005a0 <EXTI9_5_IRQHandler>:

// NVIC->ISER[0] pin 23 for EXTIs 9 to 5
void EXTI9_5_IRQHandler(void) //ISR for EXTI7 & EXTI6
{
 80005a0:	b480      	push	{r7}
 80005a2:	af00      	add	r7, sp, #0
  if (((EXTI->PR &BIT_7) || (EXTI->PR &BIT_6)) != 0) //most general aproach --> (EXTI->PR != 0)
 80005a4:	4b24      	ldr	r3, [pc, #144]	; (8000638 <EXTI9_5_IRQHandler+0x98>)
 80005a6:	695b      	ldr	r3, [r3, #20]
 80005a8:	f003 0380 	and.w	r3, r3, #128	; 0x80
 80005ac:	2b00      	cmp	r3, #0
 80005ae:	d105      	bne.n	80005bc <EXTI9_5_IRQHandler+0x1c>
 80005b0:	4b21      	ldr	r3, [pc, #132]	; (8000638 <EXTI9_5_IRQHandler+0x98>)
 80005b2:	695b      	ldr	r3, [r3, #20]
 80005b4:	f003 0340 	and.w	r3, r3, #64	; 0x40
 80005b8:	2b00      	cmp	r3, #0
 80005ba:	d001      	beq.n	80005c0 <EXTI9_5_IRQHandler+0x20>
 80005bc:	2301      	movs	r3, #1
 80005be:	e000      	b.n	80005c2 <EXTI9_5_IRQHandler+0x22>
 80005c0:	2300      	movs	r3, #0
 80005c2:	2b00      	cmp	r3, #0
 80005c4:	d027      	beq.n	8000616 <EXTI9_5_IRQHandler+0x76>
  {
    // BUTTON 1 is pressed, a rising edge is detected in PB7
    if (EXTI->PR &(1 << 7) && (playing == 1)) // 00000000010000000 in pending register of ISER[0]
 80005c6:	4b1c      	ldr	r3, [pc, #112]	; (8000638 <EXTI9_5_IRQHandler+0x98>)
 80005c8:	695b      	ldr	r3, [r3, #20]
 80005ca:	f003 0380 	and.w	r3, r3, #128	; 0x80
 80005ce:	2b00      	cmp	r3, #0
 80005d0:	d00d      	beq.n	80005ee <EXTI9_5_IRQHandler+0x4e>
 80005d2:	4b1a      	ldr	r3, [pc, #104]	; (800063c <EXTI9_5_IRQHandler+0x9c>)
 80005d4:	681b      	ldr	r3, [r3, #0]
 80005d6:	2b01      	cmp	r3, #1
 80005d8:	d109      	bne.n	80005ee <EXTI9_5_IRQHandler+0x4e>
    {
      winner = 1;
 80005da:	4b19      	ldr	r3, [pc, #100]	; (8000640 <EXTI9_5_IRQHandler+0xa0>)
 80005dc:	2201      	movs	r2, #1
 80005de:	601a      	str	r2, [r3, #0]
      GPIOA->BSRR = (1 << 12) << 16;
 80005e0:	4b18      	ldr	r3, [pc, #96]	; (8000644 <EXTI9_5_IRQHandler+0xa4>)
 80005e2:	f04f 5280 	mov.w	r2, #268435456	; 0x10000000
 80005e6:	619a      	str	r2, [r3, #24]
      playing = 0;
 80005e8:	4b14      	ldr	r3, [pc, #80]	; (800063c <EXTI9_5_IRQHandler+0x9c>)
 80005ea:	2200      	movs	r2, #0
 80005ec:	601a      	str	r2, [r3, #0]
    }
    // BUTTON 2 is pressed, a rising edge is detected in PB6
    if (EXTI->PR &(1 << 6) && (playing == 1)) // 00000000001000000 in pending register
 80005ee:	4b12      	ldr	r3, [pc, #72]	; (8000638 <EXTI9_5_IRQHandler+0x98>)
 80005f0:	695b      	ldr	r3, [r3, #20]
 80005f2:	f003 0340 	and.w	r3, r3, #64	; 0x40
 80005f6:	2b00      	cmp	r3, #0
 80005f8:	d00d      	beq.n	8000616 <EXTI9_5_IRQHandler+0x76>
 80005fa:	4b10      	ldr	r3, [pc, #64]	; (800063c <EXTI9_5_IRQHandler+0x9c>)
 80005fc:	681b      	ldr	r3, [r3, #0]
 80005fe:	2b01      	cmp	r3, #1
 8000600:	d109      	bne.n	8000616 <EXTI9_5_IRQHandler+0x76>
    {
      winner = 2;
 8000602:	4b0f      	ldr	r3, [pc, #60]	; (8000640 <EXTI9_5_IRQHandler+0xa0>)
 8000604:	2202      	movs	r2, #2
 8000606:	601a      	str	r2, [r3, #0]
      GPIOA->BSRR = (1 << 12) << 16;
 8000608:	4b0e      	ldr	r3, [pc, #56]	; (8000644 <EXTI9_5_IRQHandler+0xa4>)
 800060a:	f04f 5280 	mov.w	r2, #268435456	; 0x10000000
 800060e:	619a      	str	r2, [r3, #24]
      playing = 0;
 8000610:	4b0a      	ldr	r3, [pc, #40]	; (800063c <EXTI9_5_IRQHandler+0x9c>)
 8000612:	2200      	movs	r2, #0
 8000614:	601a      	str	r2, [r3, #0]
    }
  }
  //Always clear flags to avoid hanging
  EXTI->PR |= (1 << 7); // Clear the EXTI7 flag (writes a 1 in PR7)
 8000616:	4b08      	ldr	r3, [pc, #32]	; (8000638 <EXTI9_5_IRQHandler+0x98>)
 8000618:	695b      	ldr	r3, [r3, #20]
 800061a:	4a07      	ldr	r2, [pc, #28]	; (8000638 <EXTI9_5_IRQHandler+0x98>)
 800061c:	f043 0380 	orr.w	r3, r3, #128	; 0x80
 8000620:	6153      	str	r3, [r2, #20]
  EXTI->PR |= (1 << 6); // Clear the EXTI6 flag
 8000622:	4b05      	ldr	r3, [pc, #20]	; (8000638 <EXTI9_5_IRQHandler+0x98>)
 8000624:	695b      	ldr	r3, [r3, #20]
 8000626:	4a04      	ldr	r2, [pc, #16]	; (8000638 <EXTI9_5_IRQHandler+0x98>)
 8000628:	f043 0340 	orr.w	r3, r3, #64	; 0x40
 800062c:	6153      	str	r3, [r2, #20]
}
 800062e:	bf00      	nop
 8000630:	46bd      	mov	sp, r7
 8000632:	bc80      	pop	{r7}
 8000634:	4770      	bx	lr
 8000636:	bf00      	nop
 8000638:	40010400 	.word	0x40010400
 800063c:	200001ec 	.word	0x200001ec
 8000640:	200001e8 	.word	0x200001e8
 8000644:	40020000 	.word	0x40020000

08000648 <TIM4_IRQHandler>:

//TIMERS
//TIC timer 4 CH1 and CH2
void TIM4_IRQHandler(void) //TIC
{
 8000648:	b480      	push	{r7}
 800064a:	af00      	add	r7, sp, #0
  //checks if it has been activated if so makes it work
  //checks if the SR has been flagged or if its
  //checks if the event has come
  
  //CH1
  if((TIM4->SR &BIT_1) != 0) //0x2
 800064c:	4b0d      	ldr	r3, [pc, #52]	; (8000684 <TIM4_IRQHandler+0x3c>)
 800064e:	691b      	ldr	r3, [r3, #16]
 8000650:	f003 0302 	and.w	r3, r3, #2
 8000654:	2b00      	cmp	r3, #0
 8000656:	d003      	beq.n	8000660 <TIM4_IRQHandler+0x18>
  {
    //Code below - needed or not????
    //winner = 2; //CH1 is for PB6 - P2
    time_4ch1 = TIM4->CCR1;
 8000658:	4b0a      	ldr	r3, [pc, #40]	; (8000684 <TIM4_IRQHandler+0x3c>)
 800065a:	6b5b      	ldr	r3, [r3, #52]	; 0x34
 800065c:	4a0a      	ldr	r2, [pc, #40]	; (8000688 <TIM4_IRQHandler+0x40>)
 800065e:	6013      	str	r3, [r2, #0]
    if(time_4ch1 < 0) time_4ch1 += 0x0FFFF; //to avoid overflows
    //TIM4->SR = 0;
  }
  //CH2
  if((TIM4->SR &BIT_2) != 0) //0x4
 8000660:	4b08      	ldr	r3, [pc, #32]	; (8000684 <TIM4_IRQHandler+0x3c>)
 8000662:	691b      	ldr	r3, [r3, #16]
 8000664:	f003 0304 	and.w	r3, r3, #4
 8000668:	2b00      	cmp	r3, #0
 800066a:	d003      	beq.n	8000674 <TIM4_IRQHandler+0x2c>
  {
    //winner = 1; //CH2 is for PB7 - P1
    time_4ch2 = TIM4->CCR2;
 800066c:	4b05      	ldr	r3, [pc, #20]	; (8000684 <TIM4_IRQHandler+0x3c>)
 800066e:	6b9b      	ldr	r3, [r3, #56]	; 0x38
 8000670:	4a06      	ldr	r2, [pc, #24]	; (800068c <TIM4_IRQHandler+0x44>)
 8000672:	6013      	str	r3, [r2, #0]
    if(time_4ch2 < 0) time_4ch2 += 0x0FFFF;
    //TIM4->SR = 0;
  }
  TIM4->SR = 0;
 8000674:	4b03      	ldr	r3, [pc, #12]	; (8000684 <TIM4_IRQHandler+0x3c>)
 8000676:	2200      	movs	r2, #0
 8000678:	611a      	str	r2, [r3, #16]
}
 800067a:	bf00      	nop
 800067c:	46bd      	mov	sp, r7
 800067e:	bc80      	pop	{r7}
 8000680:	4770      	bx	lr
 8000682:	bf00      	nop
 8000684:	40000800 	.word	0x40000800
 8000688:	200001f4 	.word	0x200001f4
 800068c:	200001f8 	.word	0x200001f8

08000690 <main>:
/**
  * @brief  The application entry point.
  * @retval int
  */
int main(void)
{
 8000690:	b580      	push	{r7, lr}
 8000692:	b082      	sub	sp, #8
 8000694:	af00      	add	r7, sp, #0
  /* USER CODE END 1 */

  /* MCU Configuration--------------------------------------------------------*/

  /* Reset of all peripherals, Initializes the Flash interface and the Systick. */
  HAL_Init();
 8000696:	f001 feba 	bl	800240e <HAL_Init>
  /* USER CODE BEGIN Init */

  /* USER CODE END Init */

  /* Configure the system clock */
  SystemClock_Config();
 800069a:	f000 fb7f 	bl	8000d9c <SystemClock_Config>
  /* USER CODE BEGIN SysInit */

  /* USER CODE END SysInit */

  /* Initialize all configured peripherals */
  MX_GPIO_Init();
 800069e:	f000 fd61 	bl	8001164 <MX_GPIO_Init>
  MX_ADC_Init();
 80006a2:	f000 fbe3 	bl	8000e6c <MX_ADC_Init>
  MX_LCD_Init();
 80006a6:	f000 fc3b 	bl	8000f20 <MX_LCD_Init>
  MX_TS_Init();
 80006aa:	f000 fd55 	bl	8001158 <MX_TS_Init>
  MX_TIM3_Init();
 80006ae:	f000 fcb7 	bl	8001020 <MX_TIM3_Init>
  MX_TIM4_Init();
 80006b2:	f000 fd03 	bl	80010bc <MX_TIM4_Init>
  MX_TIM2_Init();
 80006b6:	f000 fc67 	bl	8000f88 <MX_TIM2_Init>
  /* USER CODE BEGIN 2 */
  //DECLARATION OF PERIPHERALS WE WILL USE

  //LCD Setup
  BSP_LCD_GLASS_Init();
 80006ba:	f000 fd9d 	bl	80011f8 <BSP_LCD_GLASS_Init>
  BSP_LCD_GLASS_BarLevelConfig(0);
 80006be:	2000      	movs	r0, #0
 80006c0:	f000 fdd2 	bl	8001268 <BSP_LCD_GLASS_BarLevelConfig>
  BSP_LCD_GLASS_Clear();
 80006c4:	f001 fa1a 	bl	8001afc <BSP_LCD_GLASS_Clear>

  //Pins + their EXTIs - I/O
  /* PB0 ---------------------------------------------------------------------*/
  //PA0 (USER BUTTON) - digital input (00)
  GPIOA->MODER &= ~(1 << (0*2 + 1));
 80006c8:	4b9a      	ldr	r3, [pc, #616]	; (8000934 <main+0x2a4>)
 80006ca:	681b      	ldr	r3, [r3, #0]
 80006cc:	4a99      	ldr	r2, [pc, #612]	; (8000934 <main+0x2a4>)
 80006ce:	f023 0302 	bic.w	r3, r3, #2
 80006d2:	6013      	str	r3, [r2, #0]
  GPIOA->MODER &= ~(1 << (0*2));
 80006d4:	4b97      	ldr	r3, [pc, #604]	; (8000934 <main+0x2a4>)
 80006d6:	681b      	ldr	r3, [r3, #0]
 80006d8:	4a96      	ldr	r2, [pc, #600]	; (8000934 <main+0x2a4>)
 80006da:	f023 0301 	bic.w	r3, r3, #1
 80006de:	6013      	str	r3, [r2, #0]
  //EXTI0
  SYSCFG->EXTICR[0] = 0000; // Linking EXTI0 to GPIOA (PA0 = USER BUTTON) - all zeros mean GPIOA
 80006e0:	4b95      	ldr	r3, [pc, #596]	; (8000938 <main+0x2a8>)
 80006e2:	2200      	movs	r2, #0
 80006e4:	609a      	str	r2, [r3, #8]
  EXTI->RTSR |= BIT_0; // Enables rising edge in EXTI0
 80006e6:	4b95      	ldr	r3, [pc, #596]	; (800093c <main+0x2ac>)
 80006e8:	689b      	ldr	r3, [r3, #8]
 80006ea:	4a94      	ldr	r2, [pc, #592]	; (800093c <main+0x2ac>)
 80006ec:	f043 0301 	orr.w	r3, r3, #1
 80006f0:	6093      	str	r3, [r2, #8]
  EXTI->FTSR &= ~(BIT_0); // Disables falling edge in EXTI0
 80006f2:	4b92      	ldr	r3, [pc, #584]	; (800093c <main+0x2ac>)
 80006f4:	68db      	ldr	r3, [r3, #12]
 80006f6:	4a91      	ldr	r2, [pc, #580]	; (800093c <main+0x2ac>)
 80006f8:	f023 0301 	bic.w	r3, r3, #1
 80006fc:	60d3      	str	r3, [r2, #12]
  EXTI->IMR |= BIT_0; // Enables the Interrupt (i.e. the event) (IMR = Interrupt Mask Register)
 80006fe:	4b8f      	ldr	r3, [pc, #572]	; (800093c <main+0x2ac>)
 8000700:	681b      	ldr	r3, [r3, #0]
 8000702:	4a8e      	ldr	r2, [pc, #568]	; (800093c <main+0x2ac>)
 8000704:	f043 0301 	orr.w	r3, r3, #1
 8000708:	6013      	str	r3, [r2, #0]
  NVIC->ISER[0] |= (1 << 6); //Enables EXTI0 in the NVICs ISER[0]s position 6
 800070a:	4b8d      	ldr	r3, [pc, #564]	; (8000940 <main+0x2b0>)
 800070c:	681b      	ldr	r3, [r3, #0]
 800070e:	4a8c      	ldr	r2, [pc, #560]	; (8000940 <main+0x2b0>)
 8000710:	f043 0340 	orr.w	r3, r3, #64	; 0x40
 8000714:	6013      	str	r3, [r2, #0]

  //USING I/O PINS 7 & 6 FOR PLAYER BUTTONS 1 & 2 RESPECTIVELY
  /* PB7 ---------------------------------------------------------------------*/
  //PB7 (BUTTON 1) - digital input (00) - w7 AF TIM4_CH2
  //Set PB7 to 10 for Alternate Functions (AFs)
  GPIOB->MODER |= (1 << (7*2 + 1));
 8000716:	4b8b      	ldr	r3, [pc, #556]	; (8000944 <main+0x2b4>)
 8000718:	681b      	ldr	r3, [r3, #0]
 800071a:	4a8a      	ldr	r2, [pc, #552]	; (8000944 <main+0x2b4>)
 800071c:	f443 4300 	orr.w	r3, r3, #32768	; 0x8000
 8000720:	6013      	str	r3, [r2, #0]
  GPIOB->MODER &= ~(1 << (7*2));
 8000722:	4b88      	ldr	r3, [pc, #544]	; (8000944 <main+0x2b4>)
 8000724:	681b      	ldr	r3, [r3, #0]
 8000726:	4a87      	ldr	r2, [pc, #540]	; (8000944 <main+0x2b4>)
 8000728:	f423 4380 	bic.w	r3, r3, #16384	; 0x4000
 800072c:	6013      	str	r3, [r2, #0]
  //AF for TIM4_CH2
  GPIOB->AFR[0] |= (0x02 << (7*4)); // Writes 0010 in AFRL7
 800072e:	4b85      	ldr	r3, [pc, #532]	; (8000944 <main+0x2b4>)
 8000730:	6a1b      	ldr	r3, [r3, #32]
 8000732:	4a84      	ldr	r2, [pc, #528]	; (8000944 <main+0x2b4>)
 8000734:	f043 5300 	orr.w	r3, r3, #536870912	; 0x20000000
 8000738:	6213      	str	r3, [r2, #32]
  //WE NEED INTERNAL RESISTORS - pull-up OR pull-down ?
  //We chose pull-up: a constant 1 unless we press, then its shorted to GND
  //Set up with pull-up resistor (01)
  GPIOB->PUPDR &= ~(1 << (7*2 + 1));
 800073a:	4b82      	ldr	r3, [pc, #520]	; (8000944 <main+0x2b4>)
 800073c:	68db      	ldr	r3, [r3, #12]
 800073e:	4a81      	ldr	r2, [pc, #516]	; (8000944 <main+0x2b4>)
 8000740:	f423 4300 	bic.w	r3, r3, #32768	; 0x8000
 8000744:	60d3      	str	r3, [r2, #12]
  GPIOB->PUPDR |= (1 << (7*2));
 8000746:	4b7f      	ldr	r3, [pc, #508]	; (8000944 <main+0x2b4>)
 8000748:	68db      	ldr	r3, [r3, #12]
 800074a:	4a7e      	ldr	r2, [pc, #504]	; (8000944 <main+0x2b4>)
 800074c:	f443 4380 	orr.w	r3, r3, #16384	; 0x4000
 8000750:	60d3      	str	r3, [r2, #12]
  //EXTI7
  SYSCFG->EXTICR[1] |= BIT_12; // Linking EXTI7 to GPIOB (PB7 = BUTTON 1)
 8000752:	4b79      	ldr	r3, [pc, #484]	; (8000938 <main+0x2a8>)
 8000754:	68db      	ldr	r3, [r3, #12]
 8000756:	4a78      	ldr	r2, [pc, #480]	; (8000938 <main+0x2a8>)
 8000758:	f443 5380 	orr.w	r3, r3, #4096	; 0x1000
 800075c:	60d3      	str	r3, [r2, #12]
                    // Sets a 1 in bit 12 see page 145 of the manual
  EXTI->RTSR &= ~(BIT_7); // Disables rising edge in EXTI7
 800075e:	4b77      	ldr	r3, [pc, #476]	; (800093c <main+0x2ac>)
 8000760:	689b      	ldr	r3, [r3, #8]
 8000762:	4a76      	ldr	r2, [pc, #472]	; (800093c <main+0x2ac>)
 8000764:	f023 0380 	bic.w	r3, r3, #128	; 0x80
 8000768:	6093      	str	r3, [r2, #8]
  EXTI->FTSR |= BIT_7; // Enables falling edge in EXTI7
 800076a:	4b74      	ldr	r3, [pc, #464]	; (800093c <main+0x2ac>)
 800076c:	68db      	ldr	r3, [r3, #12]
 800076e:	4a73      	ldr	r2, [pc, #460]	; (800093c <main+0x2ac>)
 8000770:	f043 0380 	orr.w	r3, r3, #128	; 0x80
 8000774:	60d3      	str	r3, [r2, #12]
  EXTI->IMR |= BIT_7; // Enables the interrupt after setup
 8000776:	4b71      	ldr	r3, [pc, #452]	; (800093c <main+0x2ac>)
 8000778:	681b      	ldr	r3, [r3, #0]
 800077a:	4a70      	ldr	r2, [pc, #448]	; (800093c <main+0x2ac>)
 800077c:	f043 0380 	orr.w	r3, r3, #128	; 0x80
 8000780:	6013      	str	r3, [r2, #0]
  NVIC->ISER[0] |= (1 << 23); // EXTI7 has position 23 in ISER[0]
 8000782:	4b6f      	ldr	r3, [pc, #444]	; (8000940 <main+0x2b0>)
 8000784:	681b      	ldr	r3, [r3, #0]
 8000786:	4a6e      	ldr	r2, [pc, #440]	; (8000940 <main+0x2b0>)
 8000788:	f443 0300 	orr.w	r3, r3, #8388608	; 0x800000
 800078c:	6013      	str	r3, [r2, #0]

  /* PB6 ---------------------------------------------------------------------*/
  //PB6 (BUTTON 2) - digital input (00) - w/ AF TIM4_CH1
  //Set PB6 to 10 for AFs
  GPIOB->MODER |= (1 << (6*2 + 1));
 800078e:	4b6d      	ldr	r3, [pc, #436]	; (8000944 <main+0x2b4>)
 8000790:	681b      	ldr	r3, [r3, #0]
 8000792:	4a6c      	ldr	r2, [pc, #432]	; (8000944 <main+0x2b4>)
 8000794:	f443 5300 	orr.w	r3, r3, #8192	; 0x2000
 8000798:	6013      	str	r3, [r2, #0]
  GPIOB->MODER &= ~(1 << (6*2));
 800079a:	4b6a      	ldr	r3, [pc, #424]	; (8000944 <main+0x2b4>)
 800079c:	681b      	ldr	r3, [r3, #0]
 800079e:	4a69      	ldr	r2, [pc, #420]	; (8000944 <main+0x2b4>)
 80007a0:	f423 5380 	bic.w	r3, r3, #4096	; 0x1000
 80007a4:	6013      	str	r3, [r2, #0]
  //Set up with pull-up resistor (01)
  GPIOB->PUPDR &= ~(1 << (6*2 + 1));
 80007a6:	4b67      	ldr	r3, [pc, #412]	; (8000944 <main+0x2b4>)
 80007a8:	68db      	ldr	r3, [r3, #12]
 80007aa:	4a66      	ldr	r2, [pc, #408]	; (8000944 <main+0x2b4>)
 80007ac:	f423 5300 	bic.w	r3, r3, #8192	; 0x2000
 80007b0:	60d3      	str	r3, [r2, #12]
  GPIOB->PUPDR |= (1 << (6*2));
 80007b2:	4b64      	ldr	r3, [pc, #400]	; (8000944 <main+0x2b4>)
 80007b4:	68db      	ldr	r3, [r3, #12]
 80007b6:	4a63      	ldr	r2, [pc, #396]	; (8000944 <main+0x2b4>)
 80007b8:	f443 5380 	orr.w	r3, r3, #4096	; 0x1000
 80007bc:	60d3      	str	r3, [r2, #12]
  //AF for TIM4_CH1
  GPIOB->AFR[0] |= (0x02 << (6*4)); // Writes 0010 in AFRL6
 80007be:	4b61      	ldr	r3, [pc, #388]	; (8000944 <main+0x2b4>)
 80007c0:	6a1b      	ldr	r3, [r3, #32]
 80007c2:	4a60      	ldr	r2, [pc, #384]	; (8000944 <main+0x2b4>)
 80007c4:	f043 7300 	orr.w	r3, r3, #33554432	; 0x2000000
 80007c8:	6213      	str	r3, [r2, #32]
  //EXTI6
  SYSCFG->EXTICR[1] |= BIT_8; // Linking EXTI6 to GPIOB (PB6 = BUTTON 2)
 80007ca:	4b5b      	ldr	r3, [pc, #364]	; (8000938 <main+0x2a8>)
 80007cc:	68db      	ldr	r3, [r3, #12]
 80007ce:	4a5a      	ldr	r2, [pc, #360]	; (8000938 <main+0x2a8>)
 80007d0:	f443 7380 	orr.w	r3, r3, #256	; 0x100
 80007d4:	60d3      	str	r3, [r2, #12]
                    // Sets a 1 in bit 8 see page 145 of the manual
  EXTI->RTSR &= ~(BIT_6); // Disables rising edge in EXTI6
 80007d6:	4b59      	ldr	r3, [pc, #356]	; (800093c <main+0x2ac>)
 80007d8:	689b      	ldr	r3, [r3, #8]
 80007da:	4a58      	ldr	r2, [pc, #352]	; (800093c <main+0x2ac>)
 80007dc:	f023 0340 	bic.w	r3, r3, #64	; 0x40
 80007e0:	6093      	str	r3, [r2, #8]
  EXTI->FTSR |= BIT_6; // Enables falling edge in EXTI6
 80007e2:	4b56      	ldr	r3, [pc, #344]	; (800093c <main+0x2ac>)
 80007e4:	68db      	ldr	r3, [r3, #12]
 80007e6:	4a55      	ldr	r2, [pc, #340]	; (800093c <main+0x2ac>)
 80007e8:	f043 0340 	orr.w	r3, r3, #64	; 0x40
 80007ec:	60d3      	str	r3, [r2, #12]
  EXTI->IMR |= BIT_6; // Enables the interrupt
 80007ee:	4b53      	ldr	r3, [pc, #332]	; (800093c <main+0x2ac>)
 80007f0:	681b      	ldr	r3, [r3, #0]
 80007f2:	4a52      	ldr	r2, [pc, #328]	; (800093c <main+0x2ac>)
 80007f4:	f043 0340 	orr.w	r3, r3, #64	; 0x40
 80007f8:	6013      	str	r3, [r2, #0]
  NVIC->ISER[0] |= (1 << 23); // EXTI6 & 7 have position 23 in the NVIC, since
 80007fa:	4b51      	ldr	r3, [pc, #324]	; (8000940 <main+0x2b0>)
 80007fc:	681b      	ldr	r3, [r3, #0]
 80007fe:	4a50      	ldr	r2, [pc, #320]	; (8000940 <main+0x2b0>)
 8000800:	f443 0300 	orr.w	r3, r3, #8388608	; 0x800000
 8000804:	6013      	str	r3, [r2, #0]

  //TIMERS
  /* TIM3 --------------------------------------------------------------------*/
  //No pin assignment, we just plainly use it for the TOC
  //SET-UP for TIMs 3, CH3 & CH4 - TOCs, for random LED off and TBD
  TIM3->CR1 = 0x0000;   // ON IN CODE BELOW
 8000806:	4b50      	ldr	r3, [pc, #320]	; (8000948 <main+0x2b8>)
 8000808:	2200      	movs	r2, #0
 800080a:	601a      	str	r2, [r3, #0]
  TIM3->CR2 = 0x0000;   // Always set to 0
 800080c:	4b4e      	ldr	r3, [pc, #312]	; (8000948 <main+0x2b8>)
 800080e:	2200      	movs	r2, #0
 8000810:	605a      	str	r2, [r3, #4]
  TIM3->SMCR = 0x0000;  // Always set to 0
 8000812:	4b4d      	ldr	r3, [pc, #308]	; (8000948 <main+0x2b8>)
 8000814:	2200      	movs	r2, #0
 8000816:	609a      	str	r2, [r3, #8]
  TIM3->PSC = 31999;    //Means fclk/(PSC+1)
 8000818:	4b4b      	ldr	r3, [pc, #300]	; (8000948 <main+0x2b8>)
 800081a:	f647 42ff 	movw	r2, #31999	; 0x7cff
 800081e:	629a      	str	r2, [r3, #40]	; 0x28
  TIM3->CNT = 0;        //Initiallized to 0
 8000820:	4b49      	ldr	r3, [pc, #292]	; (8000948 <main+0x2b8>)
 8000822:	2200      	movs	r2, #0
 8000824:	625a      	str	r2, [r3, #36]	; 0x24
  TIM3->ARR = 0xFFFF;   //USED IN PWN so set to max
 8000826:	4b48      	ldr	r3, [pc, #288]	; (8000948 <main+0x2b8>)
 8000828:	f64f 72ff 	movw	r2, #65535	; 0xffff
 800082c:	62da      	str	r2, [r3, #44]	; 0x2c
  TIM3->DIER = 0x0000;  
 800082e:	4b46      	ldr	r3, [pc, #280]	; (8000948 <main+0x2b8>)
 8000830:	2200      	movs	r2, #0
 8000832:	60da      	str	r2, [r3, #12]
  TIM3->CCMR1 = 0x0000; //CCyS = 0 (TOC)
 8000834:	4b44      	ldr	r3, [pc, #272]	; (8000948 <main+0x2b8>)
 8000836:	2200      	movs	r2, #0
 8000838:	619a      	str	r2, [r3, #24]
                        //OCyM = 000 (no external output)
                        //OCyPE = 0 (no preload)
  TIM3->CCER = 0x0000;  //CCyP = 0 (always in TOC)
 800083a:	4b43      	ldr	r3, [pc, #268]	; (8000948 <main+0x2b8>)
 800083c:	2200      	movs	r2, #0
 800083e:	621a      	str	r2, [r3, #32]
                        //CCyE = 0 (external output disabled)
  /* TIM4 --------------------------------------------------------------------*/
  //Assigned to PB7 and PB7
  //SET-UP for TIMs 4, CH1 & CH2 - TICs
  TIM4->CR1 = 0x0000;   //Set to 0 for Counter OFF initially
 8000840:	4b42      	ldr	r3, [pc, #264]	; (800094c <main+0x2bc>)
 8000842:	2200      	movs	r2, #0
 8000844:	601a      	str	r2, [r3, #0]
                        //It will be turned ON in code below
                        //ARPE off because NOT PWM
  TIM4->CR2 = 0x0000;   //Always set to 0 in this course
 8000846:	4b41      	ldr	r3, [pc, #260]	; (800094c <main+0x2bc>)
 8000848:	2200      	movs	r2, #0
 800084a:	605a      	str	r2, [r3, #4]
  TIM4->SMCR = 0x0000;  //Always set to 0 in this course
 800084c:	4b3f      	ldr	r3, [pc, #252]	; (800094c <main+0x2bc>)
 800084e:	2200      	movs	r2, #0
 8000850:	609a      	str	r2, [r3, #8]
  TIM4->PSC = 31999; 
 8000852:	4b3e      	ldr	r3, [pc, #248]	; (800094c <main+0x2bc>)
 8000854:	f647 42ff 	movw	r2, #31999	; 0x7cff
 8000858:	629a      	str	r2, [r3, #40]	; 0x28
  TIM4->CNT = 0;     
 800085a:	4b3c      	ldr	r3, [pc, #240]	; (800094c <main+0x2bc>)
 800085c:	2200      	movs	r2, #0
 800085e:	625a      	str	r2, [r3, #36]	; 0x24
  TIM4->ARR = 0xFFFF;   
 8000860:	4b3a      	ldr	r3, [pc, #232]	; (800094c <main+0x2bc>)
 8000862:	f64f 72ff 	movw	r2, #65535	; 0xffff
 8000866:	62da      	str	r2, [r3, #44]	; 0x2c
  TIM4->DIER = 0X0006;  //IRQ activation for CH1 & 2
 8000868:	4b38      	ldr	r3, [pc, #224]	; (800094c <main+0x2bc>)
 800086a:	2206      	movs	r2, #6
 800086c:	60da      	str	r2, [r3, #12]
  TIM4->CCMR1 = 0x0000; //
 800086e:	4b37      	ldr	r3, [pc, #220]	; (800094c <main+0x2bc>)
 8000870:	2200      	movs	r2, #0
 8000872:	619a      	str	r2, [r3, #24]
                        //OCyM = 000 (no external output)
                        //OCyPE = 0 (no preload)
  TIM4->CCER = 0x0033;  //CCyP = 1 (falling edge)
 8000874:	4b35      	ldr	r3, [pc, #212]	; (800094c <main+0x2bc>)
 8000876:	2233      	movs	r2, #51	; 0x33
 8000878:	621a      	str	r2, [r3, #32]
                        //CCyE = 1 (input capture enabled)
  /* TIM2 --------------------------------------------------------------------*/
  //Assigned to PA5
  //SET-UP for TIM2_CH1 - PWM
  TIM2->CR1 = 0x0080; //(ARPE=1, CEN=0: timer not counting yet)
 800087a:	f04f 4380 	mov.w	r3, #1073741824	; 0x40000000
 800087e:	2280      	movs	r2, #128	; 0x80
 8000880:	601a      	str	r2, [r3, #0]
  TIM2->CR2 = 0x0000;   //Always set to 0 in this course
 8000882:	f04f 4380 	mov.w	r3, #1073741824	; 0x40000000
 8000886:	2200      	movs	r2, #0
 8000888:	605a      	str	r2, [r3, #4]
  TIM2->SMCR = 0x0000;  //Always set to 0 in this course
 800088a:	f04f 4380 	mov.w	r3, #1073741824	; 0x40000000
 800088e:	2200      	movs	r2, #0
 8000890:	609a      	str	r2, [r3, #8]
  //ARR

  //ADC & Buzzer
  /* ADC_IN4 ------------------------------------------------------------------*/
  //PA4 as analog
  GPIOA->MODER |= (1 << (4*2 + 1));
 8000892:	4b28      	ldr	r3, [pc, #160]	; (8000934 <main+0x2a4>)
 8000894:	681b      	ldr	r3, [r3, #0]
 8000896:	4a27      	ldr	r2, [pc, #156]	; (8000934 <main+0x2a4>)
 8000898:	f443 7300 	orr.w	r3, r3, #512	; 0x200
 800089c:	6013      	str	r3, [r2, #0]
  GPIOA->MODER |= (1 << (4*2));
 800089e:	4b25      	ldr	r3, [pc, #148]	; (8000934 <main+0x2a4>)
 80008a0:	681b      	ldr	r3, [r3, #0]
 80008a2:	4a24      	ldr	r2, [pc, #144]	; (8000934 <main+0x2a4>)
 80008a4:	f443 7380 	orr.w	r3, r3, #256	; 0x100
 80008a8:	6013      	str	r3, [r2, #0]
  ADC1->CR2 &= ~(0x00000001); // ADON = 0 (ADC powered off initially)
 80008aa:	4b29      	ldr	r3, [pc, #164]	; (8000950 <main+0x2c0>)
 80008ac:	689b      	ldr	r3, [r3, #8]
 80008ae:	4a28      	ldr	r2, [pc, #160]	; (8000950 <main+0x2c0>)
 80008b0:	f023 0301 	bic.w	r3, r3, #1
 80008b4:	6093      	str	r3, [r2, #8]
  ADC1->CR1 = 0x00000000;     // OVRIE = 0 (overrun IRQ disabled)
 80008b6:	4b26      	ldr	r3, [pc, #152]	; (8000950 <main+0x2c0>)
 80008b8:	2200      	movs	r2, #0
 80008ba:	605a      	str	r2, [r3, #4]
                              // RES = 00 (resolution = 12 bits)
                              // SCAN = 0 (scan mode disabled)
                              // EOCIE = 0 (EOC IRQ disabled)
  ADC1->CR2 = 0x00000412;     // EOCS = 1 (EOC is activated after each conversion)
 80008bc:	4b24      	ldr	r3, [pc, #144]	; (8000950 <main+0x2c0>)
 80008be:	f240 4212 	movw	r2, #1042	; 0x412
 80008c2:	609a      	str	r2, [r3, #8]
                              // DELS = 001 (delay till data is read)
                              // CONT = 1 (continuous conversion)
  ADC1->SQR1 = 0x00000000;    // Set to 0 - activates 1 channel
 80008c4:	4b22      	ldr	r3, [pc, #136]	; (8000950 <main+0x2c0>)
 80008c6:	2200      	movs	r2, #0
 80008c8:	631a      	str	r2, [r3, #48]	; 0x30
  ADC1->SQR5 = 0x00000004;    // Selected channel is AIN4
 80008ca:	4b21      	ldr	r3, [pc, #132]	; (8000950 <main+0x2c0>)
 80008cc:	2204      	movs	r2, #4
 80008ce:	641a      	str	r2, [r3, #64]	; 0x40

  /* BUZZER -------------------------------------------------------------------*/
  //PA5 as AF because we want it as PWM (send different frequencies at different points)
  GPIOA->MODER |= (1 << (5*2 + 1));
 80008d0:	4b18      	ldr	r3, [pc, #96]	; (8000934 <main+0x2a4>)
 80008d2:	681b      	ldr	r3, [r3, #0]
 80008d4:	4a17      	ldr	r2, [pc, #92]	; (8000934 <main+0x2a4>)
 80008d6:	f443 6300 	orr.w	r3, r3, #2048	; 0x800
 80008da:	6013      	str	r3, [r2, #0]
  GPIOA->MODER &= ~(1 << (5*2));
 80008dc:	4b15      	ldr	r3, [pc, #84]	; (8000934 <main+0x2a4>)
 80008de:	681b      	ldr	r3, [r3, #0]
 80008e0:	4a14      	ldr	r2, [pc, #80]	; (8000934 <main+0x2a4>)
 80008e2:	f423 6380 	bic.w	r3, r3, #1024	; 0x400
 80008e6:	6013      	str	r3, [r2, #0]
  //AF for TIM2_CH1
  GPIOB->AFR[0] |= (0x02 << (5*4)); // Writes 0010 in AFRL5
 80008e8:	4b16      	ldr	r3, [pc, #88]	; (8000944 <main+0x2b4>)
 80008ea:	6a1b      	ldr	r3, [r3, #32]
 80008ec:	4a15      	ldr	r2, [pc, #84]	; (8000944 <main+0x2b4>)
 80008ee:	f443 1300 	orr.w	r3, r3, #2097152	; 0x200000
 80008f2:	6213      	str	r3, [r2, #32]

  //LEDs
  /* LED1 ---------------------------------------------------------------------*/
  //PA12 (EXTERNAL LED1) - AF
  GPIOA->MODER &= ~(1 << (12*2 + 1));
 80008f4:	4b0f      	ldr	r3, [pc, #60]	; (8000934 <main+0x2a4>)
 80008f6:	681b      	ldr	r3, [r3, #0]
 80008f8:	4a0e      	ldr	r2, [pc, #56]	; (8000934 <main+0x2a4>)
 80008fa:	f023 7300 	bic.w	r3, r3, #33554432	; 0x2000000
 80008fe:	6013      	str	r3, [r2, #0]
  GPIOA->MODER |= (1 << (12*2));
 8000900:	4b0c      	ldr	r3, [pc, #48]	; (8000934 <main+0x2a4>)
 8000902:	681b      	ldr	r3, [r3, #0]
 8000904:	4a0b      	ldr	r2, [pc, #44]	; (8000934 <main+0x2a4>)
 8000906:	f043 7380 	orr.w	r3, r3, #16777216	; 0x1000000
 800090a:	6013      	str	r3, [r2, #0]
  //Set up with pull-up resistor (01)
  GPIOA->PUPDR &= ~(1 << (12*2 + 1));
 800090c:	4b09      	ldr	r3, [pc, #36]	; (8000934 <main+0x2a4>)
 800090e:	68db      	ldr	r3, [r3, #12]
 8000910:	4a08      	ldr	r2, [pc, #32]	; (8000934 <main+0x2a4>)
 8000912:	f023 7300 	bic.w	r3, r3, #33554432	; 0x2000000
 8000916:	60d3      	str	r3, [r2, #12]
  GPIOA->PUPDR |= (1 << (12*2));
 8000918:	4b06      	ldr	r3, [pc, #24]	; (8000934 <main+0x2a4>)
 800091a:	68db      	ldr	r3, [r3, #12]
 800091c:	4a05      	ldr	r2, [pc, #20]	; (8000934 <main+0x2a4>)
 800091e:	f043 7380 	orr.w	r3, r3, #16777216	; 0x1000000
 8000922:	60d3      	str	r3, [r2, #12]
  /* LED2 ---------------------------------------------------------------------*/
  //PD2 (EXTERNAL LED2) - digital output (01)
  GPIOD->MODER &= ~(1 << (2*2 + 1));
 8000924:	4b0b      	ldr	r3, [pc, #44]	; (8000954 <main+0x2c4>)
 8000926:	681b      	ldr	r3, [r3, #0]
 8000928:	4a0a      	ldr	r2, [pc, #40]	; (8000954 <main+0x2c4>)
 800092a:	f023 0320 	bic.w	r3, r3, #32
 800092e:	6013      	str	r3, [r2, #0]
 8000930:	e012      	b.n	8000958 <main+0x2c8>
 8000932:	bf00      	nop
 8000934:	40020000 	.word	0x40020000
 8000938:	40010000 	.word	0x40010000
 800093c:	40010400 	.word	0x40010400
 8000940:	e000e100 	.word	0xe000e100
 8000944:	40020400 	.word	0x40020400
 8000948:	40000400 	.word	0x40000400
 800094c:	40000800 	.word	0x40000800
 8000950:	40012400 	.word	0x40012400
 8000954:	40020c00 	.word	0x40020c00
  GPIOD->MODER |= (1 << (2*2));
 8000958:	4b80      	ldr	r3, [pc, #512]	; (8000b5c <main+0x4cc>)
 800095a:	681b      	ldr	r3, [r3, #0]
 800095c:	4a7f      	ldr	r2, [pc, #508]	; (8000b5c <main+0x4cc>)
 800095e:	f043 0310 	orr.w	r3, r3, #16
 8000962:	6013      	str	r3, [r2, #0]
  //Set up with pull-up resistor (01)
  GPIOD->PUPDR &= ~(1 << (2*2 + 1));
 8000964:	4b7d      	ldr	r3, [pc, #500]	; (8000b5c <main+0x4cc>)
 8000966:	68db      	ldr	r3, [r3, #12]
 8000968:	4a7c      	ldr	r2, [pc, #496]	; (8000b5c <main+0x4cc>)
 800096a:	f023 0320 	bic.w	r3, r3, #32
 800096e:	60d3      	str	r3, [r2, #12]
  GPIOD->PUPDR |= (1 << (2*2));
 8000970:	4b7a      	ldr	r3, [pc, #488]	; (8000b5c <main+0x4cc>)
 8000972:	68db      	ldr	r3, [r3, #12]
 8000974:	4a79      	ldr	r2, [pc, #484]	; (8000b5c <main+0x4cc>)
 8000976:	f043 0310 	orr.w	r3, r3, #16
 800097a:	60d3      	str	r3, [r2, #12]
    //Global IF condition, so we may immediately switch between games
    //(a WHILE would force us to finish the code execution inside)

    //INITIAL SETUP before each game run
    //All LEDs shall be initially off - when changing game modes, upon a restart of the main while loop
    GPIOA->BSRR = (1 << 12) << 16;
 800097c:	4b78      	ldr	r3, [pc, #480]	; (8000b60 <main+0x4d0>)
 800097e:	f04f 5280 	mov.w	r2, #268435456	; 0x10000000
 8000982:	619a      	str	r2, [r3, #24]
    GPIOD->BSRR = (1 << 2) << 16;
 8000984:	4b75      	ldr	r3, [pc, #468]	; (8000b5c <main+0x4cc>)
 8000986:	f44f 2280 	mov.w	r2, #262144	; 0x40000
 800098a:	619a      	str	r2, [r3, #24]
    //Clear all timer flags to be used
    TIM4->SR = 0;
 800098c:	4b75      	ldr	r3, [pc, #468]	; (8000b64 <main+0x4d4>)
 800098e:	2200      	movs	r2, #0
 8000990:	611a      	str	r2, [r3, #16]
    TIM3->SR = 0;
 8000992:	4b75      	ldr	r3, [pc, #468]	; (8000b68 <main+0x4d8>)
 8000994:	2200      	movs	r2, #0
 8000996:	611a      	str	r2, [r3, #16]
    //Reset counters
    TIM3->CNT = 0;
 8000998:	4b73      	ldr	r3, [pc, #460]	; (8000b68 <main+0x4d8>)
 800099a:	2200      	movs	r2, #0
 800099c:	625a      	str	r2, [r3, #36]	; 0x24
    TIM4->CNT = 0;
 800099e:	4b71      	ldr	r3, [pc, #452]	; (8000b64 <main+0x4d4>)
 80009a0:	2200      	movs	r2, #0
 80009a2:	625a      	str	r2, [r3, #36]	; 0x24

    if (prev_game != game)
 80009a4:	4b71      	ldr	r3, [pc, #452]	; (8000b6c <main+0x4dc>)
 80009a6:	681a      	ldr	r2, [r3, #0]
 80009a8:	4b71      	ldr	r3, [pc, #452]	; (8000b70 <main+0x4e0>)
 80009aa:	681b      	ldr	r3, [r3, #0]
 80009ac:	429a      	cmp	r2, r3
 80009ae:	f000 81cb 	beq.w	8000d48 <main+0x6b8>
    {
      prev_game = game;
 80009b2:	4b6f      	ldr	r3, [pc, #444]	; (8000b70 <main+0x4e0>)
 80009b4:	681b      	ldr	r3, [r3, #0]
 80009b6:	4a6d      	ldr	r2, [pc, #436]	; (8000b6c <main+0x4dc>)
 80009b8:	6013      	str	r3, [r2, #0]
      switch(game)
 80009ba:	4b6d      	ldr	r3, [pc, #436]	; (8000b70 <main+0x4e0>)
 80009bc:	681b      	ldr	r3, [r3, #0]
 80009be:	2b01      	cmp	r3, #1
 80009c0:	f000 80c1 	beq.w	8000b46 <main+0x4b6>
 80009c4:	2b02      	cmp	r3, #2
 80009c6:	f000 81a3 	beq.w	8000d10 <main+0x680>
 80009ca:	e1ab      	b.n	8000d24 <main+0x694>
      {
        case 1: // GAME 1 - REACTION TIME
          while (game == 1)
          {
            BSP_LCD_GLASS_Clear(); //Clear LCD
 80009cc:	f001 f896 	bl	8001afc <BSP_LCD_GLASS_Clear>
            BSP_LCD_GLASS_DisplayString((uint8_t*)" GAME1");
 80009d0:	4868      	ldr	r0, [pc, #416]	; (8000b74 <main+0x4e4>)
 80009d2:	f001 f869 	bl	8001aa8 <BSP_LCD_GLASS_DisplayString>
            espera(2*sec);
 80009d6:	4868      	ldr	r0, [pc, #416]	; (8000b78 <main+0x4e8>)
 80009d8:	f7ff fd54 	bl	8000484 <espera>
            if (prev_game != game) break;
 80009dc:	4b63      	ldr	r3, [pc, #396]	; (8000b6c <main+0x4dc>)
 80009de:	681a      	ldr	r2, [r3, #0]
 80009e0:	4b63      	ldr	r3, [pc, #396]	; (8000b70 <main+0x4e0>)
 80009e2:	681b      	ldr	r3, [r3, #0]
 80009e4:	429a      	cmp	r2, r3
 80009e6:	f040 80b4 	bne.w	8000b52 <main+0x4c2>
            //GAME STARTS HERE
            BSP_LCD_GLASS_Clear(); //Not strictly needed since we are printing the same No. of chars to display
 80009ea:	f001 f887 	bl	8001afc <BSP_LCD_GLASS_Clear>
            BSP_LCD_GLASS_DisplayString((uint8_t*)" READY");
 80009ee:	4863      	ldr	r0, [pc, #396]	; (8000b7c <main+0x4ec>)
 80009f0:	f001 f85a 	bl	8001aa8 <BSP_LCD_GLASS_DisplayString>
            espera(2*sec);
 80009f4:	4860      	ldr	r0, [pc, #384]	; (8000b78 <main+0x4e8>)
 80009f6:	f7ff fd45 	bl	8000484 <espera>
            if (prev_game != game) break;
 80009fa:	4b5c      	ldr	r3, [pc, #368]	; (8000b6c <main+0x4dc>)
 80009fc:	681a      	ldr	r2, [r3, #0]
 80009fe:	4b5c      	ldr	r3, [pc, #368]	; (8000b70 <main+0x4e0>)
 8000a00:	681b      	ldr	r3, [r3, #0]
 8000a02:	429a      	cmp	r2, r3
 8000a04:	f040 80a7 	bne.w	8000b56 <main+0x4c6>
            BSP_LCD_GLASS_Clear();
 8000a08:	f001 f878 	bl	8001afc <BSP_LCD_GLASS_Clear>
            BSP_LCD_GLASS_DisplayString((uint8_t*)"  GO");
 8000a0c:	485c      	ldr	r0, [pc, #368]	; (8000b80 <main+0x4f0>)
 8000a0e:	f001 f84b 	bl	8001aa8 <BSP_LCD_GLASS_DisplayString>

            //Waiting for users to input
            while (winner == 0)
 8000a12:	e04b      	b.n	8000aac <main+0x41c>
            {
              if (prev_game != game) break;
 8000a14:	4b55      	ldr	r3, [pc, #340]	; (8000b6c <main+0x4dc>)
 8000a16:	681a      	ldr	r2, [r3, #0]
 8000a18:	4b55      	ldr	r3, [pc, #340]	; (8000b70 <main+0x4e0>)
 8000a1a:	681b      	ldr	r3, [r3, #0]
 8000a1c:	429a      	cmp	r2, r3
 8000a1e:	d14a      	bne.n	8000ab6 <main+0x426>

              //Start counters
              TIM3->CR1 |= BIT_0;   //Set CEN = 1, Starts the counter
 8000a20:	4b51      	ldr	r3, [pc, #324]	; (8000b68 <main+0x4d8>)
 8000a22:	681b      	ldr	r3, [r3, #0]
 8000a24:	4a50      	ldr	r2, [pc, #320]	; (8000b68 <main+0x4d8>)
 8000a26:	f043 0301 	orr.w	r3, r3, #1
 8000a2a:	6013      	str	r3, [r2, #0]
              TIM3->EGR |= BIT_0;   //UG = 1 -> Generate an update event to update all registers
 8000a2c:	4b4e      	ldr	r3, [pc, #312]	; (8000b68 <main+0x4d8>)
 8000a2e:	695b      	ldr	r3, [r3, #20]
 8000a30:	4a4d      	ldr	r2, [pc, #308]	; (8000b68 <main+0x4d8>)
 8000a32:	f043 0301 	orr.w	r3, r3, #1
 8000a36:	6153      	str	r3, [r2, #20]
              TIM3->SR = 0;         //clear counter flags
 8000a38:	4b4b      	ldr	r3, [pc, #300]	; (8000b68 <main+0x4d8>)
 8000a3a:	2200      	movs	r2, #0
 8000a3c:	611a      	str	r2, [r3, #16]
              randn = random_num(0, 6000); //Before 6 secs at any RANDOM time, LED1 ON
 8000a3e:	f241 7170 	movw	r1, #6000	; 0x1770
 8000a42:	2000      	movs	r0, #0
 8000a44:	f7ff fd70 	bl	8000528 <random_num>
 8000a48:	4603      	mov	r3, r0
 8000a4a:	461a      	mov	r2, r3
 8000a4c:	4b4d      	ldr	r3, [pc, #308]	; (8000b84 <main+0x4f4>)
 8000a4e:	601a      	str	r2, [r3, #0]
              TIM3->CCR1 = randn;
 8000a50:	4a45      	ldr	r2, [pc, #276]	; (8000b68 <main+0x4d8>)
 8000a52:	4b4c      	ldr	r3, [pc, #304]	; (8000b84 <main+0x4f4>)
 8000a54:	681b      	ldr	r3, [r3, #0]
 8000a56:	6353      	str	r3, [r2, #52]	; 0x34

              TIM4->CR1 |= BIT_0;
 8000a58:	4b42      	ldr	r3, [pc, #264]	; (8000b64 <main+0x4d4>)
 8000a5a:	681b      	ldr	r3, [r3, #0]
 8000a5c:	4a41      	ldr	r2, [pc, #260]	; (8000b64 <main+0x4d4>)
 8000a5e:	f043 0301 	orr.w	r3, r3, #1
 8000a62:	6013      	str	r3, [r2, #0]
              TIM4->EGR |= BIT_0;
 8000a64:	4b3f      	ldr	r3, [pc, #252]	; (8000b64 <main+0x4d4>)
 8000a66:	695b      	ldr	r3, [r3, #20]
 8000a68:	4a3e      	ldr	r2, [pc, #248]	; (8000b64 <main+0x4d4>)
 8000a6a:	f043 0301 	orr.w	r3, r3, #1
 8000a6e:	6153      	str	r3, [r2, #20]

              while((TIM3->SR &0x0002) == 0); //loop until there is an event in timer
 8000a70:	bf00      	nop
 8000a72:	4b3d      	ldr	r3, [pc, #244]	; (8000b68 <main+0x4d8>)
 8000a74:	691b      	ldr	r3, [r3, #16]
 8000a76:	f003 0302 	and.w	r3, r3, #2
 8000a7a:	2b00      	cmp	r3, #0
 8000a7c:	d0f9      	beq.n	8000a72 <main+0x3e2>
              TIM3->SR &= ~(0x0002); //clear flag after event
 8000a7e:	4b3a      	ldr	r3, [pc, #232]	; (8000b68 <main+0x4d8>)
 8000a80:	691b      	ldr	r3, [r3, #16]
 8000a82:	4a39      	ldr	r2, [pc, #228]	; (8000b68 <main+0x4d8>)
 8000a84:	f023 0302 	bic.w	r3, r3, #2
 8000a88:	6113      	str	r3, [r2, #16]
              //TIM4->SR = 0; //Clear all TIM4 flags

              if (winner == 0) GPIOA->BSRR = (1 << 12); // LED ON while no player has pressed their button yet
 8000a8a:	4b3f      	ldr	r3, [pc, #252]	; (8000b88 <main+0x4f8>)
 8000a8c:	681b      	ldr	r3, [r3, #0]
 8000a8e:	2b00      	cmp	r3, #0
 8000a90:	d103      	bne.n	8000a9a <main+0x40a>
 8000a92:	4b33      	ldr	r3, [pc, #204]	; (8000b60 <main+0x4d0>)
 8000a94:	f44f 5280 	mov.w	r2, #4096	; 0x1000
 8000a98:	619a      	str	r2, [r3, #24]
              playing = 1;
 8000a9a:	4b3c      	ldr	r3, [pc, #240]	; (8000b8c <main+0x4fc>)
 8000a9c:	2201      	movs	r2, #1
 8000a9e:	601a      	str	r2, [r3, #0]

              if (prev_game != game) break;
 8000aa0:	4b32      	ldr	r3, [pc, #200]	; (8000b6c <main+0x4dc>)
 8000aa2:	681a      	ldr	r2, [r3, #0]
 8000aa4:	4b32      	ldr	r3, [pc, #200]	; (8000b70 <main+0x4e0>)
 8000aa6:	681b      	ldr	r3, [r3, #0]
 8000aa8:	429a      	cmp	r2, r3
 8000aaa:	d106      	bne.n	8000aba <main+0x42a>
            while (winner == 0)
 8000aac:	4b36      	ldr	r3, [pc, #216]	; (8000b88 <main+0x4f8>)
 8000aae:	681b      	ldr	r3, [r3, #0]
 8000ab0:	2b00      	cmp	r3, #0
 8000ab2:	d0af      	beq.n	8000a14 <main+0x384>
 8000ab4:	e002      	b.n	8000abc <main+0x42c>
              if (prev_game != game) break;
 8000ab6:	bf00      	nop
 8000ab8:	e000      	b.n	8000abc <main+0x42c>
              if (prev_game != game) break;
 8000aba:	bf00      	nop
            }

            //WINNER is determined by the interrupts, they will change the var winner to 1 or 2 respectively
            if (winner == 1)
 8000abc:	4b32      	ldr	r3, [pc, #200]	; (8000b88 <main+0x4f8>)
 8000abe:	681b      	ldr	r3, [r3, #0]
 8000ac0:	2b01      	cmp	r3, #1
 8000ac2:	d11e      	bne.n	8000b02 <main+0x472>
            {
              //GPIOA->BSRR = (1 << 12) << 16; //Turn off the LED after a win
              BSP_LCD_GLASS_Clear();
 8000ac4:	f001 f81a 	bl	8001afc <BSP_LCD_GLASS_Clear>

              diff = time_4ch2 - randn;
 8000ac8:	4b31      	ldr	r3, [pc, #196]	; (8000b90 <main+0x500>)
 8000aca:	681b      	ldr	r3, [r3, #0]
 8000acc:	b29a      	uxth	r2, r3
 8000ace:	4b2d      	ldr	r3, [pc, #180]	; (8000b84 <main+0x4f4>)
 8000ad0:	681b      	ldr	r3, [r3, #0]
 8000ad2:	b29b      	uxth	r3, r3
 8000ad4:	1ad3      	subs	r3, r2, r3
 8000ad6:	b29a      	uxth	r2, r3
 8000ad8:	4b2e      	ldr	r3, [pc, #184]	; (8000b94 <main+0x504>)
 8000ada:	801a      	strh	r2, [r3, #0]
              Bin2Ascii(diff, text); //Transforms the short data type to ascii
 8000adc:	4b2d      	ldr	r3, [pc, #180]	; (8000b94 <main+0x504>)
 8000ade:	881b      	ldrh	r3, [r3, #0]
 8000ae0:	492d      	ldr	r1, [pc, #180]	; (8000b98 <main+0x508>)
 8000ae2:	4618      	mov	r0, r3
 8000ae4:	f7ff fce2 	bl	80004ac <Bin2Ascii>
              BSP_LCD_GLASS_DisplayString((uint8_t*) text);
 8000ae8:	482b      	ldr	r0, [pc, #172]	; (8000b98 <main+0x508>)
 8000aea:	f000 ffdd 	bl	8001aa8 <BSP_LCD_GLASS_DisplayString>

              espera(2*sec); //wait so the player acknowledges their win
 8000aee:	4822      	ldr	r0, [pc, #136]	; (8000b78 <main+0x4e8>)
 8000af0:	f7ff fcc8 	bl	8000484 <espera>
              winner = 0; //reset winner for future match
 8000af4:	4b24      	ldr	r3, [pc, #144]	; (8000b88 <main+0x4f8>)
 8000af6:	2200      	movs	r2, #0
 8000af8:	601a      	str	r2, [r3, #0]
              playing = 0;
 8000afa:	4b24      	ldr	r3, [pc, #144]	; (8000b8c <main+0x4fc>)
 8000afc:	2200      	movs	r2, #0
 8000afe:	601a      	str	r2, [r3, #0]
 8000b00:	e021      	b.n	8000b46 <main+0x4b6>
            }
            else if (winner == 2) // We use an else if because we only want ONE winner
 8000b02:	4b21      	ldr	r3, [pc, #132]	; (8000b88 <main+0x4f8>)
 8000b04:	681b      	ldr	r3, [r3, #0]
 8000b06:	2b02      	cmp	r3, #2
 8000b08:	d11d      	bne.n	8000b46 <main+0x4b6>
            {
              //GPIOA->BSRR = (1 << 12) << 16;
              BSP_LCD_GLASS_Clear();
 8000b0a:	f000 fff7 	bl	8001afc <BSP_LCD_GLASS_Clear>

              diff = time_4ch1 - randn;
 8000b0e:	4b23      	ldr	r3, [pc, #140]	; (8000b9c <main+0x50c>)
 8000b10:	681b      	ldr	r3, [r3, #0]
 8000b12:	b29a      	uxth	r2, r3
 8000b14:	4b1b      	ldr	r3, [pc, #108]	; (8000b84 <main+0x4f4>)
 8000b16:	681b      	ldr	r3, [r3, #0]
 8000b18:	b29b      	uxth	r3, r3
 8000b1a:	1ad3      	subs	r3, r2, r3
 8000b1c:	b29a      	uxth	r2, r3
 8000b1e:	4b1d      	ldr	r3, [pc, #116]	; (8000b94 <main+0x504>)
 8000b20:	801a      	strh	r2, [r3, #0]
              Bin2Ascii(diff, text);
 8000b22:	4b1c      	ldr	r3, [pc, #112]	; (8000b94 <main+0x504>)
 8000b24:	881b      	ldrh	r3, [r3, #0]
 8000b26:	491c      	ldr	r1, [pc, #112]	; (8000b98 <main+0x508>)
 8000b28:	4618      	mov	r0, r3
 8000b2a:	f7ff fcbf 	bl	80004ac <Bin2Ascii>
              BSP_LCD_GLASS_DisplayString((uint8_t*) text);
 8000b2e:	481a      	ldr	r0, [pc, #104]	; (8000b98 <main+0x508>)
 8000b30:	f000 ffba 	bl	8001aa8 <BSP_LCD_GLASS_DisplayString>

              espera(2*sec);
 8000b34:	4810      	ldr	r0, [pc, #64]	; (8000b78 <main+0x4e8>)
 8000b36:	f7ff fca5 	bl	8000484 <espera>
              winner = 0;
 8000b3a:	4b13      	ldr	r3, [pc, #76]	; (8000b88 <main+0x4f8>)
 8000b3c:	2200      	movs	r2, #0
 8000b3e:	601a      	str	r2, [r3, #0]
              playing = 0;
 8000b40:	4b12      	ldr	r3, [pc, #72]	; (8000b8c <main+0x4fc>)
 8000b42:	2200      	movs	r2, #0
 8000b44:	601a      	str	r2, [r3, #0]
          while (game == 1)
 8000b46:	4b0a      	ldr	r3, [pc, #40]	; (8000b70 <main+0x4e0>)
 8000b48:	681b      	ldr	r3, [r3, #0]
 8000b4a:	2b01      	cmp	r3, #1
 8000b4c:	f43f af3e 	beq.w	80009cc <main+0x33c>
            }
          }
        break;
 8000b50:	e0fb      	b.n	8000d4a <main+0x6ba>
            if (prev_game != game) break;
 8000b52:	bf00      	nop
 8000b54:	e0f9      	b.n	8000d4a <main+0x6ba>
            if (prev_game != game) break;
 8000b56:	bf00      	nop
        break;
 8000b58:	e0f7      	b.n	8000d4a <main+0x6ba>
 8000b5a:	bf00      	nop
 8000b5c:	40020c00 	.word	0x40020c00
 8000b60:	40020000 	.word	0x40020000
 8000b64:	40000800 	.word	0x40000800
 8000b68:	40000400 	.word	0x40000400
 8000b6c:	200001e4 	.word	0x200001e4
 8000b70:	20000000 	.word	0x20000000
 8000b74:	08005614 	.word	0x08005614
 8000b78:	004c4b40 	.word	0x004c4b40
 8000b7c:	0800561c 	.word	0x0800561c
 8000b80:	08005624 	.word	0x08005624
 8000b84:	20000208 	.word	0x20000208
 8000b88:	200001e8 	.word	0x200001e8
 8000b8c:	200001ec 	.word	0x200001ec
 8000b90:	200001f8 	.word	0x200001f8
 8000b94:	200001fc 	.word	0x200001fc
 8000b98:	20000200 	.word	0x20000200
 8000b9c:	200001f4 	.word	0x200001f4
             *  ADC1->CR2 |= 0x00000001; // ADON = 1 (ADC powered on)
                while ((ADC1->SR&0x0040)==0); // If ADCONS = 0, wait until converter is ready
                ADC1->CR2 |= 0x40000000; // When ADCONS = 1, start conversion (SWSTART = 1)
             */
            
            BSP_LCD_GLASS_Clear();
 8000ba0:	f000 ffac 	bl	8001afc <BSP_LCD_GLASS_Clear>
            BSP_LCD_GLASS_DisplayString((uint8_t*)" GAME2");
 8000ba4:	4869      	ldr	r0, [pc, #420]	; (8000d4c <main+0x6bc>)
 8000ba6:	f000 ff7f 	bl	8001aa8 <BSP_LCD_GLASS_DisplayString>
            espera(2*sec);
 8000baa:	4869      	ldr	r0, [pc, #420]	; (8000d50 <main+0x6c0>)
 8000bac:	f7ff fc6a 	bl	8000484 <espera>
            if (prev_game != game) break;
 8000bb0:	4b68      	ldr	r3, [pc, #416]	; (8000d54 <main+0x6c4>)
 8000bb2:	681a      	ldr	r2, [r3, #0]
 8000bb4:	4b68      	ldr	r3, [pc, #416]	; (8000d58 <main+0x6c8>)
 8000bb6:	681b      	ldr	r3, [r3, #0]
 8000bb8:	429a      	cmp	r2, r3
 8000bba:	f040 80af 	bne.w	8000d1c <main+0x68c>

            BSP_LCD_GLASS_Clear();
 8000bbe:	f000 ff9d 	bl	8001afc <BSP_LCD_GLASS_Clear>
            BSP_LCD_GLASS_DisplayString((uint8_t*)" READY");
 8000bc2:	4866      	ldr	r0, [pc, #408]	; (8000d5c <main+0x6cc>)
 8000bc4:	f000 ff70 	bl	8001aa8 <BSP_LCD_GLASS_DisplayString>
            espera(2*sec);
 8000bc8:	4861      	ldr	r0, [pc, #388]	; (8000d50 <main+0x6c0>)
 8000bca:	f7ff fc5b 	bl	8000484 <espera>
            if (prev_game != game) break;
 8000bce:	4b61      	ldr	r3, [pc, #388]	; (8000d54 <main+0x6c4>)
 8000bd0:	681a      	ldr	r2, [r3, #0]
 8000bd2:	4b61      	ldr	r3, [pc, #388]	; (8000d58 <main+0x6c8>)
 8000bd4:	681b      	ldr	r3, [r3, #0]
 8000bd6:	429a      	cmp	r2, r3
 8000bd8:	f040 80a2 	bne.w	8000d20 <main+0x690>
            BSP_LCD_GLASS_Clear();
 8000bdc:	f000 ff8e 	bl	8001afc <BSP_LCD_GLASS_Clear>
            BSP_LCD_GLASS_DisplayString((uint8_t*)" GO");
 8000be0:	485f      	ldr	r0, [pc, #380]	; (8000d60 <main+0x6d0>)
 8000be2:	f000 ff61 	bl	8001aa8 <BSP_LCD_GLASS_DisplayString>

            //Start counters
            TIM3->CR1 |= BIT_0;   //Set CEN = 1, Starts the counter
 8000be6:	4b5f      	ldr	r3, [pc, #380]	; (8000d64 <main+0x6d4>)
 8000be8:	681b      	ldr	r3, [r3, #0]
 8000bea:	4a5e      	ldr	r2, [pc, #376]	; (8000d64 <main+0x6d4>)
 8000bec:	f043 0301 	orr.w	r3, r3, #1
 8000bf0:	6013      	str	r3, [r2, #0]
            TIM3->EGR |= BIT_0;   //UG = 1 -> Generate an update event to update all registers
 8000bf2:	4b5c      	ldr	r3, [pc, #368]	; (8000d64 <main+0x6d4>)
 8000bf4:	695b      	ldr	r3, [r3, #20]
 8000bf6:	4a5b      	ldr	r2, [pc, #364]	; (8000d64 <main+0x6d4>)
 8000bf8:	f043 0301 	orr.w	r3, r3, #1
 8000bfc:	6153      	str	r3, [r2, #20]
            TIM3->SR = 0;         //clear counter flags
 8000bfe:	4b59      	ldr	r3, [pc, #356]	; (8000d64 <main+0x6d4>)
 8000c00:	2200      	movs	r2, #0
 8000c02:	611a      	str	r2, [r3, #16]
            randn = random_num(0, 10000); //rand num between 0 and 10 seconds
 8000c04:	f242 7110 	movw	r1, #10000	; 0x2710
 8000c08:	2000      	movs	r0, #0
 8000c0a:	f7ff fc8d 	bl	8000528 <random_num>
 8000c0e:	4603      	mov	r3, r0
 8000c10:	461a      	mov	r2, r3
 8000c12:	4b55      	ldr	r3, [pc, #340]	; (8000d68 <main+0x6d8>)
 8000c14:	601a      	str	r2, [r3, #0]
            TIM3->CCR1 = randn;
 8000c16:	4a53      	ldr	r2, [pc, #332]	; (8000d64 <main+0x6d4>)
 8000c18:	4b53      	ldr	r3, [pc, #332]	; (8000d68 <main+0x6d8>)
 8000c1a:	681b      	ldr	r3, [r3, #0]
 8000c1c:	6353      	str	r3, [r2, #52]	; 0x34

            TIM4->CR1 |= BIT_0;
 8000c1e:	4b53      	ldr	r3, [pc, #332]	; (8000d6c <main+0x6dc>)
 8000c20:	681b      	ldr	r3, [r3, #0]
 8000c22:	4a52      	ldr	r2, [pc, #328]	; (8000d6c <main+0x6dc>)
 8000c24:	f043 0301 	orr.w	r3, r3, #1
 8000c28:	6013      	str	r3, [r2, #0]
            TIM4->EGR |= BIT_0;
 8000c2a:	4b50      	ldr	r3, [pc, #320]	; (8000d6c <main+0x6dc>)
 8000c2c:	695b      	ldr	r3, [r3, #20]
 8000c2e:	4a4f      	ldr	r2, [pc, #316]	; (8000d6c <main+0x6dc>)
 8000c30:	f043 0301 	orr.w	r3, r3, #1
 8000c34:	6153      	str	r3, [r2, #20]
            
            while ((TIM3->SR &0x0002) == 0) /*Keep displaying digits*/
 8000c36:	e017      	b.n	8000c68 <main+0x5d8>
            {
              if (prev_game != game) break;
 8000c38:	4b46      	ldr	r3, [pc, #280]	; (8000d54 <main+0x6c4>)
 8000c3a:	681a      	ldr	r2, [r3, #0]
 8000c3c:	4b46      	ldr	r3, [pc, #280]	; (8000d58 <main+0x6c8>)
 8000c3e:	681b      	ldr	r3, [r3, #0]
 8000c40:	429a      	cmp	r2, r3
 8000c42:	d118      	bne.n	8000c76 <main+0x5e6>
              int time_left = 0;
 8000c44:	2300      	movs	r3, #0
 8000c46:	607b      	str	r3, [r7, #4]
              int tot_time = 10;
 8000c48:	230a      	movs	r3, #10
 8000c4a:	603b      	str	r3, [r7, #0]
              time_left = tot_time - time_3; //time_3 in seconds
 8000c4c:	683a      	ldr	r2, [r7, #0]
 8000c4e:	4b48      	ldr	r3, [pc, #288]	; (8000d70 <main+0x6e0>)
 8000c50:	681b      	ldr	r3, [r3, #0]
 8000c52:	1ad3      	subs	r3, r2, r3
 8000c54:	607b      	str	r3, [r7, #4]
              Bin2Ascii(time_left, text);
 8000c56:	687b      	ldr	r3, [r7, #4]
 8000c58:	b29b      	uxth	r3, r3
 8000c5a:	4946      	ldr	r1, [pc, #280]	; (8000d74 <main+0x6e4>)
 8000c5c:	4618      	mov	r0, r3
 8000c5e:	f7ff fc25 	bl	80004ac <Bin2Ascii>
              BSP_LCD_GLASS_DisplayString((uint8_t*) text);
 8000c62:	4844      	ldr	r0, [pc, #272]	; (8000d74 <main+0x6e4>)
 8000c64:	f000 ff20 	bl	8001aa8 <BSP_LCD_GLASS_DisplayString>
            while ((TIM3->SR &0x0002) == 0) /*Keep displaying digits*/
 8000c68:	4b3e      	ldr	r3, [pc, #248]	; (8000d64 <main+0x6d4>)
 8000c6a:	691b      	ldr	r3, [r3, #16]
 8000c6c:	f003 0302 	and.w	r3, r3, #2
 8000c70:	2b00      	cmp	r3, #0
 8000c72:	d0e1      	beq.n	8000c38 <main+0x5a8>
 8000c74:	e000      	b.n	8000c78 <main+0x5e8>
              if (prev_game != game) break;
 8000c76:	bf00      	nop
            }

            //WINNER is determined by the interrupts, they will change the var winner to 1 or 2 respectively
            if (winner == 1)
 8000c78:	4b3f      	ldr	r3, [pc, #252]	; (8000d78 <main+0x6e8>)
 8000c7a:	681b      	ldr	r3, [r3, #0]
 8000c7c:	2b01      	cmp	r3, #1
 8000c7e:	d122      	bne.n	8000cc6 <main+0x636>
            {
              GPIOA->BSRR = (1 << 12); //Turn on LED1 to indicate P1 won
 8000c80:	4b3e      	ldr	r3, [pc, #248]	; (8000d7c <main+0x6ec>)
 8000c82:	f44f 5280 	mov.w	r2, #4096	; 0x1000
 8000c86:	619a      	str	r2, [r3, #24]
              BSP_LCD_GLASS_Clear();
 8000c88:	f000 ff38 	bl	8001afc <BSP_LCD_GLASS_Clear>

              diff = time_4ch2 - randn;
 8000c8c:	4b3c      	ldr	r3, [pc, #240]	; (8000d80 <main+0x6f0>)
 8000c8e:	681b      	ldr	r3, [r3, #0]
 8000c90:	b29a      	uxth	r2, r3
 8000c92:	4b35      	ldr	r3, [pc, #212]	; (8000d68 <main+0x6d8>)
 8000c94:	681b      	ldr	r3, [r3, #0]
 8000c96:	b29b      	uxth	r3, r3
 8000c98:	1ad3      	subs	r3, r2, r3
 8000c9a:	b29a      	uxth	r2, r3
 8000c9c:	4b39      	ldr	r3, [pc, #228]	; (8000d84 <main+0x6f4>)
 8000c9e:	801a      	strh	r2, [r3, #0]
              Bin2Ascii(diff, text);
 8000ca0:	4b38      	ldr	r3, [pc, #224]	; (8000d84 <main+0x6f4>)
 8000ca2:	881b      	ldrh	r3, [r3, #0]
 8000ca4:	4933      	ldr	r1, [pc, #204]	; (8000d74 <main+0x6e4>)
 8000ca6:	4618      	mov	r0, r3
 8000ca8:	f7ff fc00 	bl	80004ac <Bin2Ascii>
              BSP_LCD_GLASS_DisplayString((uint8_t*) text);
 8000cac:	4831      	ldr	r0, [pc, #196]	; (8000d74 <main+0x6e4>)
 8000cae:	f000 fefb 	bl	8001aa8 <BSP_LCD_GLASS_DisplayString>

              espera(2*sec); //wait so the player acknowledges their win
 8000cb2:	4827      	ldr	r0, [pc, #156]	; (8000d50 <main+0x6c0>)
 8000cb4:	f7ff fbe6 	bl	8000484 <espera>
              winner = 0;
 8000cb8:	4b2f      	ldr	r3, [pc, #188]	; (8000d78 <main+0x6e8>)
 8000cba:	2200      	movs	r2, #0
 8000cbc:	601a      	str	r2, [r3, #0]
              playing = 0;
 8000cbe:	4b32      	ldr	r3, [pc, #200]	; (8000d88 <main+0x6f8>)
 8000cc0:	2200      	movs	r2, #0
 8000cc2:	601a      	str	r2, [r3, #0]
 8000cc4:	e024      	b.n	8000d10 <main+0x680>
            }
            else if (winner == 2) // We use an else if because we only want ONE winner
 8000cc6:	4b2c      	ldr	r3, [pc, #176]	; (8000d78 <main+0x6e8>)
 8000cc8:	681b      	ldr	r3, [r3, #0]
 8000cca:	2b02      	cmp	r3, #2
 8000ccc:	d120      	bne.n	8000d10 <main+0x680>
            {
              GPIOD->BSRR = (1 << 2); //Turn on LED2 to indicate P2 won
 8000cce:	4b2f      	ldr	r3, [pc, #188]	; (8000d8c <main+0x6fc>)
 8000cd0:	2204      	movs	r2, #4
 8000cd2:	619a      	str	r2, [r3, #24]
              BSP_LCD_GLASS_Clear();
 8000cd4:	f000 ff12 	bl	8001afc <BSP_LCD_GLASS_Clear>

              diff = time_4ch1 - randn;
 8000cd8:	4b2d      	ldr	r3, [pc, #180]	; (8000d90 <main+0x700>)
 8000cda:	681b      	ldr	r3, [r3, #0]
 8000cdc:	b29a      	uxth	r2, r3
 8000cde:	4b22      	ldr	r3, [pc, #136]	; (8000d68 <main+0x6d8>)
 8000ce0:	681b      	ldr	r3, [r3, #0]
 8000ce2:	b29b      	uxth	r3, r3
 8000ce4:	1ad3      	subs	r3, r2, r3
 8000ce6:	b29a      	uxth	r2, r3
 8000ce8:	4b26      	ldr	r3, [pc, #152]	; (8000d84 <main+0x6f4>)
 8000cea:	801a      	strh	r2, [r3, #0]
              Bin2Ascii(diff, text);
 8000cec:	4b25      	ldr	r3, [pc, #148]	; (8000d84 <main+0x6f4>)
 8000cee:	881b      	ldrh	r3, [r3, #0]
 8000cf0:	4920      	ldr	r1, [pc, #128]	; (8000d74 <main+0x6e4>)
 8000cf2:	4618      	mov	r0, r3
 8000cf4:	f7ff fbda 	bl	80004ac <Bin2Ascii>
              BSP_LCD_GLASS_DisplayString((uint8_t*) text);
 8000cf8:	481e      	ldr	r0, [pc, #120]	; (8000d74 <main+0x6e4>)
 8000cfa:	f000 fed5 	bl	8001aa8 <BSP_LCD_GLASS_DisplayString>

              espera(2*sec);
 8000cfe:	4814      	ldr	r0, [pc, #80]	; (8000d50 <main+0x6c0>)
 8000d00:	f7ff fbc0 	bl	8000484 <espera>
              winner = 0;
 8000d04:	4b1c      	ldr	r3, [pc, #112]	; (8000d78 <main+0x6e8>)
 8000d06:	2200      	movs	r2, #0
 8000d08:	601a      	str	r2, [r3, #0]
              playing = 0;
 8000d0a:	4b1f      	ldr	r3, [pc, #124]	; (8000d88 <main+0x6f8>)
 8000d0c:	2200      	movs	r2, #0
 8000d0e:	601a      	str	r2, [r3, #0]
          while (game == 2)
 8000d10:	4b11      	ldr	r3, [pc, #68]	; (8000d58 <main+0x6c8>)
 8000d12:	681b      	ldr	r3, [r3, #0]
 8000d14:	2b02      	cmp	r3, #2
 8000d16:	f43f af43 	beq.w	8000ba0 <main+0x510>
            }
          }
        break;
 8000d1a:	e016      	b.n	8000d4a <main+0x6ba>
            if (prev_game != game) break;
 8000d1c:	bf00      	nop
 8000d1e:	e014      	b.n	8000d4a <main+0x6ba>
            if (prev_game != game) break;
 8000d20:	bf00      	nop
        break;
 8000d22:	e012      	b.n	8000d4a <main+0x6ba>

        //This code below should be unreachable on purpose
        //Written to acknowledge a logical failure (of our code)
        default:
          GPIOA->BSRR = (1 << 12) << 16;
 8000d24:	4b15      	ldr	r3, [pc, #84]	; (8000d7c <main+0x6ec>)
 8000d26:	f04f 5280 	mov.w	r2, #268435456	; 0x10000000
 8000d2a:	619a      	str	r2, [r3, #24]
          BSP_LCD_GLASS_Clear();
 8000d2c:	f000 fee6 	bl	8001afc <BSP_LCD_GLASS_Clear>
          BSP_LCD_GLASS_DisplayString((uint8_t*)" ERROR");
 8000d30:	4818      	ldr	r0, [pc, #96]	; (8000d94 <main+0x704>)
 8000d32:	f000 feb9 	bl	8001aa8 <BSP_LCD_GLASS_DisplayString>
          espera(2*sec);
 8000d36:	4806      	ldr	r0, [pc, #24]	; (8000d50 <main+0x6c0>)
 8000d38:	f7ff fba4 	bl	8000484 <espera>
          BSP_LCD_GLASS_Clear();
 8000d3c:	f000 fede 	bl	8001afc <BSP_LCD_GLASS_Clear>
          BSP_LCD_GLASS_DisplayString((uint8_t*)" RESET");
 8000d40:	4815      	ldr	r0, [pc, #84]	; (8000d98 <main+0x708>)
 8000d42:	f000 feb1 	bl	8001aa8 <BSP_LCD_GLASS_DisplayString>
        break;
 8000d46:	e000      	b.n	8000d4a <main+0x6ba>
      }
    }
 8000d48:	bf00      	nop
    GPIOA->BSRR = (1 << 12) << 16;
 8000d4a:	e617      	b.n	800097c <main+0x2ec>
 8000d4c:	0800562c 	.word	0x0800562c
 8000d50:	004c4b40 	.word	0x004c4b40
 8000d54:	200001e4 	.word	0x200001e4
 8000d58:	20000000 	.word	0x20000000
 8000d5c:	0800561c 	.word	0x0800561c
 8000d60:	08005634 	.word	0x08005634
 8000d64:	40000400 	.word	0x40000400
 8000d68:	20000208 	.word	0x20000208
 8000d6c:	40000800 	.word	0x40000800
 8000d70:	200001f0 	.word	0x200001f0
 8000d74:	20000200 	.word	0x20000200
 8000d78:	200001e8 	.word	0x200001e8
 8000d7c:	40020000 	.word	0x40020000
 8000d80:	200001f8 	.word	0x200001f8
 8000d84:	200001fc 	.word	0x200001fc
 8000d88:	200001ec 	.word	0x200001ec
 8000d8c:	40020c00 	.word	0x40020c00
 8000d90:	200001f4 	.word	0x200001f4
 8000d94:	08005638 	.word	0x08005638
 8000d98:	08005640 	.word	0x08005640

08000d9c <SystemClock_Config>:
/**
  * @brief System Clock Configuration
  * @retval None
  */
void SystemClock_Config(void)
{
 8000d9c:	b580      	push	{r7, lr}
 8000d9e:	b096      	sub	sp, #88	; 0x58
 8000da0:	af00      	add	r7, sp, #0
  RCC_OscInitTypeDef RCC_OscInitStruct = {0};
 8000da2:	f107 0324 	add.w	r3, r7, #36	; 0x24
 8000da6:	2234      	movs	r2, #52	; 0x34
 8000da8:	2100      	movs	r1, #0
 8000daa:	4618      	mov	r0, r3
 8000dac:	f003 fbe0 	bl	8004570 <memset>
  RCC_ClkInitTypeDef RCC_ClkInitStruct = {0};
 8000db0:	f107 0310 	add.w	r3, r7, #16
 8000db4:	2200      	movs	r2, #0
 8000db6:	601a      	str	r2, [r3, #0]
 8000db8:	605a      	str	r2, [r3, #4]
 8000dba:	609a      	str	r2, [r3, #8]
 8000dbc:	60da      	str	r2, [r3, #12]
 8000dbe:	611a      	str	r2, [r3, #16]
  RCC_PeriphCLKInitTypeDef PeriphClkInit = {0};
 8000dc0:	1d3b      	adds	r3, r7, #4
 8000dc2:	2200      	movs	r2, #0
 8000dc4:	601a      	str	r2, [r3, #0]
 8000dc6:	605a      	str	r2, [r3, #4]
 8000dc8:	609a      	str	r2, [r3, #8]

  /** Configure the main internal regulator output voltage
  */
  __HAL_PWR_VOLTAGESCALING_CONFIG(PWR_REGULATOR_VOLTAGE_SCALE1);
 8000dca:	4b27      	ldr	r3, [pc, #156]	; (8000e68 <SystemClock_Config+0xcc>)
 8000dcc:	681b      	ldr	r3, [r3, #0]
 8000dce:	f423 53c0 	bic.w	r3, r3, #6144	; 0x1800
 8000dd2:	4a25      	ldr	r2, [pc, #148]	; (8000e68 <SystemClock_Config+0xcc>)
 8000dd4:	f443 6300 	orr.w	r3, r3, #2048	; 0x800
 8000dd8:	6013      	str	r3, [r2, #0]

  /** Initializes the RCC Oscillators according to the specified parameters
  * in the RCC_OscInitTypeDef structure.
  */
  RCC_OscInitStruct.OscillatorType = RCC_OSCILLATORTYPE_HSI|RCC_OSCILLATORTYPE_LSE;
 8000dda:	2306      	movs	r3, #6
 8000ddc:	627b      	str	r3, [r7, #36]	; 0x24
  RCC_OscInitStruct.LSEState = RCC_LSE_ON;
 8000dde:	2301      	movs	r3, #1
 8000de0:	62fb      	str	r3, [r7, #44]	; 0x2c
  RCC_OscInitStruct.HSIState = RCC_HSI_ON;
 8000de2:	2301      	movs	r3, #1
 8000de4:	633b      	str	r3, [r7, #48]	; 0x30
  RCC_OscInitStruct.HSICalibrationValue = RCC_HSICALIBRATION_DEFAULT;
 8000de6:	2310      	movs	r3, #16
 8000de8:	637b      	str	r3, [r7, #52]	; 0x34
  RCC_OscInitStruct.PLL.PLLState = RCC_PLL_ON;
 8000dea:	2302      	movs	r3, #2
 8000dec:	64bb      	str	r3, [r7, #72]	; 0x48
  RCC_OscInitStruct.PLL.PLLSource = RCC_PLLSOURCE_HSI;
 8000dee:	2300      	movs	r3, #0
 8000df0:	64fb      	str	r3, [r7, #76]	; 0x4c
  RCC_OscInitStruct.PLL.PLLMUL = RCC_PLL_MUL6;
 8000df2:	f44f 2300 	mov.w	r3, #524288	; 0x80000
 8000df6:	653b      	str	r3, [r7, #80]	; 0x50
  RCC_OscInitStruct.PLL.PLLDIV = RCC_PLL_DIV3;
 8000df8:	f44f 0300 	mov.w	r3, #8388608	; 0x800000
 8000dfc:	657b      	str	r3, [r7, #84]	; 0x54
  if (HAL_RCC_OscConfig(&RCC_OscInitStruct) != HAL_OK)
 8000dfe:	f107 0324 	add.w	r3, r7, #36	; 0x24
 8000e02:	4618      	mov	r0, r3
 8000e04:	f002 fa62 	bl	80032cc <HAL_RCC_OscConfig>
 8000e08:	4603      	mov	r3, r0
 8000e0a:	2b00      	cmp	r3, #0
 8000e0c:	d001      	beq.n	8000e12 <SystemClock_Config+0x76>
  {
    Error_Handler();
 8000e0e:	f000 f9ed 	bl	80011ec <Error_Handler>
  }

  /** Initializes the CPU, AHB and APB buses clocks
  */
  RCC_ClkInitStruct.ClockType = RCC_CLOCKTYPE_HCLK|RCC_CLOCKTYPE_SYSCLK
 8000e12:	230f      	movs	r3, #15
 8000e14:	613b      	str	r3, [r7, #16]
                              |RCC_CLOCKTYPE_PCLK1|RCC_CLOCKTYPE_PCLK2;
  RCC_ClkInitStruct.SYSCLKSource = RCC_SYSCLKSOURCE_PLLCLK;
 8000e16:	2303      	movs	r3, #3
 8000e18:	617b      	str	r3, [r7, #20]
  RCC_ClkInitStruct.AHBCLKDivider = RCC_SYSCLK_DIV1;
 8000e1a:	2300      	movs	r3, #0
 8000e1c:	61bb      	str	r3, [r7, #24]
  RCC_ClkInitStruct.APB1CLKDivider = RCC_HCLK_DIV1;
 8000e1e:	2300      	movs	r3, #0
 8000e20:	61fb      	str	r3, [r7, #28]
  RCC_ClkInitStruct.APB2CLKDivider = RCC_HCLK_DIV1;
 8000e22:	2300      	movs	r3, #0
 8000e24:	623b      	str	r3, [r7, #32]

  if (HAL_RCC_ClockConfig(&RCC_ClkInitStruct, FLASH_LATENCY_1) != HAL_OK)
 8000e26:	f107 0310 	add.w	r3, r7, #16
 8000e2a:	2101      	movs	r1, #1
 8000e2c:	4618      	mov	r0, r3
 8000e2e:	f002 fd7d 	bl	800392c <HAL_RCC_ClockConfig>
 8000e32:	4603      	mov	r3, r0
 8000e34:	2b00      	cmp	r3, #0
 8000e36:	d001      	beq.n	8000e3c <SystemClock_Config+0xa0>
  {
    Error_Handler();
 8000e38:	f000 f9d8 	bl	80011ec <Error_Handler>
  }
  PeriphClkInit.PeriphClockSelection = RCC_PERIPHCLK_RTC|RCC_PERIPHCLK_LCD;
 8000e3c:	2303      	movs	r3, #3
 8000e3e:	607b      	str	r3, [r7, #4]
  PeriphClkInit.RTCClockSelection = RCC_RTCCLKSOURCE_LSE;
 8000e40:	f44f 3380 	mov.w	r3, #65536	; 0x10000
 8000e44:	60bb      	str	r3, [r7, #8]
  PeriphClkInit.LCDClockSelection = RCC_RTCCLKSOURCE_LSE;
 8000e46:	f44f 3380 	mov.w	r3, #65536	; 0x10000
 8000e4a:	60fb      	str	r3, [r7, #12]

  if (HAL_RCCEx_PeriphCLKConfig(&PeriphClkInit) != HAL_OK)
 8000e4c:	1d3b      	adds	r3, r7, #4
 8000e4e:	4618      	mov	r0, r3
 8000e50:	f003 f800 	bl	8003e54 <HAL_RCCEx_PeriphCLKConfig>
 8000e54:	4603      	mov	r3, r0
 8000e56:	2b00      	cmp	r3, #0
 8000e58:	d001      	beq.n	8000e5e <SystemClock_Config+0xc2>
  {
    Error_Handler();
 8000e5a:	f000 f9c7 	bl	80011ec <Error_Handler>
  }
}
 8000e5e:	bf00      	nop
 8000e60:	3758      	adds	r7, #88	; 0x58
 8000e62:	46bd      	mov	sp, r7
 8000e64:	bd80      	pop	{r7, pc}
 8000e66:	bf00      	nop
 8000e68:	40007000 	.word	0x40007000

08000e6c <MX_ADC_Init>:
  * @brief ADC Initialization Function
  * @param None
  * @retval None
  */
static void MX_ADC_Init(void)
{
 8000e6c:	b580      	push	{r7, lr}
 8000e6e:	b084      	sub	sp, #16
 8000e70:	af00      	add	r7, sp, #0

  /* USER CODE BEGIN ADC_Init 0 */

  /* USER CODE END ADC_Init 0 */

  ADC_ChannelConfTypeDef sConfig = {0};
 8000e72:	1d3b      	adds	r3, r7, #4
 8000e74:	2200      	movs	r2, #0
 8000e76:	601a      	str	r2, [r3, #0]
 8000e78:	605a      	str	r2, [r3, #4]
 8000e7a:	609a      	str	r2, [r3, #8]

  /* USER CODE END ADC_Init 1 */

  /** Configure the global features of the ADC (Clock, Resolution, Data Alignment and number of conversion)
  */
  hadc.Instance = ADC1;
 8000e7c:	4b26      	ldr	r3, [pc, #152]	; (8000f18 <MX_ADC_Init+0xac>)
 8000e7e:	4a27      	ldr	r2, [pc, #156]	; (8000f1c <MX_ADC_Init+0xb0>)
 8000e80:	601a      	str	r2, [r3, #0]
  hadc.Init.ClockPrescaler = ADC_CLOCK_ASYNC_DIV1;
 8000e82:	4b25      	ldr	r3, [pc, #148]	; (8000f18 <MX_ADC_Init+0xac>)
 8000e84:	2200      	movs	r2, #0
 8000e86:	605a      	str	r2, [r3, #4]
  hadc.Init.Resolution = ADC_RESOLUTION_12B;
 8000e88:	4b23      	ldr	r3, [pc, #140]	; (8000f18 <MX_ADC_Init+0xac>)
 8000e8a:	2200      	movs	r2, #0
 8000e8c:	609a      	str	r2, [r3, #8]
  hadc.Init.DataAlign = ADC_DATAALIGN_RIGHT;
 8000e8e:	4b22      	ldr	r3, [pc, #136]	; (8000f18 <MX_ADC_Init+0xac>)
 8000e90:	2200      	movs	r2, #0
 8000e92:	60da      	str	r2, [r3, #12]
  hadc.Init.ScanConvMode = ADC_SCAN_DISABLE;
 8000e94:	4b20      	ldr	r3, [pc, #128]	; (8000f18 <MX_ADC_Init+0xac>)
 8000e96:	2200      	movs	r2, #0
 8000e98:	611a      	str	r2, [r3, #16]
  hadc.Init.EOCSelection = ADC_EOC_SEQ_CONV;
 8000e9a:	4b1f      	ldr	r3, [pc, #124]	; (8000f18 <MX_ADC_Init+0xac>)
 8000e9c:	2200      	movs	r2, #0
 8000e9e:	615a      	str	r2, [r3, #20]
  hadc.Init.LowPowerAutoWait = ADC_AUTOWAIT_DISABLE;
 8000ea0:	4b1d      	ldr	r3, [pc, #116]	; (8000f18 <MX_ADC_Init+0xac>)
 8000ea2:	2200      	movs	r2, #0
 8000ea4:	619a      	str	r2, [r3, #24]
  hadc.Init.LowPowerAutoPowerOff = ADC_AUTOPOWEROFF_DISABLE;
 8000ea6:	4b1c      	ldr	r3, [pc, #112]	; (8000f18 <MX_ADC_Init+0xac>)
 8000ea8:	2200      	movs	r2, #0
 8000eaa:	61da      	str	r2, [r3, #28]
  hadc.Init.ChannelsBank = ADC_CHANNELS_BANK_A;
 8000eac:	4b1a      	ldr	r3, [pc, #104]	; (8000f18 <MX_ADC_Init+0xac>)
 8000eae:	2200      	movs	r2, #0
 8000eb0:	621a      	str	r2, [r3, #32]
  hadc.Init.ContinuousConvMode = DISABLE;
 8000eb2:	4b19      	ldr	r3, [pc, #100]	; (8000f18 <MX_ADC_Init+0xac>)
 8000eb4:	2200      	movs	r2, #0
 8000eb6:	f883 2024 	strb.w	r2, [r3, #36]	; 0x24
  hadc.Init.NbrOfConversion = 1;
 8000eba:	4b17      	ldr	r3, [pc, #92]	; (8000f18 <MX_ADC_Init+0xac>)
 8000ebc:	2201      	movs	r2, #1
 8000ebe:	629a      	str	r2, [r3, #40]	; 0x28
  hadc.Init.DiscontinuousConvMode = DISABLE;
 8000ec0:	4b15      	ldr	r3, [pc, #84]	; (8000f18 <MX_ADC_Init+0xac>)
 8000ec2:	2200      	movs	r2, #0
 8000ec4:	f883 202c 	strb.w	r2, [r3, #44]	; 0x2c
  hadc.Init.ExternalTrigConv = ADC_EXTERNALTRIGCONV_T2_CC3;
 8000ec8:	4b13      	ldr	r3, [pc, #76]	; (8000f18 <MX_ADC_Init+0xac>)
 8000eca:	f04f 7200 	mov.w	r2, #33554432	; 0x2000000
 8000ece:	635a      	str	r2, [r3, #52]	; 0x34
  hadc.Init.ExternalTrigConvEdge = ADC_EXTERNALTRIGCONVEDGE_RISING;
 8000ed0:	4b11      	ldr	r3, [pc, #68]	; (8000f18 <MX_ADC_Init+0xac>)
 8000ed2:	f04f 5280 	mov.w	r2, #268435456	; 0x10000000
 8000ed6:	639a      	str	r2, [r3, #56]	; 0x38
  hadc.Init.DMAContinuousRequests = DISABLE;
 8000ed8:	4b0f      	ldr	r3, [pc, #60]	; (8000f18 <MX_ADC_Init+0xac>)
 8000eda:	2200      	movs	r2, #0
 8000edc:	f883 203c 	strb.w	r2, [r3, #60]	; 0x3c
  if (HAL_ADC_Init(&hadc) != HAL_OK)
 8000ee0:	480d      	ldr	r0, [pc, #52]	; (8000f18 <MX_ADC_Init+0xac>)
 8000ee2:	f001 fb25 	bl	8002530 <HAL_ADC_Init>
 8000ee6:	4603      	mov	r3, r0
 8000ee8:	2b00      	cmp	r3, #0
 8000eea:	d001      	beq.n	8000ef0 <MX_ADC_Init+0x84>
  {
    Error_Handler();
 8000eec:	f000 f97e 	bl	80011ec <Error_Handler>
  }

  /** Configure for the selected ADC regular channel its corresponding rank in the sequencer and its sample time.
  */
  sConfig.Channel = ADC_CHANNEL_4;
 8000ef0:	2304      	movs	r3, #4
 8000ef2:	607b      	str	r3, [r7, #4]
  sConfig.Rank = ADC_REGULAR_RANK_1;
 8000ef4:	2301      	movs	r3, #1
 8000ef6:	60bb      	str	r3, [r7, #8]
  sConfig.SamplingTime = ADC_SAMPLETIME_4CYCLES;
 8000ef8:	2300      	movs	r3, #0
 8000efa:	60fb      	str	r3, [r7, #12]
  if (HAL_ADC_ConfigChannel(&hadc, &sConfig) != HAL_OK)
 8000efc:	1d3b      	adds	r3, r7, #4
 8000efe:	4619      	mov	r1, r3
 8000f00:	4805      	ldr	r0, [pc, #20]	; (8000f18 <MX_ADC_Init+0xac>)
 8000f02:	f001 fc5b 	bl	80027bc <HAL_ADC_ConfigChannel>
 8000f06:	4603      	mov	r3, r0
 8000f08:	2b00      	cmp	r3, #0
 8000f0a:	d001      	beq.n	8000f10 <MX_ADC_Init+0xa4>
  {
    Error_Handler();
 8000f0c:	f000 f96e 	bl	80011ec <Error_Handler>
  }
  /* USER CODE BEGIN ADC_Init 2 */

  /* USER CODE END ADC_Init 2 */

}
 8000f10:	bf00      	nop
 8000f12:	3710      	adds	r7, #16
 8000f14:	46bd      	mov	sp, r7
 8000f16:	bd80      	pop	{r7, pc}
 8000f18:	20000094 	.word	0x20000094
 8000f1c:	40012400 	.word	0x40012400

08000f20 <MX_LCD_Init>:
  * @brief LCD Initialization Function
  * @param None
  * @retval None
  */
static void MX_LCD_Init(void)
{
 8000f20:	b580      	push	{r7, lr}
 8000f22:	af00      	add	r7, sp, #0
  /* USER CODE END LCD_Init 0 */

  /* USER CODE BEGIN LCD_Init 1 */

  /* USER CODE END LCD_Init 1 */
  hlcd.Instance = LCD;
 8000f24:	4b16      	ldr	r3, [pc, #88]	; (8000f80 <MX_LCD_Init+0x60>)
 8000f26:	4a17      	ldr	r2, [pc, #92]	; (8000f84 <MX_LCD_Init+0x64>)
 8000f28:	601a      	str	r2, [r3, #0]
  hlcd.Init.Prescaler = LCD_PRESCALER_1;
 8000f2a:	4b15      	ldr	r3, [pc, #84]	; (8000f80 <MX_LCD_Init+0x60>)
 8000f2c:	2200      	movs	r2, #0
 8000f2e:	605a      	str	r2, [r3, #4]
  hlcd.Init.Divider = LCD_DIVIDER_16;
 8000f30:	4b13      	ldr	r3, [pc, #76]	; (8000f80 <MX_LCD_Init+0x60>)
 8000f32:	2200      	movs	r2, #0
 8000f34:	609a      	str	r2, [r3, #8]
  hlcd.Init.Duty = LCD_DUTY_1_4;
 8000f36:	4b12      	ldr	r3, [pc, #72]	; (8000f80 <MX_LCD_Init+0x60>)
 8000f38:	220c      	movs	r2, #12
 8000f3a:	60da      	str	r2, [r3, #12]
  hlcd.Init.Bias = LCD_BIAS_1_4;
 8000f3c:	4b10      	ldr	r3, [pc, #64]	; (8000f80 <MX_LCD_Init+0x60>)
 8000f3e:	2200      	movs	r2, #0
 8000f40:	611a      	str	r2, [r3, #16]
  hlcd.Init.VoltageSource = LCD_VOLTAGESOURCE_INTERNAL;
 8000f42:	4b0f      	ldr	r3, [pc, #60]	; (8000f80 <MX_LCD_Init+0x60>)
 8000f44:	2200      	movs	r2, #0
 8000f46:	615a      	str	r2, [r3, #20]
  hlcd.Init.Contrast = LCD_CONTRASTLEVEL_0;
 8000f48:	4b0d      	ldr	r3, [pc, #52]	; (8000f80 <MX_LCD_Init+0x60>)
 8000f4a:	2200      	movs	r2, #0
 8000f4c:	619a      	str	r2, [r3, #24]
  hlcd.Init.DeadTime = LCD_DEADTIME_0;
 8000f4e:	4b0c      	ldr	r3, [pc, #48]	; (8000f80 <MX_LCD_Init+0x60>)
 8000f50:	2200      	movs	r2, #0
 8000f52:	61da      	str	r2, [r3, #28]
  hlcd.Init.PulseOnDuration = LCD_PULSEONDURATION_0;
 8000f54:	4b0a      	ldr	r3, [pc, #40]	; (8000f80 <MX_LCD_Init+0x60>)
 8000f56:	2200      	movs	r2, #0
 8000f58:	621a      	str	r2, [r3, #32]
  hlcd.Init.MuxSegment = LCD_MUXSEGMENT_DISABLE;
 8000f5a:	4b09      	ldr	r3, [pc, #36]	; (8000f80 <MX_LCD_Init+0x60>)
 8000f5c:	2200      	movs	r2, #0
 8000f5e:	631a      	str	r2, [r3, #48]	; 0x30
  hlcd.Init.BlinkMode = LCD_BLINKMODE_OFF;
 8000f60:	4b07      	ldr	r3, [pc, #28]	; (8000f80 <MX_LCD_Init+0x60>)
 8000f62:	2200      	movs	r2, #0
 8000f64:	629a      	str	r2, [r3, #40]	; 0x28
  hlcd.Init.BlinkFrequency = LCD_BLINKFREQUENCY_DIV8;
 8000f66:	4b06      	ldr	r3, [pc, #24]	; (8000f80 <MX_LCD_Init+0x60>)
 8000f68:	2200      	movs	r2, #0
 8000f6a:	62da      	str	r2, [r3, #44]	; 0x2c
  if (HAL_LCD_Init(&hlcd) != HAL_OK)
 8000f6c:	4804      	ldr	r0, [pc, #16]	; (8000f80 <MX_LCD_Init+0x60>)
 8000f6e:	f001 ffd9 	bl	8002f24 <HAL_LCD_Init>
 8000f72:	4603      	mov	r3, r0
 8000f74:	2b00      	cmp	r3, #0
 8000f76:	d001      	beq.n	8000f7c <MX_LCD_Init+0x5c>
  {
    Error_Handler();
 8000f78:	f000 f938 	bl	80011ec <Error_Handler>
  }
  /* USER CODE BEGIN LCD_Init 2 */

  /* USER CODE END LCD_Init 2 */

}
 8000f7c:	bf00      	nop
 8000f7e:	bd80      	pop	{r7, pc}
 8000f80:	200000e8 	.word	0x200000e8
 8000f84:	40002400 	.word	0x40002400

08000f88 <MX_TIM2_Init>:
  * @brief TIM2 Initialization Function
  * @param None
  * @retval None
  */
static void MX_TIM2_Init(void)
{
 8000f88:	b580      	push	{r7, lr}
 8000f8a:	b086      	sub	sp, #24
 8000f8c:	af00      	add	r7, sp, #0

  /* USER CODE BEGIN TIM2_Init 0 */

  /* USER CODE END TIM2_Init 0 */

  TIM_ClockConfigTypeDef sClockSourceConfig = {0};
 8000f8e:	f107 0308 	add.w	r3, r7, #8
 8000f92:	2200      	movs	r2, #0
 8000f94:	601a      	str	r2, [r3, #0]
 8000f96:	605a      	str	r2, [r3, #4]
 8000f98:	609a      	str	r2, [r3, #8]
 8000f9a:	60da      	str	r2, [r3, #12]
  TIM_MasterConfigTypeDef sMasterConfig = {0};
 8000f9c:	463b      	mov	r3, r7
 8000f9e:	2200      	movs	r2, #0
 8000fa0:	601a      	str	r2, [r3, #0]
 8000fa2:	605a      	str	r2, [r3, #4]

  /* USER CODE BEGIN TIM2_Init 1 */

  /* USER CODE END TIM2_Init 1 */
  htim2.Instance = TIM2;
 8000fa4:	4b1d      	ldr	r3, [pc, #116]	; (800101c <MX_TIM2_Init+0x94>)
 8000fa6:	f04f 4280 	mov.w	r2, #1073741824	; 0x40000000
 8000faa:	601a      	str	r2, [r3, #0]
  htim2.Init.Prescaler = 0;
 8000fac:	4b1b      	ldr	r3, [pc, #108]	; (800101c <MX_TIM2_Init+0x94>)
 8000fae:	2200      	movs	r2, #0
 8000fb0:	605a      	str	r2, [r3, #4]
  htim2.Init.CounterMode = TIM_COUNTERMODE_UP;
 8000fb2:	4b1a      	ldr	r3, [pc, #104]	; (800101c <MX_TIM2_Init+0x94>)
 8000fb4:	2200      	movs	r2, #0
 8000fb6:	609a      	str	r2, [r3, #8]
  htim2.Init.Period = 65535;
 8000fb8:	4b18      	ldr	r3, [pc, #96]	; (800101c <MX_TIM2_Init+0x94>)
 8000fba:	f64f 72ff 	movw	r2, #65535	; 0xffff
 8000fbe:	60da      	str	r2, [r3, #12]
  htim2.Init.ClockDivision = TIM_CLOCKDIVISION_DIV1;
 8000fc0:	4b16      	ldr	r3, [pc, #88]	; (800101c <MX_TIM2_Init+0x94>)
 8000fc2:	2200      	movs	r2, #0
 8000fc4:	611a      	str	r2, [r3, #16]
  htim2.Init.AutoReloadPreload = TIM_AUTORELOAD_PRELOAD_DISABLE;
 8000fc6:	4b15      	ldr	r3, [pc, #84]	; (800101c <MX_TIM2_Init+0x94>)
 8000fc8:	2200      	movs	r2, #0
 8000fca:	615a      	str	r2, [r3, #20]
  if (HAL_TIM_Base_Init(&htim2) != HAL_OK)
 8000fcc:	4813      	ldr	r0, [pc, #76]	; (800101c <MX_TIM2_Init+0x94>)
 8000fce:	f003 f84b 	bl	8004068 <HAL_TIM_Base_Init>
 8000fd2:	4603      	mov	r3, r0
 8000fd4:	2b00      	cmp	r3, #0
 8000fd6:	d001      	beq.n	8000fdc <MX_TIM2_Init+0x54>
  {
    Error_Handler();
 8000fd8:	f000 f908 	bl	80011ec <Error_Handler>
  }
  sClockSourceConfig.ClockSource = TIM_CLOCKSOURCE_INTERNAL;
 8000fdc:	f44f 5380 	mov.w	r3, #4096	; 0x1000
 8000fe0:	60bb      	str	r3, [r7, #8]
  if (HAL_TIM_ConfigClockSource(&htim2, &sClockSourceConfig) != HAL_OK)
 8000fe2:	f107 0308 	add.w	r3, r7, #8
 8000fe6:	4619      	mov	r1, r3
 8000fe8:	480c      	ldr	r0, [pc, #48]	; (800101c <MX_TIM2_Init+0x94>)
 8000fea:	f003 f87c 	bl	80040e6 <HAL_TIM_ConfigClockSource>
 8000fee:	4603      	mov	r3, r0
 8000ff0:	2b00      	cmp	r3, #0
 8000ff2:	d001      	beq.n	8000ff8 <MX_TIM2_Init+0x70>
  {
    Error_Handler();
 8000ff4:	f000 f8fa 	bl	80011ec <Error_Handler>
  }
  sMasterConfig.MasterOutputTrigger = TIM_TRGO_RESET;
 8000ff8:	2300      	movs	r3, #0
 8000ffa:	603b      	str	r3, [r7, #0]
  sMasterConfig.MasterSlaveMode = TIM_MASTERSLAVEMODE_DISABLE;
 8000ffc:	2300      	movs	r3, #0
 8000ffe:	607b      	str	r3, [r7, #4]
  if (HAL_TIMEx_MasterConfigSynchronization(&htim2, &sMasterConfig) != HAL_OK)
 8001000:	463b      	mov	r3, r7
 8001002:	4619      	mov	r1, r3
 8001004:	4805      	ldr	r0, [pc, #20]	; (800101c <MX_TIM2_Init+0x94>)
 8001006:	f003 fa2b 	bl	8004460 <HAL_TIMEx_MasterConfigSynchronization>
 800100a:	4603      	mov	r3, r0
 800100c:	2b00      	cmp	r3, #0
 800100e:	d001      	beq.n	8001014 <MX_TIM2_Init+0x8c>
  {
    Error_Handler();
 8001010:	f000 f8ec 	bl	80011ec <Error_Handler>
  }
  /* USER CODE BEGIN TIM2_Init 2 */

  /* USER CODE END TIM2_Init 2 */

}
 8001014:	bf00      	nop
 8001016:	3718      	adds	r7, #24
 8001018:	46bd      	mov	sp, r7
 800101a:	bd80      	pop	{r7, pc}
 800101c:	20000124 	.word	0x20000124

08001020 <MX_TIM3_Init>:
  * @brief TIM3 Initialization Function
  * @param None
  * @retval None
  */
static void MX_TIM3_Init(void)
{
 8001020:	b580      	push	{r7, lr}
 8001022:	b086      	sub	sp, #24
 8001024:	af00      	add	r7, sp, #0

  /* USER CODE BEGIN TIM3_Init 0 */

  /* USER CODE END TIM3_Init 0 */

  TIM_ClockConfigTypeDef sClockSourceConfig = {0};
 8001026:	f107 0308 	add.w	r3, r7, #8
 800102a:	2200      	movs	r2, #0
 800102c:	601a      	str	r2, [r3, #0]
 800102e:	605a      	str	r2, [r3, #4]
 8001030:	609a      	str	r2, [r3, #8]
 8001032:	60da      	str	r2, [r3, #12]
  TIM_MasterConfigTypeDef sMasterConfig = {0};
 8001034:	463b      	mov	r3, r7
 8001036:	2200      	movs	r2, #0
 8001038:	601a      	str	r2, [r3, #0]
 800103a:	605a      	str	r2, [r3, #4]

  /* USER CODE BEGIN TIM3_Init 1 */

  /* USER CODE END TIM3_Init 1 */
  htim3.Instance = TIM3;
 800103c:	4b1d      	ldr	r3, [pc, #116]	; (80010b4 <MX_TIM3_Init+0x94>)
 800103e:	4a1e      	ldr	r2, [pc, #120]	; (80010b8 <MX_TIM3_Init+0x98>)
 8001040:	601a      	str	r2, [r3, #0]
  htim3.Init.Prescaler = 0;
 8001042:	4b1c      	ldr	r3, [pc, #112]	; (80010b4 <MX_TIM3_Init+0x94>)
 8001044:	2200      	movs	r2, #0
 8001046:	605a      	str	r2, [r3, #4]
  htim3.Init.CounterMode = TIM_COUNTERMODE_UP;
 8001048:	4b1a      	ldr	r3, [pc, #104]	; (80010b4 <MX_TIM3_Init+0x94>)
 800104a:	2200      	movs	r2, #0
 800104c:	609a      	str	r2, [r3, #8]
  htim3.Init.Period = 65535;
 800104e:	4b19      	ldr	r3, [pc, #100]	; (80010b4 <MX_TIM3_Init+0x94>)
 8001050:	f64f 72ff 	movw	r2, #65535	; 0xffff
 8001054:	60da      	str	r2, [r3, #12]
  htim3.Init.ClockDivision = TIM_CLOCKDIVISION_DIV1;
 8001056:	4b17      	ldr	r3, [pc, #92]	; (80010b4 <MX_TIM3_Init+0x94>)
 8001058:	2200      	movs	r2, #0
 800105a:	611a      	str	r2, [r3, #16]
  htim3.Init.AutoReloadPreload = TIM_AUTORELOAD_PRELOAD_DISABLE;
 800105c:	4b15      	ldr	r3, [pc, #84]	; (80010b4 <MX_TIM3_Init+0x94>)
 800105e:	2200      	movs	r2, #0
 8001060:	615a      	str	r2, [r3, #20]
  if (HAL_TIM_Base_Init(&htim3) != HAL_OK)
 8001062:	4814      	ldr	r0, [pc, #80]	; (80010b4 <MX_TIM3_Init+0x94>)
 8001064:	f003 f800 	bl	8004068 <HAL_TIM_Base_Init>
 8001068:	4603      	mov	r3, r0
 800106a:	2b00      	cmp	r3, #0
 800106c:	d001      	beq.n	8001072 <MX_TIM3_Init+0x52>
  {
    Error_Handler();
 800106e:	f000 f8bd 	bl	80011ec <Error_Handler>
  }
  sClockSourceConfig.ClockSource = TIM_CLOCKSOURCE_INTERNAL;
 8001072:	f44f 5380 	mov.w	r3, #4096	; 0x1000
 8001076:	60bb      	str	r3, [r7, #8]
  if (HAL_TIM_ConfigClockSource(&htim3, &sClockSourceConfig) != HAL_OK)
 8001078:	f107 0308 	add.w	r3, r7, #8
 800107c:	4619      	mov	r1, r3
 800107e:	480d      	ldr	r0, [pc, #52]	; (80010b4 <MX_TIM3_Init+0x94>)
 8001080:	f003 f831 	bl	80040e6 <HAL_TIM_ConfigClockSource>
 8001084:	4603      	mov	r3, r0
 8001086:	2b00      	cmp	r3, #0
 8001088:	d001      	beq.n	800108e <MX_TIM3_Init+0x6e>
  {
    Error_Handler();
 800108a:	f000 f8af 	bl	80011ec <Error_Handler>
  }
  sMasterConfig.MasterOutputTrigger = TIM_TRGO_RESET;
 800108e:	2300      	movs	r3, #0
 8001090:	603b      	str	r3, [r7, #0]
  sMasterConfig.MasterSlaveMode = TIM_MASTERSLAVEMODE_DISABLE;
 8001092:	2300      	movs	r3, #0
 8001094:	607b      	str	r3, [r7, #4]
  if (HAL_TIMEx_MasterConfigSynchronization(&htim3, &sMasterConfig) != HAL_OK)
 8001096:	463b      	mov	r3, r7
 8001098:	4619      	mov	r1, r3
 800109a:	4806      	ldr	r0, [pc, #24]	; (80010b4 <MX_TIM3_Init+0x94>)
 800109c:	f003 f9e0 	bl	8004460 <HAL_TIMEx_MasterConfigSynchronization>
 80010a0:	4603      	mov	r3, r0
 80010a2:	2b00      	cmp	r3, #0
 80010a4:	d001      	beq.n	80010aa <MX_TIM3_Init+0x8a>
  {
    Error_Handler();
 80010a6:	f000 f8a1 	bl	80011ec <Error_Handler>
  }
  /* USER CODE BEGIN TIM3_Init 2 */

  /* USER CODE END TIM3_Init 2 */

}
 80010aa:	bf00      	nop
 80010ac:	3718      	adds	r7, #24
 80010ae:	46bd      	mov	sp, r7
 80010b0:	bd80      	pop	{r7, pc}
 80010b2:	bf00      	nop
 80010b4:	20000164 	.word	0x20000164
 80010b8:	40000400 	.word	0x40000400

080010bc <MX_TIM4_Init>:
  * @brief TIM4 Initialization Function
  * @param None
  * @retval None
  */
static void MX_TIM4_Init(void)
{
 80010bc:	b580      	push	{r7, lr}
 80010be:	b086      	sub	sp, #24
 80010c0:	af00      	add	r7, sp, #0

  /* USER CODE BEGIN TIM4_Init 0 */

  /* USER CODE END TIM4_Init 0 */

  TIM_ClockConfigTypeDef sClockSourceConfig = {0};
 80010c2:	f107 0308 	add.w	r3, r7, #8
 80010c6:	2200      	movs	r2, #0
 80010c8:	601a      	str	r2, [r3, #0]
 80010ca:	605a      	str	r2, [r3, #4]
 80010cc:	609a      	str	r2, [r3, #8]
 80010ce:	60da      	str	r2, [r3, #12]
  TIM_MasterConfigTypeDef sMasterConfig = {0};
 80010d0:	463b      	mov	r3, r7
 80010d2:	2200      	movs	r2, #0
 80010d4:	601a      	str	r2, [r3, #0]
 80010d6:	605a      	str	r2, [r3, #4]

  /* USER CODE BEGIN TIM4_Init 1 */

  /* USER CODE END TIM4_Init 1 */
  htim4.Instance = TIM4;
 80010d8:	4b1d      	ldr	r3, [pc, #116]	; (8001150 <MX_TIM4_Init+0x94>)
 80010da:	4a1e      	ldr	r2, [pc, #120]	; (8001154 <MX_TIM4_Init+0x98>)
 80010dc:	601a      	str	r2, [r3, #0]
  htim4.Init.Prescaler = 0;
 80010de:	4b1c      	ldr	r3, [pc, #112]	; (8001150 <MX_TIM4_Init+0x94>)
 80010e0:	2200      	movs	r2, #0
 80010e2:	605a      	str	r2, [r3, #4]
  htim4.Init.CounterMode = TIM_COUNTERMODE_UP;
 80010e4:	4b1a      	ldr	r3, [pc, #104]	; (8001150 <MX_TIM4_Init+0x94>)
 80010e6:	2200      	movs	r2, #0
 80010e8:	609a      	str	r2, [r3, #8]
  htim4.Init.Period = 65535;
 80010ea:	4b19      	ldr	r3, [pc, #100]	; (8001150 <MX_TIM4_Init+0x94>)
 80010ec:	f64f 72ff 	movw	r2, #65535	; 0xffff
 80010f0:	60da      	str	r2, [r3, #12]
  htim4.Init.ClockDivision = TIM_CLOCKDIVISION_DIV1;
 80010f2:	4b17      	ldr	r3, [pc, #92]	; (8001150 <MX_TIM4_Init+0x94>)
 80010f4:	2200      	movs	r2, #0
 80010f6:	611a      	str	r2, [r3, #16]
  htim4.Init.AutoReloadPreload = TIM_AUTORELOAD_PRELOAD_DISABLE;
 80010f8:	4b15      	ldr	r3, [pc, #84]	; (8001150 <MX_TIM4_Init+0x94>)
 80010fa:	2200      	movs	r2, #0
 80010fc:	615a      	str	r2, [r3, #20]
  if (HAL_TIM_Base_Init(&htim4) != HAL_OK)
 80010fe:	4814      	ldr	r0, [pc, #80]	; (8001150 <MX_TIM4_Init+0x94>)
 8001100:	f002 ffb2 	bl	8004068 <HAL_TIM_Base_Init>
 8001104:	4603      	mov	r3, r0
 8001106:	2b00      	cmp	r3, #0
 8001108:	d001      	beq.n	800110e <MX_TIM4_Init+0x52>
  {
    Error_Handler();
 800110a:	f000 f86f 	bl	80011ec <Error_Handler>
  }
  sClockSourceConfig.ClockSource = TIM_CLOCKSOURCE_INTERNAL;
 800110e:	f44f 5380 	mov.w	r3, #4096	; 0x1000
 8001112:	60bb      	str	r3, [r7, #8]
  if (HAL_TIM_ConfigClockSource(&htim4, &sClockSourceConfig) != HAL_OK)
 8001114:	f107 0308 	add.w	r3, r7, #8
 8001118:	4619      	mov	r1, r3
 800111a:	480d      	ldr	r0, [pc, #52]	; (8001150 <MX_TIM4_Init+0x94>)
 800111c:	f002 ffe3 	bl	80040e6 <HAL_TIM_ConfigClockSource>
 8001120:	4603      	mov	r3, r0
 8001122:	2b00      	cmp	r3, #0
 8001124:	d001      	beq.n	800112a <MX_TIM4_Init+0x6e>
  {
    Error_Handler();
 8001126:	f000 f861 	bl	80011ec <Error_Handler>
  }
  sMasterConfig.MasterOutputTrigger = TIM_TRGO_RESET;
 800112a:	2300      	movs	r3, #0
 800112c:	603b      	str	r3, [r7, #0]
  sMasterConfig.MasterSlaveMode = TIM_MASTERSLAVEMODE_DISABLE;
 800112e:	2300      	movs	r3, #0
 8001130:	607b      	str	r3, [r7, #4]
  if (HAL_TIMEx_MasterConfigSynchronization(&htim4, &sMasterConfig) != HAL_OK)
 8001132:	463b      	mov	r3, r7
 8001134:	4619      	mov	r1, r3
 8001136:	4806      	ldr	r0, [pc, #24]	; (8001150 <MX_TIM4_Init+0x94>)
 8001138:	f003 f992 	bl	8004460 <HAL_TIMEx_MasterConfigSynchronization>
 800113c:	4603      	mov	r3, r0
 800113e:	2b00      	cmp	r3, #0
 8001140:	d001      	beq.n	8001146 <MX_TIM4_Init+0x8a>
  {
    Error_Handler();
 8001142:	f000 f853 	bl	80011ec <Error_Handler>
  }
  /* USER CODE BEGIN TIM4_Init 2 */

  /* USER CODE END TIM4_Init 2 */

}
 8001146:	bf00      	nop
 8001148:	3718      	adds	r7, #24
 800114a:	46bd      	mov	sp, r7
 800114c:	bd80      	pop	{r7, pc}
 800114e:	bf00      	nop
 8001150:	200001a4 	.word	0x200001a4
 8001154:	40000800 	.word	0x40000800

08001158 <MX_TS_Init>:
  * @brief TS Initialization Function
  * @param None
  * @retval None
  */
static void MX_TS_Init(void)
{
 8001158:	b480      	push	{r7}
 800115a:	af00      	add	r7, sp, #0
  /* USER CODE END TS_Init 1 */
  /* USER CODE BEGIN TS_Init 2 */

  /* USER CODE END TS_Init 2 */

}
 800115c:	bf00      	nop
 800115e:	46bd      	mov	sp, r7
 8001160:	bc80      	pop	{r7}
 8001162:	4770      	bx	lr

08001164 <MX_GPIO_Init>:
  * @brief GPIO Initialization Function
  * @param None
  * @retval None
  */
static void MX_GPIO_Init(void)
{
 8001164:	b580      	push	{r7, lr}
 8001166:	b088      	sub	sp, #32
 8001168:	af00      	add	r7, sp, #0
  GPIO_InitTypeDef GPIO_InitStruct = {0};
 800116a:	f107 030c 	add.w	r3, r7, #12
 800116e:	2200      	movs	r2, #0
 8001170:	601a      	str	r2, [r3, #0]
 8001172:	605a      	str	r2, [r3, #4]
 8001174:	609a      	str	r2, [r3, #8]
 8001176:	60da      	str	r2, [r3, #12]
 8001178:	611a      	str	r2, [r3, #16]

  /* GPIO Ports Clock Enable */
  __HAL_RCC_GPIOC_CLK_ENABLE();
 800117a:	4b1a      	ldr	r3, [pc, #104]	; (80011e4 <MX_GPIO_Init+0x80>)
 800117c:	69db      	ldr	r3, [r3, #28]
 800117e:	4a19      	ldr	r2, [pc, #100]	; (80011e4 <MX_GPIO_Init+0x80>)
 8001180:	f043 0304 	orr.w	r3, r3, #4
 8001184:	61d3      	str	r3, [r2, #28]
 8001186:	4b17      	ldr	r3, [pc, #92]	; (80011e4 <MX_GPIO_Init+0x80>)
 8001188:	69db      	ldr	r3, [r3, #28]
 800118a:	f003 0304 	and.w	r3, r3, #4
 800118e:	60bb      	str	r3, [r7, #8]
 8001190:	68bb      	ldr	r3, [r7, #8]
  __HAL_RCC_GPIOA_CLK_ENABLE();
 8001192:	4b14      	ldr	r3, [pc, #80]	; (80011e4 <MX_GPIO_Init+0x80>)
 8001194:	69db      	ldr	r3, [r3, #28]
 8001196:	4a13      	ldr	r2, [pc, #76]	; (80011e4 <MX_GPIO_Init+0x80>)
 8001198:	f043 0301 	orr.w	r3, r3, #1
 800119c:	61d3      	str	r3, [r2, #28]
 800119e:	4b11      	ldr	r3, [pc, #68]	; (80011e4 <MX_GPIO_Init+0x80>)
 80011a0:	69db      	ldr	r3, [r3, #28]
 80011a2:	f003 0301 	and.w	r3, r3, #1
 80011a6:	607b      	str	r3, [r7, #4]
 80011a8:	687b      	ldr	r3, [r7, #4]
  __HAL_RCC_GPIOB_CLK_ENABLE();
 80011aa:	4b0e      	ldr	r3, [pc, #56]	; (80011e4 <MX_GPIO_Init+0x80>)
 80011ac:	69db      	ldr	r3, [r3, #28]
 80011ae:	4a0d      	ldr	r2, [pc, #52]	; (80011e4 <MX_GPIO_Init+0x80>)
 80011b0:	f043 0302 	orr.w	r3, r3, #2
 80011b4:	61d3      	str	r3, [r2, #28]
 80011b6:	4b0b      	ldr	r3, [pc, #44]	; (80011e4 <MX_GPIO_Init+0x80>)
 80011b8:	69db      	ldr	r3, [r3, #28]
 80011ba:	f003 0302 	and.w	r3, r3, #2
 80011be:	603b      	str	r3, [r7, #0]
 80011c0:	683b      	ldr	r3, [r7, #0]

  /*Configure GPIO pin : B1_Pin */
  GPIO_InitStruct.Pin = B1_Pin;
 80011c2:	2301      	movs	r3, #1
 80011c4:	60fb      	str	r3, [r7, #12]
  GPIO_InitStruct.Mode = GPIO_MODE_EVT_RISING;
 80011c6:	f44f 1390 	mov.w	r3, #1179648	; 0x120000
 80011ca:	613b      	str	r3, [r7, #16]
  GPIO_InitStruct.Pull = GPIO_NOPULL;
 80011cc:	2300      	movs	r3, #0
 80011ce:	617b      	str	r3, [r7, #20]
  HAL_GPIO_Init(B1_GPIO_Port, &GPIO_InitStruct);
 80011d0:	f107 030c 	add.w	r3, r7, #12
 80011d4:	4619      	mov	r1, r3
 80011d6:	4804      	ldr	r0, [pc, #16]	; (80011e8 <MX_GPIO_Init+0x84>)
 80011d8:	f001 fd24 	bl	8002c24 <HAL_GPIO_Init>

}
 80011dc:	bf00      	nop
 80011de:	3720      	adds	r7, #32
 80011e0:	46bd      	mov	sp, r7
 80011e2:	bd80      	pop	{r7, pc}
 80011e4:	40023800 	.word	0x40023800
 80011e8:	40020000 	.word	0x40020000

080011ec <Error_Handler>:
/**
  * @brief  This function is executed in case of error occurrence.
  * @retval None
  */
void Error_Handler(void)
{
 80011ec:	b480      	push	{r7}
 80011ee:	af00      	add	r7, sp, #0
  \details Disables IRQ interrupts by setting the I-bit in the CPSR.
           Can only be executed in Privileged modes.
 */
__STATIC_FORCEINLINE void __disable_irq(void)
{
  __ASM volatile ("cpsid i" : : : "memory");
 80011f0:	b672      	cpsid	i
}
 80011f2:	bf00      	nop
  /* USER CODE BEGIN Error_Handler_Debug */
  /* User can add his own implementation to report the HAL error return state */
  __disable_irq();
  while (1)
 80011f4:	e7fe      	b.n	80011f4 <Error_Handler+0x8>
	...

080011f8 <BSP_LCD_GLASS_Init>:
/**
  * @brief  Configures the LCD GLASS relative GPIO port IOs and LCD peripheral.
  * @retval None
  */
void BSP_LCD_GLASS_Init(void)
{
 80011f8:	b580      	push	{r7, lr}
 80011fa:	af00      	add	r7, sp, #0
  LCDHandle.Instance              = LCD;
 80011fc:	4b18      	ldr	r3, [pc, #96]	; (8001260 <BSP_LCD_GLASS_Init+0x68>)
 80011fe:	4a19      	ldr	r2, [pc, #100]	; (8001264 <BSP_LCD_GLASS_Init+0x6c>)
 8001200:	601a      	str	r2, [r3, #0]
  LCDHandle.Init.Prescaler        = LCD_PRESCALER_1;
 8001202:	4b17      	ldr	r3, [pc, #92]	; (8001260 <BSP_LCD_GLASS_Init+0x68>)
 8001204:	2200      	movs	r2, #0
 8001206:	605a      	str	r2, [r3, #4]
  LCDHandle.Init.Divider          = LCD_DIVIDER_31;
 8001208:	4b15      	ldr	r3, [pc, #84]	; (8001260 <BSP_LCD_GLASS_Init+0x68>)
 800120a:	f44f 1270 	mov.w	r2, #3932160	; 0x3c0000
 800120e:	609a      	str	r2, [r3, #8]
  LCDHandle.Init.Duty             = LCD_DUTY_1_4;
 8001210:	4b13      	ldr	r3, [pc, #76]	; (8001260 <BSP_LCD_GLASS_Init+0x68>)
 8001212:	220c      	movs	r2, #12
 8001214:	60da      	str	r2, [r3, #12]
  LCDHandle.Init.Bias             = LCD_BIAS_1_3;
 8001216:	4b12      	ldr	r3, [pc, #72]	; (8001260 <BSP_LCD_GLASS_Init+0x68>)
 8001218:	2240      	movs	r2, #64	; 0x40
 800121a:	611a      	str	r2, [r3, #16]
  LCDHandle.Init.VoltageSource    = LCD_VOLTAGESOURCE_INTERNAL;
 800121c:	4b10      	ldr	r3, [pc, #64]	; (8001260 <BSP_LCD_GLASS_Init+0x68>)
 800121e:	2200      	movs	r2, #0
 8001220:	615a      	str	r2, [r3, #20]
  LCDHandle.Init.Contrast         = LCD_CONTRASTLEVEL_5;
 8001222:	4b0f      	ldr	r3, [pc, #60]	; (8001260 <BSP_LCD_GLASS_Init+0x68>)
 8001224:	f44f 52a0 	mov.w	r2, #5120	; 0x1400
 8001228:	619a      	str	r2, [r3, #24]
  LCDHandle.Init.DeadTime         = LCD_DEADTIME_0;
 800122a:	4b0d      	ldr	r3, [pc, #52]	; (8001260 <BSP_LCD_GLASS_Init+0x68>)
 800122c:	2200      	movs	r2, #0
 800122e:	61da      	str	r2, [r3, #28]
  LCDHandle.Init.PulseOnDuration  = LCD_PULSEONDURATION_4;
 8001230:	4b0b      	ldr	r3, [pc, #44]	; (8001260 <BSP_LCD_GLASS_Init+0x68>)
 8001232:	2240      	movs	r2, #64	; 0x40
 8001234:	621a      	str	r2, [r3, #32]
  LCDHandle.Init.BlinkMode        = LCD_BLINKMODE_OFF;
 8001236:	4b0a      	ldr	r3, [pc, #40]	; (8001260 <BSP_LCD_GLASS_Init+0x68>)
 8001238:	2200      	movs	r2, #0
 800123a:	629a      	str	r2, [r3, #40]	; 0x28
  LCDHandle.Init.BlinkFrequency   = LCD_BLINKFREQUENCY_DIV32;
 800123c:	4b08      	ldr	r3, [pc, #32]	; (8001260 <BSP_LCD_GLASS_Init+0x68>)
 800123e:	f44f 4280 	mov.w	r2, #16384	; 0x4000
 8001242:	62da      	str	r2, [r3, #44]	; 0x2c
  LCDHandle.Init.MuxSegment       = LCD_MUXSEGMENT_ENABLE;
 8001244:	4b06      	ldr	r3, [pc, #24]	; (8001260 <BSP_LCD_GLASS_Init+0x68>)
 8001246:	2280      	movs	r2, #128	; 0x80
 8001248:	631a      	str	r2, [r3, #48]	; 0x30
  /* Initialize the LCD */
  LCD_MspInit(&LCDHandle);
 800124a:	4805      	ldr	r0, [pc, #20]	; (8001260 <BSP_LCD_GLASS_Init+0x68>)
 800124c:	f000 fc60 	bl	8001b10 <LCD_MspInit>
  HAL_LCD_Init(&LCDHandle);
 8001250:	4803      	ldr	r0, [pc, #12]	; (8001260 <BSP_LCD_GLASS_Init+0x68>)
 8001252:	f001 fe67 	bl	8002f24 <HAL_LCD_Init>

  BSP_LCD_GLASS_Clear();
 8001256:	f000 fc51 	bl	8001afc <BSP_LCD_GLASS_Clear>
}
 800125a:	bf00      	nop
 800125c:	bd80      	pop	{r7, pc}
 800125e:	bf00      	nop
 8001260:	2000020c 	.word	0x2000020c
 8001264:	40002400 	.word	0x40002400

08001268 <BSP_LCD_GLASS_BarLevelConfig>:
  *     @arg BATTERYLEVEL_3_4: LCD GLASS Batery 3/4 Full
  *     @arg BATTERYLEVEL_FULL: LCD GLASS Batery Full
  * @retval None
  */
void BSP_LCD_GLASS_BarLevelConfig(uint8_t BarLevel)
{
 8001268:	b580      	push	{r7, lr}
 800126a:	b082      	sub	sp, #8
 800126c:	af00      	add	r7, sp, #0
 800126e:	4603      	mov	r3, r0
 8001270:	71fb      	strb	r3, [r7, #7]
  switch (BarLevel)
 8001272:	79fb      	ldrb	r3, [r7, #7]
 8001274:	2b04      	cmp	r3, #4
 8001276:	d86e      	bhi.n	8001356 <BSP_LCD_GLASS_BarLevelConfig+0xee>
 8001278:	a201      	add	r2, pc, #4	; (adr r2, 8001280 <BSP_LCD_GLASS_BarLevelConfig+0x18>)
 800127a:	f852 f023 	ldr.w	pc, [r2, r3, lsl #2]
 800127e:	bf00      	nop
 8001280:	08001295 	.word	0x08001295
 8001284:	080012b9 	.word	0x080012b9
 8001288:	080012df 	.word	0x080012df
 800128c:	08001307 	.word	0x08001307
 8001290:	0800132f 	.word	0x0800132f
  {
  /* BATTERYLEVEL_OFF */
  case BATTERYLEVEL_OFF:
    /* Set BAR0 & BAR2 off */
    HAL_LCD_Write(&LCDHandle, LCD_BAR0_2_COM, ~(LCD_BAR0_SEG | LCD_BAR2_SEG), 0);
 8001294:	2300      	movs	r3, #0
 8001296:	f46f 4220 	mvn.w	r2, #40960	; 0xa000
 800129a:	2106      	movs	r1, #6
 800129c:	4832      	ldr	r0, [pc, #200]	; (8001368 <BSP_LCD_GLASS_BarLevelConfig+0x100>)
 800129e:	f001 fefd 	bl	800309c <HAL_LCD_Write>
    /* Set BAR1 & BAR3 off */
    HAL_LCD_Write(&LCDHandle, LCD_BAR1_3_COM, ~(LCD_BAR1_SEG | LCD_BAR3_SEG), 0);
 80012a2:	2300      	movs	r3, #0
 80012a4:	f46f 4220 	mvn.w	r2, #40960	; 0xa000
 80012a8:	2104      	movs	r1, #4
 80012aa:	482f      	ldr	r0, [pc, #188]	; (8001368 <BSP_LCD_GLASS_BarLevelConfig+0x100>)
 80012ac:	f001 fef6 	bl	800309c <HAL_LCD_Write>
    LCDBar = BATTERYLEVEL_OFF;
 80012b0:	4b2e      	ldr	r3, [pc, #184]	; (800136c <BSP_LCD_GLASS_BarLevelConfig+0x104>)
 80012b2:	2200      	movs	r2, #0
 80012b4:	701a      	strb	r2, [r3, #0]
    break;
 80012b6:	e04f      	b.n	8001358 <BSP_LCD_GLASS_BarLevelConfig+0xf0>
    
  /* BARLEVEL 1/4 */
  case BATTERYLEVEL_1_4:
    /* Set BAR0 on & BAR2 off */
    HAL_LCD_Write(&LCDHandle, LCD_BAR0_2_COM, ~(LCD_BAR0_SEG | LCD_BAR2_SEG), LCD_BAR0_SEG);
 80012b8:	f44f 4300 	mov.w	r3, #32768	; 0x8000
 80012bc:	f46f 4220 	mvn.w	r2, #40960	; 0xa000
 80012c0:	2106      	movs	r1, #6
 80012c2:	4829      	ldr	r0, [pc, #164]	; (8001368 <BSP_LCD_GLASS_BarLevelConfig+0x100>)
 80012c4:	f001 feea 	bl	800309c <HAL_LCD_Write>
    /* Set BAR1 & BAR3 off */
    HAL_LCD_Write(&LCDHandle, LCD_BAR1_3_COM, ~(LCD_BAR1_SEG | LCD_BAR3_SEG), 0);
 80012c8:	2300      	movs	r3, #0
 80012ca:	f46f 4220 	mvn.w	r2, #40960	; 0xa000
 80012ce:	2104      	movs	r1, #4
 80012d0:	4825      	ldr	r0, [pc, #148]	; (8001368 <BSP_LCD_GLASS_BarLevelConfig+0x100>)
 80012d2:	f001 fee3 	bl	800309c <HAL_LCD_Write>
    LCDBar = BATTERYLEVEL_1_4;
 80012d6:	4b25      	ldr	r3, [pc, #148]	; (800136c <BSP_LCD_GLASS_BarLevelConfig+0x104>)
 80012d8:	2201      	movs	r2, #1
 80012da:	701a      	strb	r2, [r3, #0]
    break;
 80012dc:	e03c      	b.n	8001358 <BSP_LCD_GLASS_BarLevelConfig+0xf0>
    
  /* BARLEVEL 1/2 */
  case BATTERYLEVEL_1_2:
    /* Set BAR0 on & BAR2 off */
    HAL_LCD_Write(&LCDHandle, LCD_BAR0_2_COM, ~(LCD_BAR0_SEG | LCD_BAR2_SEG), LCD_BAR0_SEG);
 80012de:	f44f 4300 	mov.w	r3, #32768	; 0x8000
 80012e2:	f46f 4220 	mvn.w	r2, #40960	; 0xa000
 80012e6:	2106      	movs	r1, #6
 80012e8:	481f      	ldr	r0, [pc, #124]	; (8001368 <BSP_LCD_GLASS_BarLevelConfig+0x100>)
 80012ea:	f001 fed7 	bl	800309c <HAL_LCD_Write>
    /* Set BAR1 on & BAR3 off */
    HAL_LCD_Write(&LCDHandle, LCD_BAR1_3_COM, ~(LCD_BAR1_SEG | LCD_BAR3_SEG), LCD_BAR1_SEG);
 80012ee:	f44f 4300 	mov.w	r3, #32768	; 0x8000
 80012f2:	f46f 4220 	mvn.w	r2, #40960	; 0xa000
 80012f6:	2104      	movs	r1, #4
 80012f8:	481b      	ldr	r0, [pc, #108]	; (8001368 <BSP_LCD_GLASS_BarLevelConfig+0x100>)
 80012fa:	f001 fecf 	bl	800309c <HAL_LCD_Write>
    LCDBar = BATTERYLEVEL_1_2;
 80012fe:	4b1b      	ldr	r3, [pc, #108]	; (800136c <BSP_LCD_GLASS_BarLevelConfig+0x104>)
 8001300:	2202      	movs	r2, #2
 8001302:	701a      	strb	r2, [r3, #0]
    break;
 8001304:	e028      	b.n	8001358 <BSP_LCD_GLASS_BarLevelConfig+0xf0>
    
  /* Battery Level 3/4 */
  case BATTERYLEVEL_3_4:
    /* Set BAR0 & BAR2 on */
    HAL_LCD_Write(&LCDHandle, LCD_BAR0_2_COM, ~(LCD_BAR0_SEG | LCD_BAR2_SEG), (LCD_BAR0_SEG | LCD_BAR2_SEG));
 8001306:	f44f 4320 	mov.w	r3, #40960	; 0xa000
 800130a:	f46f 4220 	mvn.w	r2, #40960	; 0xa000
 800130e:	2106      	movs	r1, #6
 8001310:	4815      	ldr	r0, [pc, #84]	; (8001368 <BSP_LCD_GLASS_BarLevelConfig+0x100>)
 8001312:	f001 fec3 	bl	800309c <HAL_LCD_Write>
    /* Set BAR1 on & BAR3 off */
    HAL_LCD_Write(&LCDHandle, LCD_BAR1_3_COM, ~(LCD_BAR1_SEG | LCD_BAR3_SEG), LCD_BAR1_SEG);
 8001316:	f44f 4300 	mov.w	r3, #32768	; 0x8000
 800131a:	f46f 4220 	mvn.w	r2, #40960	; 0xa000
 800131e:	2104      	movs	r1, #4
 8001320:	4811      	ldr	r0, [pc, #68]	; (8001368 <BSP_LCD_GLASS_BarLevelConfig+0x100>)
 8001322:	f001 febb 	bl	800309c <HAL_LCD_Write>
    LCDBar = BATTERYLEVEL_3_4;
 8001326:	4b11      	ldr	r3, [pc, #68]	; (800136c <BSP_LCD_GLASS_BarLevelConfig+0x104>)
 8001328:	2203      	movs	r2, #3
 800132a:	701a      	strb	r2, [r3, #0]
    break;
 800132c:	e014      	b.n	8001358 <BSP_LCD_GLASS_BarLevelConfig+0xf0>
    
  /* BATTERYLEVEL_FULL */
  case BATTERYLEVEL_FULL:
    /* Set BAR0 & BAR2 on */
    HAL_LCD_Write(&LCDHandle, LCD_BAR0_2_COM, ~(LCD_BAR0_SEG | LCD_BAR2_SEG), (LCD_BAR0_SEG | LCD_BAR2_SEG));
 800132e:	f44f 4320 	mov.w	r3, #40960	; 0xa000
 8001332:	f46f 4220 	mvn.w	r2, #40960	; 0xa000
 8001336:	2106      	movs	r1, #6
 8001338:	480b      	ldr	r0, [pc, #44]	; (8001368 <BSP_LCD_GLASS_BarLevelConfig+0x100>)
 800133a:	f001 feaf 	bl	800309c <HAL_LCD_Write>
    /* Set BAR1 on & BAR3 on */
    HAL_LCD_Write(&LCDHandle, LCD_BAR1_3_COM, ~(LCD_BAR1_SEG | LCD_BAR3_SEG), (LCD_BAR1_SEG | LCD_BAR3_SEG));
 800133e:	f44f 4320 	mov.w	r3, #40960	; 0xa000
 8001342:	f46f 4220 	mvn.w	r2, #40960	; 0xa000
 8001346:	2104      	movs	r1, #4
 8001348:	4807      	ldr	r0, [pc, #28]	; (8001368 <BSP_LCD_GLASS_BarLevelConfig+0x100>)
 800134a:	f001 fea7 	bl	800309c <HAL_LCD_Write>
    LCDBar = BATTERYLEVEL_FULL;
 800134e:	4b07      	ldr	r3, [pc, #28]	; (800136c <BSP_LCD_GLASS_BarLevelConfig+0x104>)
 8001350:	2204      	movs	r2, #4
 8001352:	701a      	strb	r2, [r3, #0]
    break;
 8001354:	e000      	b.n	8001358 <BSP_LCD_GLASS_BarLevelConfig+0xf0>
    
  default:
    break;
 8001356:	bf00      	nop
  }
  
  /* Update the LCD display */
  HAL_LCD_UpdateDisplayRequest(&LCDHandle);
 8001358:	4803      	ldr	r0, [pc, #12]	; (8001368 <BSP_LCD_GLASS_BarLevelConfig+0x100>)
 800135a:	f001 ff58 	bl	800320e <HAL_LCD_UpdateDisplayRequest>
}
 800135e:	bf00      	nop
 8001360:	3708      	adds	r7, #8
 8001362:	46bd      	mov	sp, r7
 8001364:	bd80      	pop	{r7, pc}
 8001366:	bf00      	nop
 8001368:	2000020c 	.word	0x2000020c
 800136c:	20000004 	.word	0x20000004

08001370 <BSP_LCD_GLASS_WriteChar>:
  * @retval None
  * @note  Required preconditions: The LCD should be cleared before to start the
  *         write operation.  
  */
void BSP_LCD_GLASS_WriteChar(uint8_t* ch, uint8_t Point, uint8_t Column, uint8_t Position)
{
 8001370:	b580      	push	{r7, lr}
 8001372:	b082      	sub	sp, #8
 8001374:	af00      	add	r7, sp, #0
 8001376:	6078      	str	r0, [r7, #4]
 8001378:	4608      	mov	r0, r1
 800137a:	4611      	mov	r1, r2
 800137c:	461a      	mov	r2, r3
 800137e:	4603      	mov	r3, r0
 8001380:	70fb      	strb	r3, [r7, #3]
 8001382:	460b      	mov	r3, r1
 8001384:	70bb      	strb	r3, [r7, #2]
 8001386:	4613      	mov	r3, r2
 8001388:	707b      	strb	r3, [r7, #1]
  BSP_LCD_GLASS_DisplayChar(ch, (Point_Typedef)Point, (DoublePoint_Typedef)Column, (DigitPosition_Typedef)Position);
 800138a:	787b      	ldrb	r3, [r7, #1]
 800138c:	78ba      	ldrb	r2, [r7, #2]
 800138e:	78f9      	ldrb	r1, [r7, #3]
 8001390:	6878      	ldr	r0, [r7, #4]
 8001392:	f000 f80b 	bl	80013ac <BSP_LCD_GLASS_DisplayChar>

  /* Refresh LCD  bar */
  BSP_LCD_GLASS_BarLevelConfig(LCDBar);
 8001396:	4b04      	ldr	r3, [pc, #16]	; (80013a8 <BSP_LCD_GLASS_WriteChar+0x38>)
 8001398:	781b      	ldrb	r3, [r3, #0]
 800139a:	4618      	mov	r0, r3
 800139c:	f7ff ff64 	bl	8001268 <BSP_LCD_GLASS_BarLevelConfig>
}
 80013a0:	bf00      	nop
 80013a2:	3708      	adds	r7, #8
 80013a4:	46bd      	mov	sp, r7
 80013a6:	bd80      	pop	{r7, pc}
 80013a8:	20000004 	.word	0x20000004

080013ac <BSP_LCD_GLASS_DisplayChar>:
  * @param  Position: Position in the LCD of the caracter to write.
  *                   This parameter can be any value in DigitPosition_Typedef.
  * @retval None
  */
void BSP_LCD_GLASS_DisplayChar(uint8_t* ch, Point_Typedef Point, DoublePoint_Typedef Column, DigitPosition_Typedef Position)
{
 80013ac:	b580      	push	{r7, lr}
 80013ae:	b084      	sub	sp, #16
 80013b0:	af00      	add	r7, sp, #0
 80013b2:	6078      	str	r0, [r7, #4]
 80013b4:	4608      	mov	r0, r1
 80013b6:	4611      	mov	r1, r2
 80013b8:	461a      	mov	r2, r3
 80013ba:	4603      	mov	r3, r0
 80013bc:	70fb      	strb	r3, [r7, #3]
 80013be:	460b      	mov	r3, r1
 80013c0:	70bb      	strb	r3, [r7, #2]
 80013c2:	4613      	mov	r3, r2
 80013c4:	707b      	strb	r3, [r7, #1]
  uint32_t data =0x00;
 80013c6:	2300      	movs	r3, #0
 80013c8:	60fb      	str	r3, [r7, #12]
  /* To convert displayed character in segment in array digit */
  Convert(ch, (Point_Typedef)Point, (DoublePoint_Typedef)Column);
 80013ca:	78ba      	ldrb	r2, [r7, #2]
 80013cc:	78fb      	ldrb	r3, [r7, #3]
 80013ce:	4619      	mov	r1, r3
 80013d0:	6878      	ldr	r0, [r7, #4]
 80013d2:	f000 fc3d 	bl	8001c50 <Convert>

  switch (Position)
 80013d6:	787b      	ldrb	r3, [r7, #1]
 80013d8:	3b01      	subs	r3, #1
 80013da:	2b05      	cmp	r3, #5
 80013dc:	f200 8357 	bhi.w	8001a8e <BSP_LCD_GLASS_DisplayChar+0x6e2>
 80013e0:	a201      	add	r2, pc, #4	; (adr r2, 80013e8 <BSP_LCD_GLASS_DisplayChar+0x3c>)
 80013e2:	f852 f023 	ldr.w	pc, [r2, r3, lsl #2]
 80013e6:	bf00      	nop
 80013e8:	08001401 	.word	0x08001401
 80013ec:	080014cb 	.word	0x080014cb
 80013f0:	080015cd 	.word	0x080015cd
 80013f4:	080016f1 	.word	0x080016f1
 80013f8:	0800182b 	.word	0x0800182b
 80013fc:	08001985 	.word	0x08001985
  {
    /* Position 1 on LCD (Digit1)*/
    case LCD_DIGIT_POSITION_1:
      data = ((Digit[0] & 0x1) << LCD_SEG0_SHIFT) | (((Digit[0] & 0x2) >> 1) << LCD_SEG1_SHIFT)
 8001400:	4bb7      	ldr	r3, [pc, #732]	; (80016e0 <BSP_LCD_GLASS_DisplayChar+0x334>)
 8001402:	681b      	ldr	r3, [r3, #0]
 8001404:	f003 0203 	and.w	r2, r3, #3
          | (((Digit[0] & 0x4) >> 2) << LCD_SEG22_SHIFT) | (((Digit[0] & 0x8) >> 3) << LCD_SEG23_SHIFT);
 8001408:	4bb5      	ldr	r3, [pc, #724]	; (80016e0 <BSP_LCD_GLASS_DisplayChar+0x334>)
 800140a:	681b      	ldr	r3, [r3, #0]
 800140c:	089b      	lsrs	r3, r3, #2
 800140e:	071b      	lsls	r3, r3, #28
 8001410:	f003 5380 	and.w	r3, r3, #268435456	; 0x10000000
 8001414:	431a      	orrs	r2, r3
 8001416:	4bb2      	ldr	r3, [pc, #712]	; (80016e0 <BSP_LCD_GLASS_DisplayChar+0x334>)
 8001418:	681b      	ldr	r3, [r3, #0]
 800141a:	08db      	lsrs	r3, r3, #3
 800141c:	075b      	lsls	r3, r3, #29
 800141e:	f003 5300 	and.w	r3, r3, #536870912	; 0x20000000
      data = ((Digit[0] & 0x1) << LCD_SEG0_SHIFT) | (((Digit[0] & 0x2) >> 1) << LCD_SEG1_SHIFT)
 8001422:	4313      	orrs	r3, r2
 8001424:	60fb      	str	r3, [r7, #12]
      HAL_LCD_Write(&LCDHandle, LCD_DIGIT1_COM0, LCD_DIGIT1_COM0_SEG_MASK, data); /* 1G 1B 1M 1E */
 8001426:	68fb      	ldr	r3, [r7, #12]
 8001428:	4aae      	ldr	r2, [pc, #696]	; (80016e4 <BSP_LCD_GLASS_DisplayChar+0x338>)
 800142a:	2100      	movs	r1, #0
 800142c:	48ae      	ldr	r0, [pc, #696]	; (80016e8 <BSP_LCD_GLASS_DisplayChar+0x33c>)
 800142e:	f001 fe35 	bl	800309c <HAL_LCD_Write>
      
      data = ((Digit[1] & 0x1) << LCD_SEG0_SHIFT) | (((Digit[1] & 0x2) >> 1) << LCD_SEG1_SHIFT)
 8001432:	4bab      	ldr	r3, [pc, #684]	; (80016e0 <BSP_LCD_GLASS_DisplayChar+0x334>)
 8001434:	685b      	ldr	r3, [r3, #4]
 8001436:	f003 0203 	and.w	r2, r3, #3
          | (((Digit[1] & 0x4) >> 2) << LCD_SEG22_SHIFT) | (((Digit[1] & 0x8) >> 3) << LCD_SEG23_SHIFT);
 800143a:	4ba9      	ldr	r3, [pc, #676]	; (80016e0 <BSP_LCD_GLASS_DisplayChar+0x334>)
 800143c:	685b      	ldr	r3, [r3, #4]
 800143e:	089b      	lsrs	r3, r3, #2
 8001440:	071b      	lsls	r3, r3, #28
 8001442:	f003 5380 	and.w	r3, r3, #268435456	; 0x10000000
 8001446:	431a      	orrs	r2, r3
 8001448:	4ba5      	ldr	r3, [pc, #660]	; (80016e0 <BSP_LCD_GLASS_DisplayChar+0x334>)
 800144a:	685b      	ldr	r3, [r3, #4]
 800144c:	08db      	lsrs	r3, r3, #3
 800144e:	075b      	lsls	r3, r3, #29
 8001450:	f003 5300 	and.w	r3, r3, #536870912	; 0x20000000
      data = ((Digit[1] & 0x1) << LCD_SEG0_SHIFT) | (((Digit[1] & 0x2) >> 1) << LCD_SEG1_SHIFT)
 8001454:	4313      	orrs	r3, r2
 8001456:	60fb      	str	r3, [r7, #12]
      HAL_LCD_Write(&LCDHandle, LCD_DIGIT1_COM1, LCD_DIGIT1_COM1_SEG_MASK, data) ; /* 1F 1A 1C 1D  */
 8001458:	68fb      	ldr	r3, [r7, #12]
 800145a:	4aa2      	ldr	r2, [pc, #648]	; (80016e4 <BSP_LCD_GLASS_DisplayChar+0x338>)
 800145c:	2102      	movs	r1, #2
 800145e:	48a2      	ldr	r0, [pc, #648]	; (80016e8 <BSP_LCD_GLASS_DisplayChar+0x33c>)
 8001460:	f001 fe1c 	bl	800309c <HAL_LCD_Write>
      
      data = ((Digit[2] & 0x1) << LCD_SEG0_SHIFT) | (((Digit[2] & 0x2) >> 1) << LCD_SEG1_SHIFT)
 8001464:	4b9e      	ldr	r3, [pc, #632]	; (80016e0 <BSP_LCD_GLASS_DisplayChar+0x334>)
 8001466:	689b      	ldr	r3, [r3, #8]
 8001468:	f003 0203 	and.w	r2, r3, #3
          | (((Digit[2] & 0x4) >> 2) << LCD_SEG22_SHIFT) | (((Digit[2] & 0x8) >> 3) << LCD_SEG23_SHIFT);
 800146c:	4b9c      	ldr	r3, [pc, #624]	; (80016e0 <BSP_LCD_GLASS_DisplayChar+0x334>)
 800146e:	689b      	ldr	r3, [r3, #8]
 8001470:	089b      	lsrs	r3, r3, #2
 8001472:	071b      	lsls	r3, r3, #28
 8001474:	f003 5380 	and.w	r3, r3, #268435456	; 0x10000000
 8001478:	431a      	orrs	r2, r3
 800147a:	4b99      	ldr	r3, [pc, #612]	; (80016e0 <BSP_LCD_GLASS_DisplayChar+0x334>)
 800147c:	689b      	ldr	r3, [r3, #8]
 800147e:	08db      	lsrs	r3, r3, #3
 8001480:	075b      	lsls	r3, r3, #29
 8001482:	f003 5300 	and.w	r3, r3, #536870912	; 0x20000000
      data = ((Digit[2] & 0x1) << LCD_SEG0_SHIFT) | (((Digit[2] & 0x2) >> 1) << LCD_SEG1_SHIFT)
 8001486:	4313      	orrs	r3, r2
 8001488:	60fb      	str	r3, [r7, #12]
      HAL_LCD_Write(&LCDHandle, LCD_DIGIT1_COM2, LCD_DIGIT1_COM2_SEG_MASK, data) ; /* 1Q 1K 1Col 1P  */
 800148a:	68fb      	ldr	r3, [r7, #12]
 800148c:	4a95      	ldr	r2, [pc, #596]	; (80016e4 <BSP_LCD_GLASS_DisplayChar+0x338>)
 800148e:	2104      	movs	r1, #4
 8001490:	4895      	ldr	r0, [pc, #596]	; (80016e8 <BSP_LCD_GLASS_DisplayChar+0x33c>)
 8001492:	f001 fe03 	bl	800309c <HAL_LCD_Write>
      
      data = ((Digit[3] & 0x1) << LCD_SEG0_SHIFT) | (((Digit[3] & 0x2) >> 1) << LCD_SEG1_SHIFT)
 8001496:	4b92      	ldr	r3, [pc, #584]	; (80016e0 <BSP_LCD_GLASS_DisplayChar+0x334>)
 8001498:	68db      	ldr	r3, [r3, #12]
 800149a:	f003 0203 	and.w	r2, r3, #3
          | (((Digit[3] & 0x4) >> 2) << LCD_SEG22_SHIFT) | (((Digit[3] & 0x8) >> 3) << LCD_SEG23_SHIFT);
 800149e:	4b90      	ldr	r3, [pc, #576]	; (80016e0 <BSP_LCD_GLASS_DisplayChar+0x334>)
 80014a0:	68db      	ldr	r3, [r3, #12]
 80014a2:	089b      	lsrs	r3, r3, #2
 80014a4:	071b      	lsls	r3, r3, #28
 80014a6:	f003 5380 	and.w	r3, r3, #268435456	; 0x10000000
 80014aa:	431a      	orrs	r2, r3
 80014ac:	4b8c      	ldr	r3, [pc, #560]	; (80016e0 <BSP_LCD_GLASS_DisplayChar+0x334>)
 80014ae:	68db      	ldr	r3, [r3, #12]
 80014b0:	08db      	lsrs	r3, r3, #3
 80014b2:	075b      	lsls	r3, r3, #29
 80014b4:	f003 5300 	and.w	r3, r3, #536870912	; 0x20000000
      data = ((Digit[3] & 0x1) << LCD_SEG0_SHIFT) | (((Digit[3] & 0x2) >> 1) << LCD_SEG1_SHIFT)
 80014b8:	4313      	orrs	r3, r2
 80014ba:	60fb      	str	r3, [r7, #12]
      HAL_LCD_Write(&LCDHandle, LCD_DIGIT1_COM3, LCD_DIGIT1_COM3_SEG_MASK, data) ; /* 1H 1J 1DP 1N  */
 80014bc:	68fb      	ldr	r3, [r7, #12]
 80014be:	4a89      	ldr	r2, [pc, #548]	; (80016e4 <BSP_LCD_GLASS_DisplayChar+0x338>)
 80014c0:	2106      	movs	r1, #6
 80014c2:	4889      	ldr	r0, [pc, #548]	; (80016e8 <BSP_LCD_GLASS_DisplayChar+0x33c>)
 80014c4:	f001 fdea 	bl	800309c <HAL_LCD_Write>
      break;
 80014c8:	e2e2      	b.n	8001a90 <BSP_LCD_GLASS_DisplayChar+0x6e4>

    /* Position 2 on LCD (Digit2)*/
    case LCD_DIGIT_POSITION_2:
      data = ((Digit[0] & 0x1) << LCD_SEG2_SHIFT) | (((Digit[0] & 0x2) >> 1) << LCD_SEG3_SHIFT)
 80014ca:	4b85      	ldr	r3, [pc, #532]	; (80016e0 <BSP_LCD_GLASS_DisplayChar+0x334>)
 80014cc:	681b      	ldr	r3, [r3, #0]
 80014ce:	009b      	lsls	r3, r3, #2
 80014d0:	f003 0204 	and.w	r2, r3, #4
 80014d4:	4b82      	ldr	r3, [pc, #520]	; (80016e0 <BSP_LCD_GLASS_DisplayChar+0x334>)
 80014d6:	681b      	ldr	r3, [r3, #0]
 80014d8:	085b      	lsrs	r3, r3, #1
 80014da:	01db      	lsls	r3, r3, #7
 80014dc:	b2db      	uxtb	r3, r3
 80014de:	431a      	orrs	r2, r3
          | (((Digit[0] & 0x4) >> 2) << LCD_SEG20_SHIFT) | (((Digit[0] & 0x8) >> 3) << LCD_SEG21_SHIFT);
 80014e0:	4b7f      	ldr	r3, [pc, #508]	; (80016e0 <BSP_LCD_GLASS_DisplayChar+0x334>)
 80014e2:	681b      	ldr	r3, [r3, #0]
 80014e4:	089b      	lsrs	r3, r3, #2
 80014e6:	069b      	lsls	r3, r3, #26
 80014e8:	f003 6380 	and.w	r3, r3, #67108864	; 0x4000000
 80014ec:	431a      	orrs	r2, r3
 80014ee:	4b7c      	ldr	r3, [pc, #496]	; (80016e0 <BSP_LCD_GLASS_DisplayChar+0x334>)
 80014f0:	681b      	ldr	r3, [r3, #0]
 80014f2:	08db      	lsrs	r3, r3, #3
 80014f4:	06db      	lsls	r3, r3, #27
 80014f6:	f003 6300 	and.w	r3, r3, #134217728	; 0x8000000
      data = ((Digit[0] & 0x1) << LCD_SEG2_SHIFT) | (((Digit[0] & 0x2) >> 1) << LCD_SEG3_SHIFT)
 80014fa:	4313      	orrs	r3, r2
 80014fc:	60fb      	str	r3, [r7, #12]
      HAL_LCD_Write(&LCDHandle, LCD_DIGIT2_COM0, LCD_DIGIT2_COM0_SEG_MASK, data); /* 2G 2B 2M 2E */
 80014fe:	68fb      	ldr	r3, [r7, #12]
 8001500:	4a7a      	ldr	r2, [pc, #488]	; (80016ec <BSP_LCD_GLASS_DisplayChar+0x340>)
 8001502:	2100      	movs	r1, #0
 8001504:	4878      	ldr	r0, [pc, #480]	; (80016e8 <BSP_LCD_GLASS_DisplayChar+0x33c>)
 8001506:	f001 fdc9 	bl	800309c <HAL_LCD_Write>
      
      data = ((Digit[1] & 0x1) << LCD_SEG2_SHIFT) | (((Digit[1] & 0x2) >> 1) << LCD_SEG3_SHIFT)
 800150a:	4b75      	ldr	r3, [pc, #468]	; (80016e0 <BSP_LCD_GLASS_DisplayChar+0x334>)
 800150c:	685b      	ldr	r3, [r3, #4]
 800150e:	009b      	lsls	r3, r3, #2
 8001510:	f003 0204 	and.w	r2, r3, #4
 8001514:	4b72      	ldr	r3, [pc, #456]	; (80016e0 <BSP_LCD_GLASS_DisplayChar+0x334>)
 8001516:	685b      	ldr	r3, [r3, #4]
 8001518:	085b      	lsrs	r3, r3, #1
 800151a:	01db      	lsls	r3, r3, #7
 800151c:	b2db      	uxtb	r3, r3
 800151e:	431a      	orrs	r2, r3
          | (((Digit[1] & 0x4) >> 2) << LCD_SEG20_SHIFT) | (((Digit[1] & 0x8) >> 3) << LCD_SEG21_SHIFT);
 8001520:	4b6f      	ldr	r3, [pc, #444]	; (80016e0 <BSP_LCD_GLASS_DisplayChar+0x334>)
 8001522:	685b      	ldr	r3, [r3, #4]
 8001524:	089b      	lsrs	r3, r3, #2
 8001526:	069b      	lsls	r3, r3, #26
 8001528:	f003 6380 	and.w	r3, r3, #67108864	; 0x4000000
 800152c:	431a      	orrs	r2, r3
 800152e:	4b6c      	ldr	r3, [pc, #432]	; (80016e0 <BSP_LCD_GLASS_DisplayChar+0x334>)
 8001530:	685b      	ldr	r3, [r3, #4]
 8001532:	08db      	lsrs	r3, r3, #3
 8001534:	06db      	lsls	r3, r3, #27
 8001536:	f003 6300 	and.w	r3, r3, #134217728	; 0x8000000
      data = ((Digit[1] & 0x1) << LCD_SEG2_SHIFT) | (((Digit[1] & 0x2) >> 1) << LCD_SEG3_SHIFT)
 800153a:	4313      	orrs	r3, r2
 800153c:	60fb      	str	r3, [r7, #12]
      HAL_LCD_Write(&LCDHandle, LCD_DIGIT2_COM1, LCD_DIGIT2_COM1_SEG_MASK, data) ; /* 2F 2A 2C 2D  */
 800153e:	68fb      	ldr	r3, [r7, #12]
 8001540:	4a6a      	ldr	r2, [pc, #424]	; (80016ec <BSP_LCD_GLASS_DisplayChar+0x340>)
 8001542:	2102      	movs	r1, #2
 8001544:	4868      	ldr	r0, [pc, #416]	; (80016e8 <BSP_LCD_GLASS_DisplayChar+0x33c>)
 8001546:	f001 fda9 	bl	800309c <HAL_LCD_Write>
      
      data = ((Digit[2] & 0x1) << LCD_SEG2_SHIFT) | (((Digit[2] & 0x2) >> 1) << LCD_SEG3_SHIFT)
 800154a:	4b65      	ldr	r3, [pc, #404]	; (80016e0 <BSP_LCD_GLASS_DisplayChar+0x334>)
 800154c:	689b      	ldr	r3, [r3, #8]
 800154e:	009b      	lsls	r3, r3, #2
 8001550:	f003 0204 	and.w	r2, r3, #4
 8001554:	4b62      	ldr	r3, [pc, #392]	; (80016e0 <BSP_LCD_GLASS_DisplayChar+0x334>)
 8001556:	689b      	ldr	r3, [r3, #8]
 8001558:	085b      	lsrs	r3, r3, #1
 800155a:	01db      	lsls	r3, r3, #7
 800155c:	b2db      	uxtb	r3, r3
 800155e:	431a      	orrs	r2, r3
          | (((Digit[2] & 0x4) >> 2) << LCD_SEG20_SHIFT) | (((Digit[2] & 0x8) >> 3) << LCD_SEG21_SHIFT);
 8001560:	4b5f      	ldr	r3, [pc, #380]	; (80016e0 <BSP_LCD_GLASS_DisplayChar+0x334>)
 8001562:	689b      	ldr	r3, [r3, #8]
 8001564:	089b      	lsrs	r3, r3, #2
 8001566:	069b      	lsls	r3, r3, #26
 8001568:	f003 6380 	and.w	r3, r3, #67108864	; 0x4000000
 800156c:	431a      	orrs	r2, r3
 800156e:	4b5c      	ldr	r3, [pc, #368]	; (80016e0 <BSP_LCD_GLASS_DisplayChar+0x334>)
 8001570:	689b      	ldr	r3, [r3, #8]
 8001572:	08db      	lsrs	r3, r3, #3
 8001574:	06db      	lsls	r3, r3, #27
 8001576:	f003 6300 	and.w	r3, r3, #134217728	; 0x8000000
      data = ((Digit[2] & 0x1) << LCD_SEG2_SHIFT) | (((Digit[2] & 0x2) >> 1) << LCD_SEG3_SHIFT)
 800157a:	4313      	orrs	r3, r2
 800157c:	60fb      	str	r3, [r7, #12]
      HAL_LCD_Write(&LCDHandle, LCD_DIGIT2_COM2, LCD_DIGIT2_COM2_SEG_MASK, data) ; /* 2Q 2K 2Col 2P  */
 800157e:	68fb      	ldr	r3, [r7, #12]
 8001580:	4a5a      	ldr	r2, [pc, #360]	; (80016ec <BSP_LCD_GLASS_DisplayChar+0x340>)
 8001582:	2104      	movs	r1, #4
 8001584:	4858      	ldr	r0, [pc, #352]	; (80016e8 <BSP_LCD_GLASS_DisplayChar+0x33c>)
 8001586:	f001 fd89 	bl	800309c <HAL_LCD_Write>
      
      data = ((Digit[3] & 0x1) << LCD_SEG2_SHIFT) | (((Digit[3] & 0x2) >> 1) << LCD_SEG3_SHIFT)
 800158a:	4b55      	ldr	r3, [pc, #340]	; (80016e0 <BSP_LCD_GLASS_DisplayChar+0x334>)
 800158c:	68db      	ldr	r3, [r3, #12]
 800158e:	009b      	lsls	r3, r3, #2
 8001590:	f003 0204 	and.w	r2, r3, #4
 8001594:	4b52      	ldr	r3, [pc, #328]	; (80016e0 <BSP_LCD_GLASS_DisplayChar+0x334>)
 8001596:	68db      	ldr	r3, [r3, #12]
 8001598:	085b      	lsrs	r3, r3, #1
 800159a:	01db      	lsls	r3, r3, #7
 800159c:	b2db      	uxtb	r3, r3
 800159e:	431a      	orrs	r2, r3
          | (((Digit[3] & 0x4) >> 2) << LCD_SEG20_SHIFT) | (((Digit[3] & 0x8) >> 3) << LCD_SEG21_SHIFT);
 80015a0:	4b4f      	ldr	r3, [pc, #316]	; (80016e0 <BSP_LCD_GLASS_DisplayChar+0x334>)
 80015a2:	68db      	ldr	r3, [r3, #12]
 80015a4:	089b      	lsrs	r3, r3, #2
 80015a6:	069b      	lsls	r3, r3, #26
 80015a8:	f003 6380 	and.w	r3, r3, #67108864	; 0x4000000
 80015ac:	431a      	orrs	r2, r3
 80015ae:	4b4c      	ldr	r3, [pc, #304]	; (80016e0 <BSP_LCD_GLASS_DisplayChar+0x334>)
 80015b0:	68db      	ldr	r3, [r3, #12]
 80015b2:	08db      	lsrs	r3, r3, #3
 80015b4:	06db      	lsls	r3, r3, #27
 80015b6:	f003 6300 	and.w	r3, r3, #134217728	; 0x8000000
      data = ((Digit[3] & 0x1) << LCD_SEG2_SHIFT) | (((Digit[3] & 0x2) >> 1) << LCD_SEG3_SHIFT)
 80015ba:	4313      	orrs	r3, r2
 80015bc:	60fb      	str	r3, [r7, #12]
      HAL_LCD_Write(&LCDHandle, LCD_DIGIT2_COM3, LCD_DIGIT2_COM3_SEG_MASK, data) ; /* 2H 2J 2DP 2N  */
 80015be:	68fb      	ldr	r3, [r7, #12]
 80015c0:	4a4a      	ldr	r2, [pc, #296]	; (80016ec <BSP_LCD_GLASS_DisplayChar+0x340>)
 80015c2:	2106      	movs	r1, #6
 80015c4:	4848      	ldr	r0, [pc, #288]	; (80016e8 <BSP_LCD_GLASS_DisplayChar+0x33c>)
 80015c6:	f001 fd69 	bl	800309c <HAL_LCD_Write>
      break;
 80015ca:	e261      	b.n	8001a90 <BSP_LCD_GLASS_DisplayChar+0x6e4>
    
    /* Position 3 on LCD (Digit3)*/
    case LCD_DIGIT_POSITION_3:
      data = ((Digit[0] & 0x1) << LCD_SEG4_SHIFT) | (((Digit[0] & 0x2) >> 1) << LCD_SEG5_SHIFT)
 80015cc:	4b44      	ldr	r3, [pc, #272]	; (80016e0 <BSP_LCD_GLASS_DisplayChar+0x334>)
 80015ce:	681b      	ldr	r3, [r3, #0]
 80015d0:	021b      	lsls	r3, r3, #8
 80015d2:	f403 7280 	and.w	r2, r3, #256	; 0x100
 80015d6:	4b42      	ldr	r3, [pc, #264]	; (80016e0 <BSP_LCD_GLASS_DisplayChar+0x334>)
 80015d8:	681b      	ldr	r3, [r3, #0]
 80015da:	085b      	lsrs	r3, r3, #1
 80015dc:	025b      	lsls	r3, r3, #9
 80015de:	f403 7300 	and.w	r3, r3, #512	; 0x200
 80015e2:	431a      	orrs	r2, r3
          | (((Digit[0] & 0x4) >> 2) << LCD_SEG18_SHIFT) | (((Digit[0] & 0x8) >> 3) << LCD_SEG19_SHIFT);
 80015e4:	4b3e      	ldr	r3, [pc, #248]	; (80016e0 <BSP_LCD_GLASS_DisplayChar+0x334>)
 80015e6:	681b      	ldr	r3, [r3, #0]
 80015e8:	089b      	lsrs	r3, r3, #2
 80015ea:	061b      	lsls	r3, r3, #24
 80015ec:	f003 7380 	and.w	r3, r3, #16777216	; 0x1000000
 80015f0:	431a      	orrs	r2, r3
 80015f2:	4b3b      	ldr	r3, [pc, #236]	; (80016e0 <BSP_LCD_GLASS_DisplayChar+0x334>)
 80015f4:	681b      	ldr	r3, [r3, #0]
 80015f6:	08db      	lsrs	r3, r3, #3
 80015f8:	065b      	lsls	r3, r3, #25
 80015fa:	f003 7300 	and.w	r3, r3, #33554432	; 0x2000000
      data = ((Digit[0] & 0x1) << LCD_SEG4_SHIFT) | (((Digit[0] & 0x2) >> 1) << LCD_SEG5_SHIFT)
 80015fe:	4313      	orrs	r3, r2
 8001600:	60fb      	str	r3, [r7, #12]
      HAL_LCD_Write(&LCDHandle, LCD_DIGIT3_COM0, LCD_DIGIT3_COM0_SEG_MASK, data); /* 3G 3B 3M 3E */
 8001602:	68fb      	ldr	r3, [r7, #12]
 8001604:	f06f 2203 	mvn.w	r2, #50332416	; 0x3000300
 8001608:	2100      	movs	r1, #0
 800160a:	4837      	ldr	r0, [pc, #220]	; (80016e8 <BSP_LCD_GLASS_DisplayChar+0x33c>)
 800160c:	f001 fd46 	bl	800309c <HAL_LCD_Write>
      
      data = ((Digit[1] & 0x1) << LCD_SEG4_SHIFT) | (((Digit[1] & 0x2) >> 1) << LCD_SEG5_SHIFT)
 8001610:	4b33      	ldr	r3, [pc, #204]	; (80016e0 <BSP_LCD_GLASS_DisplayChar+0x334>)
 8001612:	685b      	ldr	r3, [r3, #4]
 8001614:	021b      	lsls	r3, r3, #8
 8001616:	f403 7280 	and.w	r2, r3, #256	; 0x100
 800161a:	4b31      	ldr	r3, [pc, #196]	; (80016e0 <BSP_LCD_GLASS_DisplayChar+0x334>)
 800161c:	685b      	ldr	r3, [r3, #4]
 800161e:	085b      	lsrs	r3, r3, #1
 8001620:	025b      	lsls	r3, r3, #9
 8001622:	f403 7300 	and.w	r3, r3, #512	; 0x200
 8001626:	431a      	orrs	r2, r3
          | (((Digit[1] & 0x4) >> 2) << LCD_SEG18_SHIFT) | (((Digit[1] & 0x8) >> 3) << LCD_SEG19_SHIFT);
 8001628:	4b2d      	ldr	r3, [pc, #180]	; (80016e0 <BSP_LCD_GLASS_DisplayChar+0x334>)
 800162a:	685b      	ldr	r3, [r3, #4]
 800162c:	089b      	lsrs	r3, r3, #2
 800162e:	061b      	lsls	r3, r3, #24
 8001630:	f003 7380 	and.w	r3, r3, #16777216	; 0x1000000
 8001634:	431a      	orrs	r2, r3
 8001636:	4b2a      	ldr	r3, [pc, #168]	; (80016e0 <BSP_LCD_GLASS_DisplayChar+0x334>)
 8001638:	685b      	ldr	r3, [r3, #4]
 800163a:	08db      	lsrs	r3, r3, #3
 800163c:	065b      	lsls	r3, r3, #25
 800163e:	f003 7300 	and.w	r3, r3, #33554432	; 0x2000000
      data = ((Digit[1] & 0x1) << LCD_SEG4_SHIFT) | (((Digit[1] & 0x2) >> 1) << LCD_SEG5_SHIFT)
 8001642:	4313      	orrs	r3, r2
 8001644:	60fb      	str	r3, [r7, #12]
      HAL_LCD_Write(&LCDHandle, LCD_DIGIT3_COM1, LCD_DIGIT3_COM1_SEG_MASK, data) ; /* 3F 3A 3C 3D  */
 8001646:	68fb      	ldr	r3, [r7, #12]
 8001648:	f06f 2203 	mvn.w	r2, #50332416	; 0x3000300
 800164c:	2102      	movs	r1, #2
 800164e:	4826      	ldr	r0, [pc, #152]	; (80016e8 <BSP_LCD_GLASS_DisplayChar+0x33c>)
 8001650:	f001 fd24 	bl	800309c <HAL_LCD_Write>
      
      data = ((Digit[2] & 0x1) << LCD_SEG4_SHIFT) | (((Digit[2] & 0x2) >> 1) << LCD_SEG5_SHIFT)
 8001654:	4b22      	ldr	r3, [pc, #136]	; (80016e0 <BSP_LCD_GLASS_DisplayChar+0x334>)
 8001656:	689b      	ldr	r3, [r3, #8]
 8001658:	021b      	lsls	r3, r3, #8
 800165a:	f403 7280 	and.w	r2, r3, #256	; 0x100
 800165e:	4b20      	ldr	r3, [pc, #128]	; (80016e0 <BSP_LCD_GLASS_DisplayChar+0x334>)
 8001660:	689b      	ldr	r3, [r3, #8]
 8001662:	085b      	lsrs	r3, r3, #1
 8001664:	025b      	lsls	r3, r3, #9
 8001666:	f403 7300 	and.w	r3, r3, #512	; 0x200
 800166a:	431a      	orrs	r2, r3
          | (((Digit[2] & 0x4) >> 2) << LCD_SEG18_SHIFT) | (((Digit[2] & 0x8) >> 3) << LCD_SEG19_SHIFT);
 800166c:	4b1c      	ldr	r3, [pc, #112]	; (80016e0 <BSP_LCD_GLASS_DisplayChar+0x334>)
 800166e:	689b      	ldr	r3, [r3, #8]
 8001670:	089b      	lsrs	r3, r3, #2
 8001672:	061b      	lsls	r3, r3, #24
 8001674:	f003 7380 	and.w	r3, r3, #16777216	; 0x1000000
 8001678:	431a      	orrs	r2, r3
 800167a:	4b19      	ldr	r3, [pc, #100]	; (80016e0 <BSP_LCD_GLASS_DisplayChar+0x334>)
 800167c:	689b      	ldr	r3, [r3, #8]
 800167e:	08db      	lsrs	r3, r3, #3
 8001680:	065b      	lsls	r3, r3, #25
 8001682:	f003 7300 	and.w	r3, r3, #33554432	; 0x2000000
      data = ((Digit[2] & 0x1) << LCD_SEG4_SHIFT) | (((Digit[2] & 0x2) >> 1) << LCD_SEG5_SHIFT)
 8001686:	4313      	orrs	r3, r2
 8001688:	60fb      	str	r3, [r7, #12]
      HAL_LCD_Write(&LCDHandle, LCD_DIGIT3_COM2, LCD_DIGIT3_COM2_SEG_MASK, data) ; /* 3Q 3K 3Col 3P  */
 800168a:	68fb      	ldr	r3, [r7, #12]
 800168c:	f06f 2203 	mvn.w	r2, #50332416	; 0x3000300
 8001690:	2104      	movs	r1, #4
 8001692:	4815      	ldr	r0, [pc, #84]	; (80016e8 <BSP_LCD_GLASS_DisplayChar+0x33c>)
 8001694:	f001 fd02 	bl	800309c <HAL_LCD_Write>
      
      data = ((Digit[3] & 0x1) << LCD_SEG4_SHIFT) | (((Digit[3] & 0x2) >> 1) << LCD_SEG5_SHIFT)
 8001698:	4b11      	ldr	r3, [pc, #68]	; (80016e0 <BSP_LCD_GLASS_DisplayChar+0x334>)
 800169a:	68db      	ldr	r3, [r3, #12]
 800169c:	021b      	lsls	r3, r3, #8
 800169e:	f403 7280 	and.w	r2, r3, #256	; 0x100
 80016a2:	4b0f      	ldr	r3, [pc, #60]	; (80016e0 <BSP_LCD_GLASS_DisplayChar+0x334>)
 80016a4:	68db      	ldr	r3, [r3, #12]
 80016a6:	085b      	lsrs	r3, r3, #1
 80016a8:	025b      	lsls	r3, r3, #9
 80016aa:	f403 7300 	and.w	r3, r3, #512	; 0x200
 80016ae:	431a      	orrs	r2, r3
          | (((Digit[3] & 0x4) >> 2) << LCD_SEG18_SHIFT) | (((Digit[3] & 0x8) >> 3) << LCD_SEG19_SHIFT);
 80016b0:	4b0b      	ldr	r3, [pc, #44]	; (80016e0 <BSP_LCD_GLASS_DisplayChar+0x334>)
 80016b2:	68db      	ldr	r3, [r3, #12]
 80016b4:	089b      	lsrs	r3, r3, #2
 80016b6:	061b      	lsls	r3, r3, #24
 80016b8:	f003 7380 	and.w	r3, r3, #16777216	; 0x1000000
 80016bc:	431a      	orrs	r2, r3
 80016be:	4b08      	ldr	r3, [pc, #32]	; (80016e0 <BSP_LCD_GLASS_DisplayChar+0x334>)
 80016c0:	68db      	ldr	r3, [r3, #12]
 80016c2:	08db      	lsrs	r3, r3, #3
 80016c4:	065b      	lsls	r3, r3, #25
 80016c6:	f003 7300 	and.w	r3, r3, #33554432	; 0x2000000
      data = ((Digit[3] & 0x1) << LCD_SEG4_SHIFT) | (((Digit[3] & 0x2) >> 1) << LCD_SEG5_SHIFT)
 80016ca:	4313      	orrs	r3, r2
 80016cc:	60fb      	str	r3, [r7, #12]
      HAL_LCD_Write(&LCDHandle, LCD_DIGIT3_COM3, LCD_DIGIT3_COM3_SEG_MASK, data) ; /* 3H 3J 3DP 3N  */
 80016ce:	68fb      	ldr	r3, [r7, #12]
 80016d0:	f06f 2203 	mvn.w	r2, #50332416	; 0x3000300
 80016d4:	2106      	movs	r1, #6
 80016d6:	4804      	ldr	r0, [pc, #16]	; (80016e8 <BSP_LCD_GLASS_DisplayChar+0x33c>)
 80016d8:	f001 fce0 	bl	800309c <HAL_LCD_Write>
      break;
 80016dc:	e1d8      	b.n	8001a90 <BSP_LCD_GLASS_DisplayChar+0x6e4>
 80016de:	bf00      	nop
 80016e0:	20000248 	.word	0x20000248
 80016e4:	cffffffc 	.word	0xcffffffc
 80016e8:	2000020c 	.word	0x2000020c
 80016ec:	f3ffff7b 	.word	0xf3ffff7b
    
    /* Position 4 on LCD (Digit4)*/
    case LCD_DIGIT_POSITION_4:
      data = ((Digit[0] & 0x1) << LCD_SEG6_SHIFT) | (((Digit[0] & 0x8) >> 3) << LCD_SEG17_SHIFT);
 80016f0:	4ba0      	ldr	r3, [pc, #640]	; (8001974 <BSP_LCD_GLASS_DisplayChar+0x5c8>)
 80016f2:	681b      	ldr	r3, [r3, #0]
 80016f4:	029b      	lsls	r3, r3, #10
 80016f6:	f403 6280 	and.w	r2, r3, #1024	; 0x400
 80016fa:	4b9e      	ldr	r3, [pc, #632]	; (8001974 <BSP_LCD_GLASS_DisplayChar+0x5c8>)
 80016fc:	681b      	ldr	r3, [r3, #0]
 80016fe:	08db      	lsrs	r3, r3, #3
 8001700:	055b      	lsls	r3, r3, #21
 8001702:	f403 1300 	and.w	r3, r3, #2097152	; 0x200000
 8001706:	4313      	orrs	r3, r2
 8001708:	60fb      	str	r3, [r7, #12]
      HAL_LCD_Write(&LCDHandle, LCD_DIGIT4_COM0, LCD_DIGIT4_COM0_SEG_MASK, data); /* 4G 4B 4M 4E */
 800170a:	68fb      	ldr	r3, [r7, #12]
 800170c:	4a9a      	ldr	r2, [pc, #616]	; (8001978 <BSP_LCD_GLASS_DisplayChar+0x5cc>)
 800170e:	2100      	movs	r1, #0
 8001710:	489a      	ldr	r0, [pc, #616]	; (800197c <BSP_LCD_GLASS_DisplayChar+0x5d0>)
 8001712:	f001 fcc3 	bl	800309c <HAL_LCD_Write>
      
      data = (((Digit[0] & 0x2) >> 1) << LCD_SEG7_SHIFT) | (((Digit[0] & 0x4) >> 2) << LCD_SEG16_SHIFT);
 8001716:	4b97      	ldr	r3, [pc, #604]	; (8001974 <BSP_LCD_GLASS_DisplayChar+0x5c8>)
 8001718:	681b      	ldr	r3, [r3, #0]
 800171a:	085b      	lsrs	r3, r3, #1
 800171c:	02db      	lsls	r3, r3, #11
 800171e:	f403 6200 	and.w	r2, r3, #2048	; 0x800
 8001722:	4b94      	ldr	r3, [pc, #592]	; (8001974 <BSP_LCD_GLASS_DisplayChar+0x5c8>)
 8001724:	681b      	ldr	r3, [r3, #0]
 8001726:	089b      	lsrs	r3, r3, #2
 8001728:	051b      	lsls	r3, r3, #20
 800172a:	f403 1380 	and.w	r3, r3, #1048576	; 0x100000
 800172e:	4313      	orrs	r3, r2
 8001730:	60fb      	str	r3, [r7, #12]
      HAL_LCD_Write(&LCDHandle, LCD_DIGIT4_COM0_1, LCD_DIGIT4_COM0_1_SEG_MASK, data); /* 4G 4B 4M 4E */
 8001732:	68fb      	ldr	r3, [r7, #12]
 8001734:	4a92      	ldr	r2, [pc, #584]	; (8001980 <BSP_LCD_GLASS_DisplayChar+0x5d4>)
 8001736:	2100      	movs	r1, #0
 8001738:	4890      	ldr	r0, [pc, #576]	; (800197c <BSP_LCD_GLASS_DisplayChar+0x5d0>)
 800173a:	f001 fcaf 	bl	800309c <HAL_LCD_Write>
      
      data = ((Digit[1] & 0x1) << LCD_SEG6_SHIFT) | (((Digit[1] & 0x8) >> 3) << LCD_SEG17_SHIFT);
 800173e:	4b8d      	ldr	r3, [pc, #564]	; (8001974 <BSP_LCD_GLASS_DisplayChar+0x5c8>)
 8001740:	685b      	ldr	r3, [r3, #4]
 8001742:	029b      	lsls	r3, r3, #10
 8001744:	f403 6280 	and.w	r2, r3, #1024	; 0x400
 8001748:	4b8a      	ldr	r3, [pc, #552]	; (8001974 <BSP_LCD_GLASS_DisplayChar+0x5c8>)
 800174a:	685b      	ldr	r3, [r3, #4]
 800174c:	08db      	lsrs	r3, r3, #3
 800174e:	055b      	lsls	r3, r3, #21
 8001750:	f403 1300 	and.w	r3, r3, #2097152	; 0x200000
 8001754:	4313      	orrs	r3, r2
 8001756:	60fb      	str	r3, [r7, #12]
      HAL_LCD_Write(&LCDHandle, LCD_DIGIT4_COM1, LCD_DIGIT4_COM1_SEG_MASK, data) ; /* 4F 4A 4C 4D  */
 8001758:	68fb      	ldr	r3, [r7, #12]
 800175a:	4a87      	ldr	r2, [pc, #540]	; (8001978 <BSP_LCD_GLASS_DisplayChar+0x5cc>)
 800175c:	2102      	movs	r1, #2
 800175e:	4887      	ldr	r0, [pc, #540]	; (800197c <BSP_LCD_GLASS_DisplayChar+0x5d0>)
 8001760:	f001 fc9c 	bl	800309c <HAL_LCD_Write>
      
      data = (((Digit[1] & 0x2) >> 1) << LCD_SEG7_SHIFT) | (((Digit[1] & 0x4) >> 2) << LCD_SEG16_SHIFT);
 8001764:	4b83      	ldr	r3, [pc, #524]	; (8001974 <BSP_LCD_GLASS_DisplayChar+0x5c8>)
 8001766:	685b      	ldr	r3, [r3, #4]
 8001768:	085b      	lsrs	r3, r3, #1
 800176a:	02db      	lsls	r3, r3, #11
 800176c:	f403 6200 	and.w	r2, r3, #2048	; 0x800
 8001770:	4b80      	ldr	r3, [pc, #512]	; (8001974 <BSP_LCD_GLASS_DisplayChar+0x5c8>)
 8001772:	685b      	ldr	r3, [r3, #4]
 8001774:	089b      	lsrs	r3, r3, #2
 8001776:	051b      	lsls	r3, r3, #20
 8001778:	f403 1380 	and.w	r3, r3, #1048576	; 0x100000
 800177c:	4313      	orrs	r3, r2
 800177e:	60fb      	str	r3, [r7, #12]
      HAL_LCD_Write(&LCDHandle, LCD_DIGIT4_COM1_1, LCD_DIGIT4_COM1_1_SEG_MASK, data) ; /* 4F 4A 4C 4D  */
 8001780:	68fb      	ldr	r3, [r7, #12]
 8001782:	4a7f      	ldr	r2, [pc, #508]	; (8001980 <BSP_LCD_GLASS_DisplayChar+0x5d4>)
 8001784:	2102      	movs	r1, #2
 8001786:	487d      	ldr	r0, [pc, #500]	; (800197c <BSP_LCD_GLASS_DisplayChar+0x5d0>)
 8001788:	f001 fc88 	bl	800309c <HAL_LCD_Write>
      
      data = ((Digit[2] & 0x1) << LCD_SEG6_SHIFT) | (((Digit[2] & 0x8) >> 3) << LCD_SEG17_SHIFT);
 800178c:	4b79      	ldr	r3, [pc, #484]	; (8001974 <BSP_LCD_GLASS_DisplayChar+0x5c8>)
 800178e:	689b      	ldr	r3, [r3, #8]
 8001790:	029b      	lsls	r3, r3, #10
 8001792:	f403 6280 	and.w	r2, r3, #1024	; 0x400
 8001796:	4b77      	ldr	r3, [pc, #476]	; (8001974 <BSP_LCD_GLASS_DisplayChar+0x5c8>)
 8001798:	689b      	ldr	r3, [r3, #8]
 800179a:	08db      	lsrs	r3, r3, #3
 800179c:	055b      	lsls	r3, r3, #21
 800179e:	f403 1300 	and.w	r3, r3, #2097152	; 0x200000
 80017a2:	4313      	orrs	r3, r2
 80017a4:	60fb      	str	r3, [r7, #12]
      HAL_LCD_Write(&LCDHandle, LCD_DIGIT4_COM2, LCD_DIGIT4_COM2_SEG_MASK, data) ; /* 4Q 4K 4Col 4P  */
 80017a6:	68fb      	ldr	r3, [r7, #12]
 80017a8:	4a73      	ldr	r2, [pc, #460]	; (8001978 <BSP_LCD_GLASS_DisplayChar+0x5cc>)
 80017aa:	2104      	movs	r1, #4
 80017ac:	4873      	ldr	r0, [pc, #460]	; (800197c <BSP_LCD_GLASS_DisplayChar+0x5d0>)
 80017ae:	f001 fc75 	bl	800309c <HAL_LCD_Write>
      
      data = (((Digit[2] & 0x2) >> 1) << LCD_SEG7_SHIFT) | (((Digit[2] & 0x4) >> 2) << LCD_SEG16_SHIFT);
 80017b2:	4b70      	ldr	r3, [pc, #448]	; (8001974 <BSP_LCD_GLASS_DisplayChar+0x5c8>)
 80017b4:	689b      	ldr	r3, [r3, #8]
 80017b6:	085b      	lsrs	r3, r3, #1
 80017b8:	02db      	lsls	r3, r3, #11
 80017ba:	f403 6200 	and.w	r2, r3, #2048	; 0x800
 80017be:	4b6d      	ldr	r3, [pc, #436]	; (8001974 <BSP_LCD_GLASS_DisplayChar+0x5c8>)
 80017c0:	689b      	ldr	r3, [r3, #8]
 80017c2:	089b      	lsrs	r3, r3, #2
 80017c4:	051b      	lsls	r3, r3, #20
 80017c6:	f403 1380 	and.w	r3, r3, #1048576	; 0x100000
 80017ca:	4313      	orrs	r3, r2
 80017cc:	60fb      	str	r3, [r7, #12]
      HAL_LCD_Write(&LCDHandle, LCD_DIGIT4_COM2_1, LCD_DIGIT4_COM2_1_SEG_MASK, data) ; /* 4Q 4K 4Col 4P  */
 80017ce:	68fb      	ldr	r3, [r7, #12]
 80017d0:	4a6b      	ldr	r2, [pc, #428]	; (8001980 <BSP_LCD_GLASS_DisplayChar+0x5d4>)
 80017d2:	2104      	movs	r1, #4
 80017d4:	4869      	ldr	r0, [pc, #420]	; (800197c <BSP_LCD_GLASS_DisplayChar+0x5d0>)
 80017d6:	f001 fc61 	bl	800309c <HAL_LCD_Write>
      
      data = ((Digit[3] & 0x1) << LCD_SEG6_SHIFT) | (((Digit[3] & 0x8) >> 3) << LCD_SEG17_SHIFT);
 80017da:	4b66      	ldr	r3, [pc, #408]	; (8001974 <BSP_LCD_GLASS_DisplayChar+0x5c8>)
 80017dc:	68db      	ldr	r3, [r3, #12]
 80017de:	029b      	lsls	r3, r3, #10
 80017e0:	f403 6280 	and.w	r2, r3, #1024	; 0x400
 80017e4:	4b63      	ldr	r3, [pc, #396]	; (8001974 <BSP_LCD_GLASS_DisplayChar+0x5c8>)
 80017e6:	68db      	ldr	r3, [r3, #12]
 80017e8:	08db      	lsrs	r3, r3, #3
 80017ea:	055b      	lsls	r3, r3, #21
 80017ec:	f403 1300 	and.w	r3, r3, #2097152	; 0x200000
 80017f0:	4313      	orrs	r3, r2
 80017f2:	60fb      	str	r3, [r7, #12]
      HAL_LCD_Write(&LCDHandle, LCD_DIGIT4_COM3, LCD_DIGIT4_COM3_SEG_MASK, data) ; /* 4H 4J 4DP 4N  */
 80017f4:	68fb      	ldr	r3, [r7, #12]
 80017f6:	4a60      	ldr	r2, [pc, #384]	; (8001978 <BSP_LCD_GLASS_DisplayChar+0x5cc>)
 80017f8:	2106      	movs	r1, #6
 80017fa:	4860      	ldr	r0, [pc, #384]	; (800197c <BSP_LCD_GLASS_DisplayChar+0x5d0>)
 80017fc:	f001 fc4e 	bl	800309c <HAL_LCD_Write>
      
      data = (((Digit[3] & 0x2) >> 1) << LCD_SEG7_SHIFT) | (((Digit[3] & 0x4) >> 2) << LCD_SEG16_SHIFT);
 8001800:	4b5c      	ldr	r3, [pc, #368]	; (8001974 <BSP_LCD_GLASS_DisplayChar+0x5c8>)
 8001802:	68db      	ldr	r3, [r3, #12]
 8001804:	085b      	lsrs	r3, r3, #1
 8001806:	02db      	lsls	r3, r3, #11
 8001808:	f403 6200 	and.w	r2, r3, #2048	; 0x800
 800180c:	4b59      	ldr	r3, [pc, #356]	; (8001974 <BSP_LCD_GLASS_DisplayChar+0x5c8>)
 800180e:	68db      	ldr	r3, [r3, #12]
 8001810:	089b      	lsrs	r3, r3, #2
 8001812:	051b      	lsls	r3, r3, #20
 8001814:	f403 1380 	and.w	r3, r3, #1048576	; 0x100000
 8001818:	4313      	orrs	r3, r2
 800181a:	60fb      	str	r3, [r7, #12]
      HAL_LCD_Write(&LCDHandle, LCD_DIGIT4_COM3_1, LCD_DIGIT4_COM3_1_SEG_MASK, data) ; /* 4H 4J 4DP 4N  */
 800181c:	68fb      	ldr	r3, [r7, #12]
 800181e:	4a58      	ldr	r2, [pc, #352]	; (8001980 <BSP_LCD_GLASS_DisplayChar+0x5d4>)
 8001820:	2106      	movs	r1, #6
 8001822:	4856      	ldr	r0, [pc, #344]	; (800197c <BSP_LCD_GLASS_DisplayChar+0x5d0>)
 8001824:	f001 fc3a 	bl	800309c <HAL_LCD_Write>
      break;
 8001828:	e132      	b.n	8001a90 <BSP_LCD_GLASS_DisplayChar+0x6e4>
    
    /* Position 5 on LCD (Digit5)*/
    case LCD_DIGIT_POSITION_5:
       data = (((Digit[0] & 0x2) >> 1) << LCD_SEG9_SHIFT) | (((Digit[0] & 0x4) >> 2) << LCD_SEG14_SHIFT);
 800182a:	4b52      	ldr	r3, [pc, #328]	; (8001974 <BSP_LCD_GLASS_DisplayChar+0x5c8>)
 800182c:	681b      	ldr	r3, [r3, #0]
 800182e:	085b      	lsrs	r3, r3, #1
 8001830:	035b      	lsls	r3, r3, #13
 8001832:	f403 5200 	and.w	r2, r3, #8192	; 0x2000
 8001836:	4b4f      	ldr	r3, [pc, #316]	; (8001974 <BSP_LCD_GLASS_DisplayChar+0x5c8>)
 8001838:	681b      	ldr	r3, [r3, #0]
 800183a:	089b      	lsrs	r3, r3, #2
 800183c:	049b      	lsls	r3, r3, #18
 800183e:	f403 2380 	and.w	r3, r3, #262144	; 0x40000
 8001842:	4313      	orrs	r3, r2
 8001844:	60fb      	str	r3, [r7, #12]
      HAL_LCD_Write(&LCDHandle, LCD_DIGIT5_COM0, LCD_DIGIT5_COM0_SEG_MASK, data); /* 5G 5B 5M 5E */
 8001846:	68fb      	ldr	r3, [r7, #12]
 8001848:	f46f 2284 	mvn.w	r2, #270336	; 0x42000
 800184c:	2100      	movs	r1, #0
 800184e:	484b      	ldr	r0, [pc, #300]	; (800197c <BSP_LCD_GLASS_DisplayChar+0x5d0>)
 8001850:	f001 fc24 	bl	800309c <HAL_LCD_Write>
      
      data = ((Digit[0] & 0x1) << LCD_SEG8_SHIFT) | (((Digit[0] & 0x8) >> 3) << LCD_SEG15_SHIFT);
 8001854:	4b47      	ldr	r3, [pc, #284]	; (8001974 <BSP_LCD_GLASS_DisplayChar+0x5c8>)
 8001856:	681b      	ldr	r3, [r3, #0]
 8001858:	031b      	lsls	r3, r3, #12
 800185a:	f403 5280 	and.w	r2, r3, #4096	; 0x1000
 800185e:	4b45      	ldr	r3, [pc, #276]	; (8001974 <BSP_LCD_GLASS_DisplayChar+0x5c8>)
 8001860:	681b      	ldr	r3, [r3, #0]
 8001862:	08db      	lsrs	r3, r3, #3
 8001864:	04db      	lsls	r3, r3, #19
 8001866:	f403 2300 	and.w	r3, r3, #524288	; 0x80000
 800186a:	4313      	orrs	r3, r2
 800186c:	60fb      	str	r3, [r7, #12]
      HAL_LCD_Write(&LCDHandle, LCD_DIGIT5_COM0_1, LCD_DIGIT5_COM0_1_SEG_MASK, data); /* 5G 5B 5M 5E */
 800186e:	68fb      	ldr	r3, [r7, #12]
 8001870:	f46f 2201 	mvn.w	r2, #528384	; 0x81000
 8001874:	2100      	movs	r1, #0
 8001876:	4841      	ldr	r0, [pc, #260]	; (800197c <BSP_LCD_GLASS_DisplayChar+0x5d0>)
 8001878:	f001 fc10 	bl	800309c <HAL_LCD_Write>
      
      data = (((Digit[1] & 0x2) >> 1) << LCD_SEG9_SHIFT) | (((Digit[1] & 0x4) >> 2) << LCD_SEG14_SHIFT);
 800187c:	4b3d      	ldr	r3, [pc, #244]	; (8001974 <BSP_LCD_GLASS_DisplayChar+0x5c8>)
 800187e:	685b      	ldr	r3, [r3, #4]
 8001880:	085b      	lsrs	r3, r3, #1
 8001882:	035b      	lsls	r3, r3, #13
 8001884:	f403 5200 	and.w	r2, r3, #8192	; 0x2000
 8001888:	4b3a      	ldr	r3, [pc, #232]	; (8001974 <BSP_LCD_GLASS_DisplayChar+0x5c8>)
 800188a:	685b      	ldr	r3, [r3, #4]
 800188c:	089b      	lsrs	r3, r3, #2
 800188e:	049b      	lsls	r3, r3, #18
 8001890:	f403 2380 	and.w	r3, r3, #262144	; 0x40000
 8001894:	4313      	orrs	r3, r2
 8001896:	60fb      	str	r3, [r7, #12]
      HAL_LCD_Write(&LCDHandle, LCD_DIGIT5_COM1, LCD_DIGIT5_COM1_SEG_MASK, data) ; /* 5F 5A 5C 5D */
 8001898:	68fb      	ldr	r3, [r7, #12]
 800189a:	f46f 2284 	mvn.w	r2, #270336	; 0x42000
 800189e:	2102      	movs	r1, #2
 80018a0:	4836      	ldr	r0, [pc, #216]	; (800197c <BSP_LCD_GLASS_DisplayChar+0x5d0>)
 80018a2:	f001 fbfb 	bl	800309c <HAL_LCD_Write>
      
       data = ((Digit[1] & 0x1) << LCD_SEG8_SHIFT) | (((Digit[1] & 0x8) >> 3) << LCD_SEG15_SHIFT);
 80018a6:	4b33      	ldr	r3, [pc, #204]	; (8001974 <BSP_LCD_GLASS_DisplayChar+0x5c8>)
 80018a8:	685b      	ldr	r3, [r3, #4]
 80018aa:	031b      	lsls	r3, r3, #12
 80018ac:	f403 5280 	and.w	r2, r3, #4096	; 0x1000
 80018b0:	4b30      	ldr	r3, [pc, #192]	; (8001974 <BSP_LCD_GLASS_DisplayChar+0x5c8>)
 80018b2:	685b      	ldr	r3, [r3, #4]
 80018b4:	08db      	lsrs	r3, r3, #3
 80018b6:	04db      	lsls	r3, r3, #19
 80018b8:	f403 2300 	and.w	r3, r3, #524288	; 0x80000
 80018bc:	4313      	orrs	r3, r2
 80018be:	60fb      	str	r3, [r7, #12]
      HAL_LCD_Write(&LCDHandle, LCD_DIGIT5_COM1_1, LCD_DIGIT5_COM1_1_SEG_MASK, data) ; /* 5F 5A 5C 5D */
 80018c0:	68fb      	ldr	r3, [r7, #12]
 80018c2:	f46f 2201 	mvn.w	r2, #528384	; 0x81000
 80018c6:	2102      	movs	r1, #2
 80018c8:	482c      	ldr	r0, [pc, #176]	; (800197c <BSP_LCD_GLASS_DisplayChar+0x5d0>)
 80018ca:	f001 fbe7 	bl	800309c <HAL_LCD_Write>
      
      data = (((Digit[2] & 0x2) >> 1) << LCD_SEG9_SHIFT) | (((Digit[2] & 0x4) >> 2) << LCD_SEG14_SHIFT);
 80018ce:	4b29      	ldr	r3, [pc, #164]	; (8001974 <BSP_LCD_GLASS_DisplayChar+0x5c8>)
 80018d0:	689b      	ldr	r3, [r3, #8]
 80018d2:	085b      	lsrs	r3, r3, #1
 80018d4:	035b      	lsls	r3, r3, #13
 80018d6:	f403 5200 	and.w	r2, r3, #8192	; 0x2000
 80018da:	4b26      	ldr	r3, [pc, #152]	; (8001974 <BSP_LCD_GLASS_DisplayChar+0x5c8>)
 80018dc:	689b      	ldr	r3, [r3, #8]
 80018de:	089b      	lsrs	r3, r3, #2
 80018e0:	049b      	lsls	r3, r3, #18
 80018e2:	f403 2380 	and.w	r3, r3, #262144	; 0x40000
 80018e6:	4313      	orrs	r3, r2
 80018e8:	60fb      	str	r3, [r7, #12]
      HAL_LCD_Write(&LCDHandle, LCD_DIGIT5_COM2, LCD_DIGIT5_COM2_SEG_MASK, data) ; /* 5Q 5K 5P */
 80018ea:	68fb      	ldr	r3, [r7, #12]
 80018ec:	f46f 2284 	mvn.w	r2, #270336	; 0x42000
 80018f0:	2104      	movs	r1, #4
 80018f2:	4822      	ldr	r0, [pc, #136]	; (800197c <BSP_LCD_GLASS_DisplayChar+0x5d0>)
 80018f4:	f001 fbd2 	bl	800309c <HAL_LCD_Write>
      
      data = ((Digit[2] & 0x1) << LCD_SEG8_SHIFT) | (((Digit[2] & 0x8) >> 3) << LCD_SEG15_SHIFT);
 80018f8:	4b1e      	ldr	r3, [pc, #120]	; (8001974 <BSP_LCD_GLASS_DisplayChar+0x5c8>)
 80018fa:	689b      	ldr	r3, [r3, #8]
 80018fc:	031b      	lsls	r3, r3, #12
 80018fe:	f403 5280 	and.w	r2, r3, #4096	; 0x1000
 8001902:	4b1c      	ldr	r3, [pc, #112]	; (8001974 <BSP_LCD_GLASS_DisplayChar+0x5c8>)
 8001904:	689b      	ldr	r3, [r3, #8]
 8001906:	08db      	lsrs	r3, r3, #3
 8001908:	04db      	lsls	r3, r3, #19
 800190a:	f403 2300 	and.w	r3, r3, #524288	; 0x80000
 800190e:	4313      	orrs	r3, r2
 8001910:	60fb      	str	r3, [r7, #12]
      HAL_LCD_Write(&LCDHandle, LCD_DIGIT5_COM2_1, LCD_DIGIT5_COM2_1_SEG_MASK, data) ; /* 5Q 5K 5P */
 8001912:	68fb      	ldr	r3, [r7, #12]
 8001914:	f46f 2201 	mvn.w	r2, #528384	; 0x81000
 8001918:	2104      	movs	r1, #4
 800191a:	4818      	ldr	r0, [pc, #96]	; (800197c <BSP_LCD_GLASS_DisplayChar+0x5d0>)
 800191c:	f001 fbbe 	bl	800309c <HAL_LCD_Write>
      
      data = (((Digit[3] & 0x2) >> 1) << LCD_SEG9_SHIFT) | (((Digit[3] & 0x4) >> 2) << LCD_SEG14_SHIFT);
 8001920:	4b14      	ldr	r3, [pc, #80]	; (8001974 <BSP_LCD_GLASS_DisplayChar+0x5c8>)
 8001922:	68db      	ldr	r3, [r3, #12]
 8001924:	085b      	lsrs	r3, r3, #1
 8001926:	035b      	lsls	r3, r3, #13
 8001928:	f403 5200 	and.w	r2, r3, #8192	; 0x2000
 800192c:	4b11      	ldr	r3, [pc, #68]	; (8001974 <BSP_LCD_GLASS_DisplayChar+0x5c8>)
 800192e:	68db      	ldr	r3, [r3, #12]
 8001930:	089b      	lsrs	r3, r3, #2
 8001932:	049b      	lsls	r3, r3, #18
 8001934:	f403 2380 	and.w	r3, r3, #262144	; 0x40000
 8001938:	4313      	orrs	r3, r2
 800193a:	60fb      	str	r3, [r7, #12]
      HAL_LCD_Write(&LCDHandle, LCD_DIGIT5_COM3, LCD_DIGIT5_COM3_SEG_MASK, data) ; /* 5H 5J 5N */
 800193c:	68fb      	ldr	r3, [r7, #12]
 800193e:	f46f 2284 	mvn.w	r2, #270336	; 0x42000
 8001942:	2106      	movs	r1, #6
 8001944:	480d      	ldr	r0, [pc, #52]	; (800197c <BSP_LCD_GLASS_DisplayChar+0x5d0>)
 8001946:	f001 fba9 	bl	800309c <HAL_LCD_Write>
      
      data = ((Digit[3] & 0x1) << LCD_SEG8_SHIFT) | (((Digit[3] & 0x8) >> 3) << LCD_SEG15_SHIFT);
 800194a:	4b0a      	ldr	r3, [pc, #40]	; (8001974 <BSP_LCD_GLASS_DisplayChar+0x5c8>)
 800194c:	68db      	ldr	r3, [r3, #12]
 800194e:	031b      	lsls	r3, r3, #12
 8001950:	f403 5280 	and.w	r2, r3, #4096	; 0x1000
 8001954:	4b07      	ldr	r3, [pc, #28]	; (8001974 <BSP_LCD_GLASS_DisplayChar+0x5c8>)
 8001956:	68db      	ldr	r3, [r3, #12]
 8001958:	08db      	lsrs	r3, r3, #3
 800195a:	04db      	lsls	r3, r3, #19
 800195c:	f403 2300 	and.w	r3, r3, #524288	; 0x80000
 8001960:	4313      	orrs	r3, r2
 8001962:	60fb      	str	r3, [r7, #12]
      HAL_LCD_Write(&LCDHandle, LCD_DIGIT5_COM3_1, LCD_DIGIT5_COM3_1_SEG_MASK, data) ; /* 5H 5J 5N */
 8001964:	68fb      	ldr	r3, [r7, #12]
 8001966:	f46f 2201 	mvn.w	r2, #528384	; 0x81000
 800196a:	2106      	movs	r1, #6
 800196c:	4803      	ldr	r0, [pc, #12]	; (800197c <BSP_LCD_GLASS_DisplayChar+0x5d0>)
 800196e:	f001 fb95 	bl	800309c <HAL_LCD_Write>
      break;
 8001972:	e08d      	b.n	8001a90 <BSP_LCD_GLASS_DisplayChar+0x6e4>
 8001974:	20000248 	.word	0x20000248
 8001978:	ffdffbff 	.word	0xffdffbff
 800197c:	2000020c 	.word	0x2000020c
 8001980:	ffeff7ff 	.word	0xffeff7ff
    
    /* Position 6 on LCD (Digit6)*/
    case LCD_DIGIT_POSITION_6:
      data = ((Digit[0] & 0x1) << LCD_SEG10_SHIFT) | (((Digit[0] & 0x2) >> 1) << LCD_SEG11_SHIFT)
 8001984:	4b46      	ldr	r3, [pc, #280]	; (8001aa0 <BSP_LCD_GLASS_DisplayChar+0x6f4>)
 8001986:	681b      	ldr	r3, [r3, #0]
 8001988:	039b      	lsls	r3, r3, #14
 800198a:	f403 4280 	and.w	r2, r3, #16384	; 0x4000
 800198e:	4b44      	ldr	r3, [pc, #272]	; (8001aa0 <BSP_LCD_GLASS_DisplayChar+0x6f4>)
 8001990:	681b      	ldr	r3, [r3, #0]
 8001992:	085b      	lsrs	r3, r3, #1
 8001994:	03db      	lsls	r3, r3, #15
 8001996:	b29b      	uxth	r3, r3
 8001998:	431a      	orrs	r2, r3
          | (((Digit[0] & 0x4) >> 2) << LCD_SEG12_SHIFT) | (((Digit[0] & 0x8) >> 3) << LCD_SEG13_SHIFT);
 800199a:	4b41      	ldr	r3, [pc, #260]	; (8001aa0 <BSP_LCD_GLASS_DisplayChar+0x6f4>)
 800199c:	681b      	ldr	r3, [r3, #0]
 800199e:	089b      	lsrs	r3, r3, #2
 80019a0:	045b      	lsls	r3, r3, #17
 80019a2:	f403 3300 	and.w	r3, r3, #131072	; 0x20000
 80019a6:	431a      	orrs	r2, r3
 80019a8:	4b3d      	ldr	r3, [pc, #244]	; (8001aa0 <BSP_LCD_GLASS_DisplayChar+0x6f4>)
 80019aa:	681b      	ldr	r3, [r3, #0]
 80019ac:	08db      	lsrs	r3, r3, #3
 80019ae:	041b      	lsls	r3, r3, #16
 80019b0:	f403 3380 	and.w	r3, r3, #65536	; 0x10000
      data = ((Digit[0] & 0x1) << LCD_SEG10_SHIFT) | (((Digit[0] & 0x2) >> 1) << LCD_SEG11_SHIFT)
 80019b4:	4313      	orrs	r3, r2
 80019b6:	60fb      	str	r3, [r7, #12]
      HAL_LCD_Write(&LCDHandle, LCD_DIGIT6_COM0, LCD_DIGIT6_COM0_SEG_MASK, data); /* 6G 6B 6M 6E */
 80019b8:	68fb      	ldr	r3, [r7, #12]
 80019ba:	f46f 3270 	mvn.w	r2, #245760	; 0x3c000
 80019be:	2100      	movs	r1, #0
 80019c0:	4838      	ldr	r0, [pc, #224]	; (8001aa4 <BSP_LCD_GLASS_DisplayChar+0x6f8>)
 80019c2:	f001 fb6b 	bl	800309c <HAL_LCD_Write>
      
      data = ((Digit[1] & 0x1) << LCD_SEG10_SHIFT) | (((Digit[1] & 0x2) >> 1) << LCD_SEG11_SHIFT)
 80019c6:	4b36      	ldr	r3, [pc, #216]	; (8001aa0 <BSP_LCD_GLASS_DisplayChar+0x6f4>)
 80019c8:	685b      	ldr	r3, [r3, #4]
 80019ca:	039b      	lsls	r3, r3, #14
 80019cc:	f403 4280 	and.w	r2, r3, #16384	; 0x4000
 80019d0:	4b33      	ldr	r3, [pc, #204]	; (8001aa0 <BSP_LCD_GLASS_DisplayChar+0x6f4>)
 80019d2:	685b      	ldr	r3, [r3, #4]
 80019d4:	085b      	lsrs	r3, r3, #1
 80019d6:	03db      	lsls	r3, r3, #15
 80019d8:	b29b      	uxth	r3, r3
 80019da:	431a      	orrs	r2, r3
          | (((Digit[1] & 0x4) >> 2) << LCD_SEG12_SHIFT) | (((Digit[1] & 0x8) >> 3) << LCD_SEG13_SHIFT);
 80019dc:	4b30      	ldr	r3, [pc, #192]	; (8001aa0 <BSP_LCD_GLASS_DisplayChar+0x6f4>)
 80019de:	685b      	ldr	r3, [r3, #4]
 80019e0:	089b      	lsrs	r3, r3, #2
 80019e2:	045b      	lsls	r3, r3, #17
 80019e4:	f403 3300 	and.w	r3, r3, #131072	; 0x20000
 80019e8:	431a      	orrs	r2, r3
 80019ea:	4b2d      	ldr	r3, [pc, #180]	; (8001aa0 <BSP_LCD_GLASS_DisplayChar+0x6f4>)
 80019ec:	685b      	ldr	r3, [r3, #4]
 80019ee:	08db      	lsrs	r3, r3, #3
 80019f0:	041b      	lsls	r3, r3, #16
 80019f2:	f403 3380 	and.w	r3, r3, #65536	; 0x10000
      data = ((Digit[1] & 0x1) << LCD_SEG10_SHIFT) | (((Digit[1] & 0x2) >> 1) << LCD_SEG11_SHIFT)
 80019f6:	4313      	orrs	r3, r2
 80019f8:	60fb      	str	r3, [r7, #12]
      HAL_LCD_Write(&LCDHandle, LCD_DIGIT6_COM1, LCD_DIGIT6_COM1_SEG_MASK, data) ; /* 6G 6B 6M 6E */
 80019fa:	68fb      	ldr	r3, [r7, #12]
 80019fc:	f46f 3270 	mvn.w	r2, #245760	; 0x3c000
 8001a00:	2102      	movs	r1, #2
 8001a02:	4828      	ldr	r0, [pc, #160]	; (8001aa4 <BSP_LCD_GLASS_DisplayChar+0x6f8>)
 8001a04:	f001 fb4a 	bl	800309c <HAL_LCD_Write>
      
      data = ((Digit[2] & 0x1) << LCD_SEG10_SHIFT) | (((Digit[2] & 0x2) >> 1) << LCD_SEG11_SHIFT)
 8001a08:	4b25      	ldr	r3, [pc, #148]	; (8001aa0 <BSP_LCD_GLASS_DisplayChar+0x6f4>)
 8001a0a:	689b      	ldr	r3, [r3, #8]
 8001a0c:	039b      	lsls	r3, r3, #14
 8001a0e:	f403 4280 	and.w	r2, r3, #16384	; 0x4000
 8001a12:	4b23      	ldr	r3, [pc, #140]	; (8001aa0 <BSP_LCD_GLASS_DisplayChar+0x6f4>)
 8001a14:	689b      	ldr	r3, [r3, #8]
 8001a16:	085b      	lsrs	r3, r3, #1
 8001a18:	03db      	lsls	r3, r3, #15
 8001a1a:	b29b      	uxth	r3, r3
 8001a1c:	431a      	orrs	r2, r3
          | (((Digit[2] & 0x4) >> 2) << LCD_SEG12_SHIFT) | (((Digit[2] & 0x8) >> 3) << LCD_SEG13_SHIFT);
 8001a1e:	4b20      	ldr	r3, [pc, #128]	; (8001aa0 <BSP_LCD_GLASS_DisplayChar+0x6f4>)
 8001a20:	689b      	ldr	r3, [r3, #8]
 8001a22:	089b      	lsrs	r3, r3, #2
 8001a24:	045b      	lsls	r3, r3, #17
 8001a26:	f403 3300 	and.w	r3, r3, #131072	; 0x20000
 8001a2a:	431a      	orrs	r2, r3
 8001a2c:	4b1c      	ldr	r3, [pc, #112]	; (8001aa0 <BSP_LCD_GLASS_DisplayChar+0x6f4>)
 8001a2e:	689b      	ldr	r3, [r3, #8]
 8001a30:	08db      	lsrs	r3, r3, #3
 8001a32:	041b      	lsls	r3, r3, #16
 8001a34:	f403 3380 	and.w	r3, r3, #65536	; 0x10000
      data = ((Digit[2] & 0x1) << LCD_SEG10_SHIFT) | (((Digit[2] & 0x2) >> 1) << LCD_SEG11_SHIFT)
 8001a38:	4313      	orrs	r3, r2
 8001a3a:	60fb      	str	r3, [r7, #12]
      HAL_LCD_Write(&LCDHandle, LCD_DIGIT6_COM2, LCD_DIGIT6_COM2_SEG_MASK, data) ; /* 6Q 6K 6P */
 8001a3c:	68fb      	ldr	r3, [r7, #12]
 8001a3e:	f46f 3270 	mvn.w	r2, #245760	; 0x3c000
 8001a42:	2104      	movs	r1, #4
 8001a44:	4817      	ldr	r0, [pc, #92]	; (8001aa4 <BSP_LCD_GLASS_DisplayChar+0x6f8>)
 8001a46:	f001 fb29 	bl	800309c <HAL_LCD_Write>
      
      data = ((Digit[3] & 0x1) << LCD_SEG10_SHIFT) | (((Digit[3] & 0x2) >> 1) << LCD_SEG11_SHIFT)
 8001a4a:	4b15      	ldr	r3, [pc, #84]	; (8001aa0 <BSP_LCD_GLASS_DisplayChar+0x6f4>)
 8001a4c:	68db      	ldr	r3, [r3, #12]
 8001a4e:	039b      	lsls	r3, r3, #14
 8001a50:	f403 4280 	and.w	r2, r3, #16384	; 0x4000
 8001a54:	4b12      	ldr	r3, [pc, #72]	; (8001aa0 <BSP_LCD_GLASS_DisplayChar+0x6f4>)
 8001a56:	68db      	ldr	r3, [r3, #12]
 8001a58:	085b      	lsrs	r3, r3, #1
 8001a5a:	03db      	lsls	r3, r3, #15
 8001a5c:	b29b      	uxth	r3, r3
 8001a5e:	431a      	orrs	r2, r3
          | (((Digit[3] & 0x4) >> 2) << LCD_SEG12_SHIFT) | (((Digit[3] & 0x8) >> 3) << LCD_SEG13_SHIFT);
 8001a60:	4b0f      	ldr	r3, [pc, #60]	; (8001aa0 <BSP_LCD_GLASS_DisplayChar+0x6f4>)
 8001a62:	68db      	ldr	r3, [r3, #12]
 8001a64:	089b      	lsrs	r3, r3, #2
 8001a66:	045b      	lsls	r3, r3, #17
 8001a68:	f403 3300 	and.w	r3, r3, #131072	; 0x20000
 8001a6c:	431a      	orrs	r2, r3
 8001a6e:	4b0c      	ldr	r3, [pc, #48]	; (8001aa0 <BSP_LCD_GLASS_DisplayChar+0x6f4>)
 8001a70:	68db      	ldr	r3, [r3, #12]
 8001a72:	08db      	lsrs	r3, r3, #3
 8001a74:	041b      	lsls	r3, r3, #16
 8001a76:	f403 3380 	and.w	r3, r3, #65536	; 0x10000
      data = ((Digit[3] & 0x1) << LCD_SEG10_SHIFT) | (((Digit[3] & 0x2) >> 1) << LCD_SEG11_SHIFT)
 8001a7a:	4313      	orrs	r3, r2
 8001a7c:	60fb      	str	r3, [r7, #12]
      HAL_LCD_Write(&LCDHandle, LCD_DIGIT6_COM3, LCD_DIGIT6_COM3_SEG_MASK, data) ; /* 6Q 6K 6P */
 8001a7e:	68fb      	ldr	r3, [r7, #12]
 8001a80:	f46f 3270 	mvn.w	r2, #245760	; 0x3c000
 8001a84:	2106      	movs	r1, #6
 8001a86:	4807      	ldr	r0, [pc, #28]	; (8001aa4 <BSP_LCD_GLASS_DisplayChar+0x6f8>)
 8001a88:	f001 fb08 	bl	800309c <HAL_LCD_Write>
      break;
 8001a8c:	e000      	b.n	8001a90 <BSP_LCD_GLASS_DisplayChar+0x6e4>
    
     default:
      break;
 8001a8e:	bf00      	nop
  }

  /* Update the LCD display */
  HAL_LCD_UpdateDisplayRequest(&LCDHandle);
 8001a90:	4804      	ldr	r0, [pc, #16]	; (8001aa4 <BSP_LCD_GLASS_DisplayChar+0x6f8>)
 8001a92:	f001 fbbc 	bl	800320e <HAL_LCD_UpdateDisplayRequest>
}
 8001a96:	bf00      	nop
 8001a98:	3710      	adds	r7, #16
 8001a9a:	46bd      	mov	sp, r7
 8001a9c:	bd80      	pop	{r7, pc}
 8001a9e:	bf00      	nop
 8001aa0:	20000248 	.word	0x20000248
 8001aa4:	2000020c 	.word	0x2000020c

08001aa8 <BSP_LCD_GLASS_DisplayString>:
  * @brief  This function writes a char in the LCD RAM.
  * @param  ptr: Pointer to string to display on the LCD Glass.
  * @retval None
  */
void BSP_LCD_GLASS_DisplayString(uint8_t* ptr)
{
 8001aa8:	b580      	push	{r7, lr}
 8001aaa:	b084      	sub	sp, #16
 8001aac:	af00      	add	r7, sp, #0
 8001aae:	6078      	str	r0, [r7, #4]
  DigitPosition_Typedef position = LCD_DIGIT_POSITION_1;
 8001ab0:	2301      	movs	r3, #1
 8001ab2:	73fb      	strb	r3, [r7, #15]

  /* Send the string character by character on lCD */
  while ((*ptr != 0) & (position <= LCD_DIGIT_POSITION_6))
 8001ab4:	e00b      	b.n	8001ace <BSP_LCD_GLASS_DisplayString+0x26>
  {
    /* Display one character on LCD */
    BSP_LCD_GLASS_WriteChar(ptr, POINT_OFF, DOUBLEPOINT_OFF, position);
 8001ab6:	7bfb      	ldrb	r3, [r7, #15]
 8001ab8:	2200      	movs	r2, #0
 8001aba:	2100      	movs	r1, #0
 8001abc:	6878      	ldr	r0, [r7, #4]
 8001abe:	f7ff fc57 	bl	8001370 <BSP_LCD_GLASS_WriteChar>

    /* Point on the next character */
    ptr++;
 8001ac2:	687b      	ldr	r3, [r7, #4]
 8001ac4:	3301      	adds	r3, #1
 8001ac6:	607b      	str	r3, [r7, #4]

    /* Increment the character counter */
    position++;
 8001ac8:	7bfb      	ldrb	r3, [r7, #15]
 8001aca:	3301      	adds	r3, #1
 8001acc:	73fb      	strb	r3, [r7, #15]
  while ((*ptr != 0) & (position <= LCD_DIGIT_POSITION_6))
 8001ace:	687b      	ldr	r3, [r7, #4]
 8001ad0:	781b      	ldrb	r3, [r3, #0]
 8001ad2:	2b00      	cmp	r3, #0
 8001ad4:	bf14      	ite	ne
 8001ad6:	2301      	movne	r3, #1
 8001ad8:	2300      	moveq	r3, #0
 8001ada:	b2da      	uxtb	r2, r3
 8001adc:	7bfb      	ldrb	r3, [r7, #15]
 8001ade:	2b06      	cmp	r3, #6
 8001ae0:	bf94      	ite	ls
 8001ae2:	2301      	movls	r3, #1
 8001ae4:	2300      	movhi	r3, #0
 8001ae6:	b2db      	uxtb	r3, r3
 8001ae8:	4013      	ands	r3, r2
 8001aea:	b2db      	uxtb	r3, r3
 8001aec:	2b00      	cmp	r3, #0
 8001aee:	d1e2      	bne.n	8001ab6 <BSP_LCD_GLASS_DisplayString+0xe>
  }
}
 8001af0:	bf00      	nop
 8001af2:	bf00      	nop
 8001af4:	3710      	adds	r7, #16
 8001af6:	46bd      	mov	sp, r7
 8001af8:	bd80      	pop	{r7, pc}
	...

08001afc <BSP_LCD_GLASS_Clear>:
/**
  * @brief  This function Clear the whole LCD RAM.
  * @retval None
  */
void BSP_LCD_GLASS_Clear(void)
{
 8001afc:	b580      	push	{r7, lr}
 8001afe:	af00      	add	r7, sp, #0
  HAL_LCD_Clear(&LCDHandle); 
 8001b00:	4802      	ldr	r0, [pc, #8]	; (8001b0c <BSP_LCD_GLASS_Clear+0x10>)
 8001b02:	f001 fb2a 	bl	800315a <HAL_LCD_Clear>
}
 8001b06:	bf00      	nop
 8001b08:	bd80      	pop	{r7, pc}
 8001b0a:	bf00      	nop
 8001b0c:	2000020c 	.word	0x2000020c

08001b10 <LCD_MspInit>:
  * @brief  LCD MSP Init.
  * @param  hlcd: LCD handle
  * @retval None
  */
static void LCD_MspInit(LCD_HandleTypeDef *hlcd)
{
 8001b10:	b580      	push	{r7, lr}
 8001b12:	b09c      	sub	sp, #112	; 0x70
 8001b14:	af00      	add	r7, sp, #0
 8001b16:	6078      	str	r0, [r7, #4]
  GPIO_InitTypeDef  gpioinitstruct = {0};
 8001b18:	f107 035c 	add.w	r3, r7, #92	; 0x5c
 8001b1c:	2200      	movs	r2, #0
 8001b1e:	601a      	str	r2, [r3, #0]
 8001b20:	605a      	str	r2, [r3, #4]
 8001b22:	609a      	str	r2, [r3, #8]
 8001b24:	60da      	str	r2, [r3, #12]
 8001b26:	611a      	str	r2, [r3, #16]
  RCC_OscInitTypeDef oscinitstruct = {0};
 8001b28:	f107 0328 	add.w	r3, r7, #40	; 0x28
 8001b2c:	2234      	movs	r2, #52	; 0x34
 8001b2e:	2100      	movs	r1, #0
 8001b30:	4618      	mov	r0, r3
 8001b32:	f002 fd1d 	bl	8004570 <memset>
  RCC_PeriphCLKInitTypeDef periphclkstruct = {0};
 8001b36:	f107 031c 	add.w	r3, r7, #28
 8001b3a:	2200      	movs	r2, #0
 8001b3c:	601a      	str	r2, [r3, #0]
 8001b3e:	605a      	str	r2, [r3, #4]
 8001b40:	609a      	str	r2, [r3, #8]
  
  /*##-1- Enable PWR  peripheral Clock #######################################*/
  __HAL_RCC_PWR_CLK_ENABLE();
 8001b42:	4b3f      	ldr	r3, [pc, #252]	; (8001c40 <LCD_MspInit+0x130>)
 8001b44:	6a5b      	ldr	r3, [r3, #36]	; 0x24
 8001b46:	4a3e      	ldr	r2, [pc, #248]	; (8001c40 <LCD_MspInit+0x130>)
 8001b48:	f043 5380 	orr.w	r3, r3, #268435456	; 0x10000000
 8001b4c:	6253      	str	r3, [r2, #36]	; 0x24
 8001b4e:	4b3c      	ldr	r3, [pc, #240]	; (8001c40 <LCD_MspInit+0x130>)
 8001b50:	6a5b      	ldr	r3, [r3, #36]	; 0x24
 8001b52:	f003 5380 	and.w	r3, r3, #268435456	; 0x10000000
 8001b56:	61bb      	str	r3, [r7, #24]
 8001b58:	69bb      	ldr	r3, [r7, #24]
  
  /*##-2- Configue LSE as RTC clock soucre ###################################*/ 
  oscinitstruct.OscillatorType  = RCC_OSCILLATORTYPE_LSE;
 8001b5a:	2304      	movs	r3, #4
 8001b5c:	62bb      	str	r3, [r7, #40]	; 0x28
  oscinitstruct.PLL.PLLState    = RCC_PLL_NONE;
 8001b5e:	2300      	movs	r3, #0
 8001b60:	64fb      	str	r3, [r7, #76]	; 0x4c
  oscinitstruct.LSEState        = RCC_LSE_ON;
 8001b62:	2301      	movs	r3, #1
 8001b64:	633b      	str	r3, [r7, #48]	; 0x30
  if(HAL_RCC_OscConfig(&oscinitstruct) != HAL_OK)
 8001b66:	f107 0328 	add.w	r3, r7, #40	; 0x28
 8001b6a:	4618      	mov	r0, r3
 8001b6c:	f001 fbae 	bl	80032cc <HAL_RCC_OscConfig>
 8001b70:	4603      	mov	r3, r0
 8001b72:	2b00      	cmp	r3, #0
 8001b74:	d000      	beq.n	8001b78 <LCD_MspInit+0x68>
  { 
    while(1);
 8001b76:	e7fe      	b.n	8001b76 <LCD_MspInit+0x66>
  }
  
  /*##-3- select LSE as RTC clock source.##########################*/
  /* Backup domain management is done in RCC function */
  periphclkstruct.PeriphClockSelection = RCC_PERIPHCLK_RTC;
 8001b78:	2301      	movs	r3, #1
 8001b7a:	61fb      	str	r3, [r7, #28]
  periphclkstruct.RTCClockSelection = RCC_RTCCLKSOURCE_LSE;
 8001b7c:	f44f 3380 	mov.w	r3, #65536	; 0x10000
 8001b80:	623b      	str	r3, [r7, #32]
  HAL_RCCEx_PeriphCLKConfig(&periphclkstruct);
 8001b82:	f107 031c 	add.w	r3, r7, #28
 8001b86:	4618      	mov	r0, r3
 8001b88:	f002 f964 	bl	8003e54 <HAL_RCCEx_PeriphCLKConfig>

  /*##-4- Enable LCD GPIO Clocks #############################################*/
  __HAL_RCC_GPIOA_CLK_ENABLE();
 8001b8c:	4b2c      	ldr	r3, [pc, #176]	; (8001c40 <LCD_MspInit+0x130>)
 8001b8e:	69db      	ldr	r3, [r3, #28]
 8001b90:	4a2b      	ldr	r2, [pc, #172]	; (8001c40 <LCD_MspInit+0x130>)
 8001b92:	f043 0301 	orr.w	r3, r3, #1
 8001b96:	61d3      	str	r3, [r2, #28]
 8001b98:	4b29      	ldr	r3, [pc, #164]	; (8001c40 <LCD_MspInit+0x130>)
 8001b9a:	69db      	ldr	r3, [r3, #28]
 8001b9c:	f003 0301 	and.w	r3, r3, #1
 8001ba0:	617b      	str	r3, [r7, #20]
 8001ba2:	697b      	ldr	r3, [r7, #20]
  __HAL_RCC_GPIOB_CLK_ENABLE();
 8001ba4:	4b26      	ldr	r3, [pc, #152]	; (8001c40 <LCD_MspInit+0x130>)
 8001ba6:	69db      	ldr	r3, [r3, #28]
 8001ba8:	4a25      	ldr	r2, [pc, #148]	; (8001c40 <LCD_MspInit+0x130>)
 8001baa:	f043 0302 	orr.w	r3, r3, #2
 8001bae:	61d3      	str	r3, [r2, #28]
 8001bb0:	4b23      	ldr	r3, [pc, #140]	; (8001c40 <LCD_MspInit+0x130>)
 8001bb2:	69db      	ldr	r3, [r3, #28]
 8001bb4:	f003 0302 	and.w	r3, r3, #2
 8001bb8:	613b      	str	r3, [r7, #16]
 8001bba:	693b      	ldr	r3, [r7, #16]
  __HAL_RCC_GPIOC_CLK_ENABLE();
 8001bbc:	4b20      	ldr	r3, [pc, #128]	; (8001c40 <LCD_MspInit+0x130>)
 8001bbe:	69db      	ldr	r3, [r3, #28]
 8001bc0:	4a1f      	ldr	r2, [pc, #124]	; (8001c40 <LCD_MspInit+0x130>)
 8001bc2:	f043 0304 	orr.w	r3, r3, #4
 8001bc6:	61d3      	str	r3, [r2, #28]
 8001bc8:	4b1d      	ldr	r3, [pc, #116]	; (8001c40 <LCD_MspInit+0x130>)
 8001bca:	69db      	ldr	r3, [r3, #28]
 8001bcc:	f003 0304 	and.w	r3, r3, #4
 8001bd0:	60fb      	str	r3, [r7, #12]
 8001bd2:	68fb      	ldr	r3, [r7, #12]
  
  /*##-5- Configure peripheral GPIO ##########################################*/
  /* Configure Output for LCD */
  /* Port A */
  gpioinitstruct.Pin        = LCD_GPIO_BANKA_PINS;
 8001bd4:	f248 730e 	movw	r3, #34574	; 0x870e
 8001bd8:	65fb      	str	r3, [r7, #92]	; 0x5c
  gpioinitstruct.Mode       = GPIO_MODE_AF_PP;
 8001bda:	2302      	movs	r3, #2
 8001bdc:	663b      	str	r3, [r7, #96]	; 0x60
  gpioinitstruct.Pull       = GPIO_NOPULL;
 8001bde:	2300      	movs	r3, #0
 8001be0:	667b      	str	r3, [r7, #100]	; 0x64
  gpioinitstruct.Speed      = GPIO_SPEED_FREQ_VERY_HIGH;
 8001be2:	2303      	movs	r3, #3
 8001be4:	66bb      	str	r3, [r7, #104]	; 0x68
  gpioinitstruct.Alternate  = GPIO_AF11_LCD;
 8001be6:	230b      	movs	r3, #11
 8001be8:	66fb      	str	r3, [r7, #108]	; 0x6c
  HAL_GPIO_Init(GPIOA, &gpioinitstruct);
 8001bea:	f107 035c 	add.w	r3, r7, #92	; 0x5c
 8001bee:	4619      	mov	r1, r3
 8001bf0:	4814      	ldr	r0, [pc, #80]	; (8001c44 <LCD_MspInit+0x134>)
 8001bf2:	f001 f817 	bl	8002c24 <HAL_GPIO_Init>

  /* Port B */
  gpioinitstruct.Pin        = LCD_GPIO_BANKB_PINS;
 8001bf6:	f64f 7338 	movw	r3, #65336	; 0xff38
 8001bfa:	65fb      	str	r3, [r7, #92]	; 0x5c
  HAL_GPIO_Init(GPIOB, &gpioinitstruct);
 8001bfc:	f107 035c 	add.w	r3, r7, #92	; 0x5c
 8001c00:	4619      	mov	r1, r3
 8001c02:	4811      	ldr	r0, [pc, #68]	; (8001c48 <LCD_MspInit+0x138>)
 8001c04:	f001 f80e 	bl	8002c24 <HAL_GPIO_Init>
  
  /* Port C*/
  gpioinitstruct.Pin        = LCD_GPIO_BANKC_PINS;
 8001c08:	f640 73cf 	movw	r3, #4047	; 0xfcf
 8001c0c:	65fb      	str	r3, [r7, #92]	; 0x5c
  HAL_GPIO_Init(GPIOC, &gpioinitstruct);
 8001c0e:	f107 035c 	add.w	r3, r7, #92	; 0x5c
 8001c12:	4619      	mov	r1, r3
 8001c14:	480d      	ldr	r0, [pc, #52]	; (8001c4c <LCD_MspInit+0x13c>)
 8001c16:	f001 f805 	bl	8002c24 <HAL_GPIO_Init>

  /* Wait for the external capacitor Cext which is connected to the VLCD pin is charged
  (approximately 2ms for Cext=1uF) */
  HAL_Delay(2);
 8001c1a:	2002      	movs	r0, #2
 8001c1c:	f000 fc66 	bl	80024ec <HAL_Delay>

  /*##-6- Enable LCD peripheral Clock ########################################*/
  __HAL_RCC_LCD_CLK_ENABLE();
 8001c20:	4b07      	ldr	r3, [pc, #28]	; (8001c40 <LCD_MspInit+0x130>)
 8001c22:	6a5b      	ldr	r3, [r3, #36]	; 0x24
 8001c24:	4a06      	ldr	r2, [pc, #24]	; (8001c40 <LCD_MspInit+0x130>)
 8001c26:	f443 7300 	orr.w	r3, r3, #512	; 0x200
 8001c2a:	6253      	str	r3, [r2, #36]	; 0x24
 8001c2c:	4b04      	ldr	r3, [pc, #16]	; (8001c40 <LCD_MspInit+0x130>)
 8001c2e:	6a5b      	ldr	r3, [r3, #36]	; 0x24
 8001c30:	f403 7300 	and.w	r3, r3, #512	; 0x200
 8001c34:	60bb      	str	r3, [r7, #8]
 8001c36:	68bb      	ldr	r3, [r7, #8]
}
 8001c38:	bf00      	nop
 8001c3a:	3770      	adds	r7, #112	; 0x70
 8001c3c:	46bd      	mov	sp, r7
 8001c3e:	bd80      	pop	{r7, pc}
 8001c40:	40023800 	.word	0x40023800
 8001c44:	40020000 	.word	0x40020000
 8001c48:	40020400 	.word	0x40020400
 8001c4c:	40020800 	.word	0x40020800

08001c50 <Convert>:
  *         of displayed character.
  *         This parameter can be: DOUBLEPOINT_OFF or DOUBLEPOINT_ON.
  * @retval None
  */
static void Convert(uint8_t* Char, Point_Typedef Point, DoublePoint_Typedef DoublePoint)
{
 8001c50:	b480      	push	{r7}
 8001c52:	b085      	sub	sp, #20
 8001c54:	af00      	add	r7, sp, #0
 8001c56:	6078      	str	r0, [r7, #4]
 8001c58:	460b      	mov	r3, r1
 8001c5a:	70fb      	strb	r3, [r7, #3]
 8001c5c:	4613      	mov	r3, r2
 8001c5e:	70bb      	strb	r3, [r7, #2]
  uint16_t ch = 0 ;
 8001c60:	2300      	movs	r3, #0
 8001c62:	81fb      	strh	r3, [r7, #14]
  uint8_t loop = 0, index = 0;
 8001c64:	2300      	movs	r3, #0
 8001c66:	737b      	strb	r3, [r7, #13]
 8001c68:	2300      	movs	r3, #0
 8001c6a:	733b      	strb	r3, [r7, #12]
  
  switch (*Char)
 8001c6c:	687b      	ldr	r3, [r7, #4]
 8001c6e:	781b      	ldrb	r3, [r3, #0]
 8001c70:	2bff      	cmp	r3, #255	; 0xff
 8001c72:	f000 80e0 	beq.w	8001e36 <Convert+0x1e6>
 8001c76:	2bff      	cmp	r3, #255	; 0xff
 8001c78:	f300 80e9 	bgt.w	8001e4e <Convert+0x1fe>
 8001c7c:	2bb5      	cmp	r3, #181	; 0xb5
 8001c7e:	f000 80c7 	beq.w	8001e10 <Convert+0x1c0>
 8001c82:	2bb5      	cmp	r3, #181	; 0xb5
 8001c84:	f300 80e3 	bgt.w	8001e4e <Convert+0x1fe>
 8001c88:	2b6e      	cmp	r3, #110	; 0x6e
 8001c8a:	f300 80a9 	bgt.w	8001de0 <Convert+0x190>
 8001c8e:	2b20      	cmp	r3, #32
 8001c90:	f2c0 80dd 	blt.w	8001e4e <Convert+0x1fe>
 8001c94:	3b20      	subs	r3, #32
 8001c96:	2b4e      	cmp	r3, #78	; 0x4e
 8001c98:	f200 80d9 	bhi.w	8001e4e <Convert+0x1fe>
 8001c9c:	a201      	add	r2, pc, #4	; (adr r2, 8001ca4 <Convert+0x54>)
 8001c9e:	f852 f023 	ldr.w	pc, [r2, r3, lsl #2]
 8001ca2:	bf00      	nop
 8001ca4:	08001de7 	.word	0x08001de7
 8001ca8:	08001e4f 	.word	0x08001e4f
 8001cac:	08001e4f 	.word	0x08001e4f
 8001cb0:	08001e4f 	.word	0x08001e4f
 8001cb4:	08001e4f 	.word	0x08001e4f
 8001cb8:	08001e2f 	.word	0x08001e2f
 8001cbc:	08001e4f 	.word	0x08001e4f
 8001cc0:	08001e4f 	.word	0x08001e4f
 8001cc4:	08001df5 	.word	0x08001df5
 8001cc8:	08001dfb 	.word	0x08001dfb
 8001ccc:	08001ded 	.word	0x08001ded
 8001cd0:	08001e4f 	.word	0x08001e4f
 8001cd4:	08001e4f 	.word	0x08001e4f
 8001cd8:	08001e19 	.word	0x08001e19
 8001cdc:	08001e4f 	.word	0x08001e4f
 8001ce0:	08001e21 	.word	0x08001e21
 8001ce4:	08001e3f 	.word	0x08001e3f
 8001ce8:	08001e3f 	.word	0x08001e3f
 8001cec:	08001e3f 	.word	0x08001e3f
 8001cf0:	08001e3f 	.word	0x08001e3f
 8001cf4:	08001e3f 	.word	0x08001e3f
 8001cf8:	08001e3f 	.word	0x08001e3f
 8001cfc:	08001e3f 	.word	0x08001e3f
 8001d00:	08001e3f 	.word	0x08001e3f
 8001d04:	08001e3f 	.word	0x08001e3f
 8001d08:	08001e3f 	.word	0x08001e3f
 8001d0c:	08001e4f 	.word	0x08001e4f
 8001d10:	08001e4f 	.word	0x08001e4f
 8001d14:	08001e4f 	.word	0x08001e4f
 8001d18:	08001e4f 	.word	0x08001e4f
 8001d1c:	08001e4f 	.word	0x08001e4f
 8001d20:	08001e4f 	.word	0x08001e4f
 8001d24:	08001e4f 	.word	0x08001e4f
 8001d28:	08001e4f 	.word	0x08001e4f
 8001d2c:	08001e4f 	.word	0x08001e4f
 8001d30:	08001e4f 	.word	0x08001e4f
 8001d34:	08001e4f 	.word	0x08001e4f
 8001d38:	08001e4f 	.word	0x08001e4f
 8001d3c:	08001e4f 	.word	0x08001e4f
 8001d40:	08001e4f 	.word	0x08001e4f
 8001d44:	08001e4f 	.word	0x08001e4f
 8001d48:	08001e4f 	.word	0x08001e4f
 8001d4c:	08001e4f 	.word	0x08001e4f
 8001d50:	08001e4f 	.word	0x08001e4f
 8001d54:	08001e4f 	.word	0x08001e4f
 8001d58:	08001e4f 	.word	0x08001e4f
 8001d5c:	08001e4f 	.word	0x08001e4f
 8001d60:	08001e4f 	.word	0x08001e4f
 8001d64:	08001e4f 	.word	0x08001e4f
 8001d68:	08001e4f 	.word	0x08001e4f
 8001d6c:	08001e4f 	.word	0x08001e4f
 8001d70:	08001e4f 	.word	0x08001e4f
 8001d74:	08001e4f 	.word	0x08001e4f
 8001d78:	08001e4f 	.word	0x08001e4f
 8001d7c:	08001e4f 	.word	0x08001e4f
 8001d80:	08001e4f 	.word	0x08001e4f
 8001d84:	08001e4f 	.word	0x08001e4f
 8001d88:	08001e4f 	.word	0x08001e4f
 8001d8c:	08001e4f 	.word	0x08001e4f
 8001d90:	08001e4f 	.word	0x08001e4f
 8001d94:	08001e4f 	.word	0x08001e4f
 8001d98:	08001e4f 	.word	0x08001e4f
 8001d9c:	08001e4f 	.word	0x08001e4f
 8001da0:	08001e4f 	.word	0x08001e4f
 8001da4:	08001e4f 	.word	0x08001e4f
 8001da8:	08001e4f 	.word	0x08001e4f
 8001dac:	08001e4f 	.word	0x08001e4f
 8001db0:	08001e4f 	.word	0x08001e4f
 8001db4:	08001e4f 	.word	0x08001e4f
 8001db8:	08001e4f 	.word	0x08001e4f
 8001dbc:	08001e4f 	.word	0x08001e4f
 8001dc0:	08001e4f 	.word	0x08001e4f
 8001dc4:	08001e4f 	.word	0x08001e4f
 8001dc8:	08001e4f 	.word	0x08001e4f
 8001dcc:	08001e4f 	.word	0x08001e4f
 8001dd0:	08001e4f 	.word	0x08001e4f
 8001dd4:	08001e4f 	.word	0x08001e4f
 8001dd8:	08001e01 	.word	0x08001e01
 8001ddc:	08001e09 	.word	0x08001e09
 8001de0:	2bb0      	cmp	r3, #176	; 0xb0
 8001de2:	d020      	beq.n	8001e26 <Convert+0x1d6>
 8001de4:	e033      	b.n	8001e4e <Convert+0x1fe>
    {
    case ' ' :
      ch = 0x00;
 8001de6:	2300      	movs	r3, #0
 8001de8:	81fb      	strh	r3, [r7, #14]
      break;
 8001dea:	e04f      	b.n	8001e8c <Convert+0x23c>

    case '*':
      ch = C_STAR;
 8001dec:	f24a 03dd 	movw	r3, #41181	; 0xa0dd
 8001df0:	81fb      	strh	r3, [r7, #14]
      break;
 8001df2:	e04b      	b.n	8001e8c <Convert+0x23c>

    case '(' :
      ch = C_OPENPARMAP;
 8001df4:	2328      	movs	r3, #40	; 0x28
 8001df6:	81fb      	strh	r3, [r7, #14]
      break;
 8001df8:	e048      	b.n	8001e8c <Convert+0x23c>

    case ')' :
      ch = C_CLOSEPARMAP;
 8001dfa:	2311      	movs	r3, #17
 8001dfc:	81fb      	strh	r3, [r7, #14]
      break;
 8001dfe:	e045      	b.n	8001e8c <Convert+0x23c>
      
    case 'm' :
      ch = C_MMAP;
 8001e00:	f24b 2310 	movw	r3, #45584	; 0xb210
 8001e04:	81fb      	strh	r3, [r7, #14]
      break;
 8001e06:	e041      	b.n	8001e8c <Convert+0x23c>
    
    case 'n' :
      ch = C_NMAP;
 8001e08:	f242 2310 	movw	r3, #8720	; 0x2210
 8001e0c:	81fb      	strh	r3, [r7, #14]
      break;
 8001e0e:	e03d      	b.n	8001e8c <Convert+0x23c>

    case '' :
      ch = C_UMAP;
 8001e10:	f246 0384 	movw	r3, #24708	; 0x6084
 8001e14:	81fb      	strh	r3, [r7, #14]
      break;
 8001e16:	e039      	b.n	8001e8c <Convert+0x23c>

    case '-' :
      ch = C_MINUS;
 8001e18:	f44f 4320 	mov.w	r3, #40960	; 0xa000
 8001e1c:	81fb      	strh	r3, [r7, #14]
      break;
 8001e1e:	e035      	b.n	8001e8c <Convert+0x23c>

    case '/' :
      ch = C_SLATCH;
 8001e20:	23c0      	movs	r3, #192	; 0xc0
 8001e22:	81fb      	strh	r3, [r7, #14]
      break;  
 8001e24:	e032      	b.n	8001e8c <Convert+0x23c>
      
    case '' :
      ch = C_PERCENT_1;
 8001e26:	f44f 436c 	mov.w	r3, #60416	; 0xec00
 8001e2a:	81fb      	strh	r3, [r7, #14]
      break;  
 8001e2c:	e02e      	b.n	8001e8c <Convert+0x23c>
    case '%' :
      ch = C_PERCENT_2; 
 8001e2e:	f44f 4333 	mov.w	r3, #45824	; 0xb300
 8001e32:	81fb      	strh	r3, [r7, #14]
      break;
 8001e34:	e02a      	b.n	8001e8c <Convert+0x23c>
    case 255 :
      ch = C_FULL;
 8001e36:	f64f 73dd 	movw	r3, #65501	; 0xffdd
 8001e3a:	81fb      	strh	r3, [r7, #14]
      break ;
 8001e3c:	e026      	b.n	8001e8c <Convert+0x23c>
    case '5':
    case '6':
    case '7':
    case '8':
    case '9':      
      ch = NumberMap[*Char - ASCII_CHAR_0];    
 8001e3e:	687b      	ldr	r3, [r7, #4]
 8001e40:	781b      	ldrb	r3, [r3, #0]
 8001e42:	3b30      	subs	r3, #48	; 0x30
 8001e44:	4a28      	ldr	r2, [pc, #160]	; (8001ee8 <Convert+0x298>)
 8001e46:	f832 3013 	ldrh.w	r3, [r2, r3, lsl #1]
 8001e4a:	81fb      	strh	r3, [r7, #14]
      break;
 8001e4c:	e01e      	b.n	8001e8c <Convert+0x23c>
          
    default:
      /* The character Char is one letter in upper case*/
      if ( (*Char < ASCII_CHAR_LEFT_OPEN_BRACKET) && (*Char > ASCII_CHAR_AT_SYMBOL) )
 8001e4e:	687b      	ldr	r3, [r7, #4]
 8001e50:	781b      	ldrb	r3, [r3, #0]
 8001e52:	2b5a      	cmp	r3, #90	; 0x5a
 8001e54:	d80a      	bhi.n	8001e6c <Convert+0x21c>
 8001e56:	687b      	ldr	r3, [r7, #4]
 8001e58:	781b      	ldrb	r3, [r3, #0]
 8001e5a:	2b40      	cmp	r3, #64	; 0x40
 8001e5c:	d906      	bls.n	8001e6c <Convert+0x21c>
      {
        ch = CapLetterMap[*Char - 'A'];
 8001e5e:	687b      	ldr	r3, [r7, #4]
 8001e60:	781b      	ldrb	r3, [r3, #0]
 8001e62:	3b41      	subs	r3, #65	; 0x41
 8001e64:	4a21      	ldr	r2, [pc, #132]	; (8001eec <Convert+0x29c>)
 8001e66:	f832 3013 	ldrh.w	r3, [r2, r3, lsl #1]
 8001e6a:	81fb      	strh	r3, [r7, #14]
      }
      /* The character Char is one letter in lower case*/
      if ( (*Char < ASCII_CHAR_LEFT_OPEN_BRACE) && ( *Char > ASCII_CHAR_APOSTROPHE) )
 8001e6c:	687b      	ldr	r3, [r7, #4]
 8001e6e:	781b      	ldrb	r3, [r3, #0]
 8001e70:	2b7a      	cmp	r3, #122	; 0x7a
 8001e72:	d80a      	bhi.n	8001e8a <Convert+0x23a>
 8001e74:	687b      	ldr	r3, [r7, #4]
 8001e76:	781b      	ldrb	r3, [r3, #0]
 8001e78:	2b60      	cmp	r3, #96	; 0x60
 8001e7a:	d906      	bls.n	8001e8a <Convert+0x23a>
      {
        ch = CapLetterMap[*Char - 'a'];
 8001e7c:	687b      	ldr	r3, [r7, #4]
 8001e7e:	781b      	ldrb	r3, [r3, #0]
 8001e80:	3b61      	subs	r3, #97	; 0x61
 8001e82:	4a1a      	ldr	r2, [pc, #104]	; (8001eec <Convert+0x29c>)
 8001e84:	f832 3013 	ldrh.w	r3, [r2, r3, lsl #1]
 8001e88:	81fb      	strh	r3, [r7, #14]
      }
      break;
 8001e8a:	bf00      	nop
  }
       
  /* Set the digital point can be displayed if the point is on */
  if (Point == POINT_ON)
 8001e8c:	78fb      	ldrb	r3, [r7, #3]
 8001e8e:	2b01      	cmp	r3, #1
 8001e90:	d103      	bne.n	8001e9a <Convert+0x24a>
  {
    ch |= 0x0002;
 8001e92:	89fb      	ldrh	r3, [r7, #14]
 8001e94:	f043 0302 	orr.w	r3, r3, #2
 8001e98:	81fb      	strh	r3, [r7, #14]
  }

  /* Set the "COL" segment in the character that can be displayed if the column is on */
  if (DoublePoint == DOUBLEPOINT_ON)
 8001e9a:	78bb      	ldrb	r3, [r7, #2]
 8001e9c:	2b01      	cmp	r3, #1
 8001e9e:	d103      	bne.n	8001ea8 <Convert+0x258>
  {
    ch |= 0x0020;
 8001ea0:	89fb      	ldrh	r3, [r7, #14]
 8001ea2:	f043 0320 	orr.w	r3, r3, #32
 8001ea6:	81fb      	strh	r3, [r7, #14]
  }    

  for (loop = 12,index=0 ;index < 4; loop -= 4,index++)
 8001ea8:	230c      	movs	r3, #12
 8001eaa:	737b      	strb	r3, [r7, #13]
 8001eac:	2300      	movs	r3, #0
 8001eae:	733b      	strb	r3, [r7, #12]
 8001eb0:	e010      	b.n	8001ed4 <Convert+0x284>
  {
    Digit[index] = (ch >> loop) & 0x0f; /*To isolate the less signifiant dibit */
 8001eb2:	89fa      	ldrh	r2, [r7, #14]
 8001eb4:	7b7b      	ldrb	r3, [r7, #13]
 8001eb6:	fa42 f303 	asr.w	r3, r2, r3
 8001eba:	461a      	mov	r2, r3
 8001ebc:	7b3b      	ldrb	r3, [r7, #12]
 8001ebe:	f002 020f 	and.w	r2, r2, #15
 8001ec2:	490b      	ldr	r1, [pc, #44]	; (8001ef0 <Convert+0x2a0>)
 8001ec4:	f841 2023 	str.w	r2, [r1, r3, lsl #2]
  for (loop = 12,index=0 ;index < 4; loop -= 4,index++)
 8001ec8:	7b7b      	ldrb	r3, [r7, #13]
 8001eca:	3b04      	subs	r3, #4
 8001ecc:	737b      	strb	r3, [r7, #13]
 8001ece:	7b3b      	ldrb	r3, [r7, #12]
 8001ed0:	3301      	adds	r3, #1
 8001ed2:	733b      	strb	r3, [r7, #12]
 8001ed4:	7b3b      	ldrb	r3, [r7, #12]
 8001ed6:	2b03      	cmp	r3, #3
 8001ed8:	d9eb      	bls.n	8001eb2 <Convert+0x262>
  }
}
 8001eda:	bf00      	nop
 8001edc:	bf00      	nop
 8001ede:	3714      	adds	r7, #20
 8001ee0:	46bd      	mov	sp, r7
 8001ee2:	bc80      	pop	{r7}
 8001ee4:	4770      	bx	lr
 8001ee6:	bf00      	nop
 8001ee8:	0800567c 	.word	0x0800567c
 8001eec:	08005648 	.word	0x08005648
 8001ef0:	20000248 	.word	0x20000248

08001ef4 <HAL_MspInit>:
/* USER CODE END 0 */
/**
  * Initializes the Global MSP.
  */
void HAL_MspInit(void)
{
 8001ef4:	b580      	push	{r7, lr}
 8001ef6:	b084      	sub	sp, #16
 8001ef8:	af00      	add	r7, sp, #0
  /* USER CODE BEGIN MspInit 0 */

  /* USER CODE END MspInit 0 */

  __HAL_RCC_COMP_CLK_ENABLE();
 8001efa:	4b15      	ldr	r3, [pc, #84]	; (8001f50 <HAL_MspInit+0x5c>)
 8001efc:	6a5b      	ldr	r3, [r3, #36]	; 0x24
 8001efe:	4a14      	ldr	r2, [pc, #80]	; (8001f50 <HAL_MspInit+0x5c>)
 8001f00:	f043 4300 	orr.w	r3, r3, #2147483648	; 0x80000000
 8001f04:	6253      	str	r3, [r2, #36]	; 0x24
 8001f06:	4b12      	ldr	r3, [pc, #72]	; (8001f50 <HAL_MspInit+0x5c>)
 8001f08:	6a5b      	ldr	r3, [r3, #36]	; 0x24
 8001f0a:	f003 4300 	and.w	r3, r3, #2147483648	; 0x80000000
 8001f0e:	60fb      	str	r3, [r7, #12]
 8001f10:	68fb      	ldr	r3, [r7, #12]
  __HAL_RCC_SYSCFG_CLK_ENABLE();
 8001f12:	4b0f      	ldr	r3, [pc, #60]	; (8001f50 <HAL_MspInit+0x5c>)
 8001f14:	6a1b      	ldr	r3, [r3, #32]
 8001f16:	4a0e      	ldr	r2, [pc, #56]	; (8001f50 <HAL_MspInit+0x5c>)
 8001f18:	f043 0301 	orr.w	r3, r3, #1
 8001f1c:	6213      	str	r3, [r2, #32]
 8001f1e:	4b0c      	ldr	r3, [pc, #48]	; (8001f50 <HAL_MspInit+0x5c>)
 8001f20:	6a1b      	ldr	r3, [r3, #32]
 8001f22:	f003 0301 	and.w	r3, r3, #1
 8001f26:	60bb      	str	r3, [r7, #8]
 8001f28:	68bb      	ldr	r3, [r7, #8]
  __HAL_RCC_PWR_CLK_ENABLE();
 8001f2a:	4b09      	ldr	r3, [pc, #36]	; (8001f50 <HAL_MspInit+0x5c>)
 8001f2c:	6a5b      	ldr	r3, [r3, #36]	; 0x24
 8001f2e:	4a08      	ldr	r2, [pc, #32]	; (8001f50 <HAL_MspInit+0x5c>)
 8001f30:	f043 5380 	orr.w	r3, r3, #268435456	; 0x10000000
 8001f34:	6253      	str	r3, [r2, #36]	; 0x24
 8001f36:	4b06      	ldr	r3, [pc, #24]	; (8001f50 <HAL_MspInit+0x5c>)
 8001f38:	6a5b      	ldr	r3, [r3, #36]	; 0x24
 8001f3a:	f003 5380 	and.w	r3, r3, #268435456	; 0x10000000
 8001f3e:	607b      	str	r3, [r7, #4]
 8001f40:	687b      	ldr	r3, [r7, #4]

  HAL_NVIC_SetPriorityGrouping(NVIC_PRIORITYGROUP_0);
 8001f42:	2007      	movs	r0, #7
 8001f44:	f000 fe3a 	bl	8002bbc <HAL_NVIC_SetPriorityGrouping>
  /* System interrupt init*/

  /* USER CODE BEGIN MspInit 1 */

  /* USER CODE END MspInit 1 */
}
 8001f48:	bf00      	nop
 8001f4a:	3710      	adds	r7, #16
 8001f4c:	46bd      	mov	sp, r7
 8001f4e:	bd80      	pop	{r7, pc}
 8001f50:	40023800 	.word	0x40023800

08001f54 <HAL_ADC_MspInit>:
* This function configures the hardware resources used in this example
* @param hadc: ADC handle pointer
* @retval None
*/
void HAL_ADC_MspInit(ADC_HandleTypeDef* hadc)
{
 8001f54:	b580      	push	{r7, lr}
 8001f56:	b08a      	sub	sp, #40	; 0x28
 8001f58:	af00      	add	r7, sp, #0
 8001f5a:	6078      	str	r0, [r7, #4]
  GPIO_InitTypeDef GPIO_InitStruct = {0};
 8001f5c:	f107 0314 	add.w	r3, r7, #20
 8001f60:	2200      	movs	r2, #0
 8001f62:	601a      	str	r2, [r3, #0]
 8001f64:	605a      	str	r2, [r3, #4]
 8001f66:	609a      	str	r2, [r3, #8]
 8001f68:	60da      	str	r2, [r3, #12]
 8001f6a:	611a      	str	r2, [r3, #16]
  if(hadc->Instance==ADC1)
 8001f6c:	687b      	ldr	r3, [r7, #4]
 8001f6e:	681b      	ldr	r3, [r3, #0]
 8001f70:	4a15      	ldr	r2, [pc, #84]	; (8001fc8 <HAL_ADC_MspInit+0x74>)
 8001f72:	4293      	cmp	r3, r2
 8001f74:	d123      	bne.n	8001fbe <HAL_ADC_MspInit+0x6a>
  {
  /* USER CODE BEGIN ADC1_MspInit 0 */

  /* USER CODE END ADC1_MspInit 0 */
    /* Peripheral clock enable */
    __HAL_RCC_ADC1_CLK_ENABLE();
 8001f76:	4b15      	ldr	r3, [pc, #84]	; (8001fcc <HAL_ADC_MspInit+0x78>)
 8001f78:	6a1b      	ldr	r3, [r3, #32]
 8001f7a:	4a14      	ldr	r2, [pc, #80]	; (8001fcc <HAL_ADC_MspInit+0x78>)
 8001f7c:	f443 7300 	orr.w	r3, r3, #512	; 0x200
 8001f80:	6213      	str	r3, [r2, #32]
 8001f82:	4b12      	ldr	r3, [pc, #72]	; (8001fcc <HAL_ADC_MspInit+0x78>)
 8001f84:	6a1b      	ldr	r3, [r3, #32]
 8001f86:	f403 7300 	and.w	r3, r3, #512	; 0x200
 8001f8a:	613b      	str	r3, [r7, #16]
 8001f8c:	693b      	ldr	r3, [r7, #16]

    __HAL_RCC_GPIOA_CLK_ENABLE();
 8001f8e:	4b0f      	ldr	r3, [pc, #60]	; (8001fcc <HAL_ADC_MspInit+0x78>)
 8001f90:	69db      	ldr	r3, [r3, #28]
 8001f92:	4a0e      	ldr	r2, [pc, #56]	; (8001fcc <HAL_ADC_MspInit+0x78>)
 8001f94:	f043 0301 	orr.w	r3, r3, #1
 8001f98:	61d3      	str	r3, [r2, #28]
 8001f9a:	4b0c      	ldr	r3, [pc, #48]	; (8001fcc <HAL_ADC_MspInit+0x78>)
 8001f9c:	69db      	ldr	r3, [r3, #28]
 8001f9e:	f003 0301 	and.w	r3, r3, #1
 8001fa2:	60fb      	str	r3, [r7, #12]
 8001fa4:	68fb      	ldr	r3, [r7, #12]
    /**ADC GPIO Configuration
    PA4     ------> ADC_IN4
    */
    GPIO_InitStruct.Pin = IDD_Measurement_Pin;
 8001fa6:	2310      	movs	r3, #16
 8001fa8:	617b      	str	r3, [r7, #20]
    GPIO_InitStruct.Mode = GPIO_MODE_ANALOG;
 8001faa:	2303      	movs	r3, #3
 8001fac:	61bb      	str	r3, [r7, #24]
    GPIO_InitStruct.Pull = GPIO_NOPULL;
 8001fae:	2300      	movs	r3, #0
 8001fb0:	61fb      	str	r3, [r7, #28]
    HAL_GPIO_Init(IDD_Measurement_GPIO_Port, &GPIO_InitStruct);
 8001fb2:	f107 0314 	add.w	r3, r7, #20
 8001fb6:	4619      	mov	r1, r3
 8001fb8:	4805      	ldr	r0, [pc, #20]	; (8001fd0 <HAL_ADC_MspInit+0x7c>)
 8001fba:	f000 fe33 	bl	8002c24 <HAL_GPIO_Init>
  /* USER CODE BEGIN ADC1_MspInit 1 */

  /* USER CODE END ADC1_MspInit 1 */
  }

}
 8001fbe:	bf00      	nop
 8001fc0:	3728      	adds	r7, #40	; 0x28
 8001fc2:	46bd      	mov	sp, r7
 8001fc4:	bd80      	pop	{r7, pc}
 8001fc6:	bf00      	nop
 8001fc8:	40012400 	.word	0x40012400
 8001fcc:	40023800 	.word	0x40023800
 8001fd0:	40020000 	.word	0x40020000

08001fd4 <HAL_LCD_MspInit>:
* This function configures the hardware resources used in this example
* @param hlcd: LCD handle pointer
* @retval None
*/
void HAL_LCD_MspInit(LCD_HandleTypeDef* hlcd)
{
 8001fd4:	b580      	push	{r7, lr}
 8001fd6:	b08c      	sub	sp, #48	; 0x30
 8001fd8:	af00      	add	r7, sp, #0
 8001fda:	6078      	str	r0, [r7, #4]
  GPIO_InitTypeDef GPIO_InitStruct = {0};
 8001fdc:	f107 031c 	add.w	r3, r7, #28
 8001fe0:	2200      	movs	r2, #0
 8001fe2:	601a      	str	r2, [r3, #0]
 8001fe4:	605a      	str	r2, [r3, #4]
 8001fe6:	609a      	str	r2, [r3, #8]
 8001fe8:	60da      	str	r2, [r3, #12]
 8001fea:	611a      	str	r2, [r3, #16]
  if(hlcd->Instance==LCD)
 8001fec:	687b      	ldr	r3, [r7, #4]
 8001fee:	681b      	ldr	r3, [r3, #0]
 8001ff0:	4a34      	ldr	r2, [pc, #208]	; (80020c4 <HAL_LCD_MspInit+0xf0>)
 8001ff2:	4293      	cmp	r3, r2
 8001ff4:	d162      	bne.n	80020bc <HAL_LCD_MspInit+0xe8>
  {
  /* USER CODE BEGIN LCD_MspInit 0 */

  /* USER CODE END LCD_MspInit 0 */
    /* Peripheral clock enable */
    __HAL_RCC_LCD_CLK_ENABLE();
 8001ff6:	4b34      	ldr	r3, [pc, #208]	; (80020c8 <HAL_LCD_MspInit+0xf4>)
 8001ff8:	6a5b      	ldr	r3, [r3, #36]	; 0x24
 8001ffa:	4a33      	ldr	r2, [pc, #204]	; (80020c8 <HAL_LCD_MspInit+0xf4>)
 8001ffc:	f443 7300 	orr.w	r3, r3, #512	; 0x200
 8002000:	6253      	str	r3, [r2, #36]	; 0x24
 8002002:	4b31      	ldr	r3, [pc, #196]	; (80020c8 <HAL_LCD_MspInit+0xf4>)
 8002004:	6a5b      	ldr	r3, [r3, #36]	; 0x24
 8002006:	f403 7300 	and.w	r3, r3, #512	; 0x200
 800200a:	61bb      	str	r3, [r7, #24]
 800200c:	69bb      	ldr	r3, [r7, #24]

    __HAL_RCC_GPIOC_CLK_ENABLE();
 800200e:	4b2e      	ldr	r3, [pc, #184]	; (80020c8 <HAL_LCD_MspInit+0xf4>)
 8002010:	69db      	ldr	r3, [r3, #28]
 8002012:	4a2d      	ldr	r2, [pc, #180]	; (80020c8 <HAL_LCD_MspInit+0xf4>)
 8002014:	f043 0304 	orr.w	r3, r3, #4
 8002018:	61d3      	str	r3, [r2, #28]
 800201a:	4b2b      	ldr	r3, [pc, #172]	; (80020c8 <HAL_LCD_MspInit+0xf4>)
 800201c:	69db      	ldr	r3, [r3, #28]
 800201e:	f003 0304 	and.w	r3, r3, #4
 8002022:	617b      	str	r3, [r7, #20]
 8002024:	697b      	ldr	r3, [r7, #20]
    __HAL_RCC_GPIOA_CLK_ENABLE();
 8002026:	4b28      	ldr	r3, [pc, #160]	; (80020c8 <HAL_LCD_MspInit+0xf4>)
 8002028:	69db      	ldr	r3, [r3, #28]
 800202a:	4a27      	ldr	r2, [pc, #156]	; (80020c8 <HAL_LCD_MspInit+0xf4>)
 800202c:	f043 0301 	orr.w	r3, r3, #1
 8002030:	61d3      	str	r3, [r2, #28]
 8002032:	4b25      	ldr	r3, [pc, #148]	; (80020c8 <HAL_LCD_MspInit+0xf4>)
 8002034:	69db      	ldr	r3, [r3, #28]
 8002036:	f003 0301 	and.w	r3, r3, #1
 800203a:	613b      	str	r3, [r7, #16]
 800203c:	693b      	ldr	r3, [r7, #16]
    __HAL_RCC_GPIOB_CLK_ENABLE();
 800203e:	4b22      	ldr	r3, [pc, #136]	; (80020c8 <HAL_LCD_MspInit+0xf4>)
 8002040:	69db      	ldr	r3, [r3, #28]
 8002042:	4a21      	ldr	r2, [pc, #132]	; (80020c8 <HAL_LCD_MspInit+0xf4>)
 8002044:	f043 0302 	orr.w	r3, r3, #2
 8002048:	61d3      	str	r3, [r2, #28]
 800204a:	4b1f      	ldr	r3, [pc, #124]	; (80020c8 <HAL_LCD_MspInit+0xf4>)
 800204c:	69db      	ldr	r3, [r3, #28]
 800204e:	f003 0302 	and.w	r3, r3, #2
 8002052:	60fb      	str	r3, [r7, #12]
 8002054:	68fb      	ldr	r3, [r7, #12]
    PB4     ------> LCD_SEG8
    PB5     ------> LCD_SEG9
    PB8     ------> LCD_SEG16
    PB9     ------> LCD_COM3
    */
    GPIO_InitStruct.Pin = SEG14_Pin|SEG15_Pin|SEG16_Pin|SEG17_Pin
 8002056:	f640 73cf 	movw	r3, #4047	; 0xfcf
 800205a:	61fb      	str	r3, [r7, #28]
                          |SEG18_Pin|SEG19_Pin|SEG20_Pin|SEG21_Pin
                          |SEG22_Pin|SEG23_Pin;
    GPIO_InitStruct.Mode = GPIO_MODE_AF_PP;
 800205c:	2302      	movs	r3, #2
 800205e:	623b      	str	r3, [r7, #32]
    GPIO_InitStruct.Pull = GPIO_NOPULL;
 8002060:	2300      	movs	r3, #0
 8002062:	627b      	str	r3, [r7, #36]	; 0x24
    GPIO_InitStruct.Speed = GPIO_SPEED_FREQ_LOW;
 8002064:	2300      	movs	r3, #0
 8002066:	62bb      	str	r3, [r7, #40]	; 0x28
    GPIO_InitStruct.Alternate = GPIO_AF11_LCD;
 8002068:	230b      	movs	r3, #11
 800206a:	62fb      	str	r3, [r7, #44]	; 0x2c
    HAL_GPIO_Init(GPIOC, &GPIO_InitStruct);
 800206c:	f107 031c 	add.w	r3, r7, #28
 8002070:	4619      	mov	r1, r3
 8002072:	4816      	ldr	r0, [pc, #88]	; (80020cc <HAL_LCD_MspInit+0xf8>)
 8002074:	f000 fdd6 	bl	8002c24 <HAL_GPIO_Init>

    GPIO_InitStruct.Pin = SEG0_Pin|SEG1_Pin|SEG2_Pin|COM0_Pin
 8002078:	f248 730e 	movw	r3, #34574	; 0x870e
 800207c:	61fb      	str	r3, [r7, #28]
                          |COM1_Pin|COM2_Pin|SEG12_Pin;
    GPIO_InitStruct.Mode = GPIO_MODE_AF_PP;
 800207e:	2302      	movs	r3, #2
 8002080:	623b      	str	r3, [r7, #32]
    GPIO_InitStruct.Pull = GPIO_NOPULL;
 8002082:	2300      	movs	r3, #0
 8002084:	627b      	str	r3, [r7, #36]	; 0x24
    GPIO_InitStruct.Speed = GPIO_SPEED_FREQ_LOW;
 8002086:	2300      	movs	r3, #0
 8002088:	62bb      	str	r3, [r7, #40]	; 0x28
    GPIO_InitStruct.Alternate = GPIO_AF11_LCD;
 800208a:	230b      	movs	r3, #11
 800208c:	62fb      	str	r3, [r7, #44]	; 0x2c
    HAL_GPIO_Init(GPIOA, &GPIO_InitStruct);
 800208e:	f107 031c 	add.w	r3, r7, #28
 8002092:	4619      	mov	r1, r3
 8002094:	480e      	ldr	r0, [pc, #56]	; (80020d0 <HAL_LCD_MspInit+0xfc>)
 8002096:	f000 fdc5 	bl	8002c24 <HAL_GPIO_Init>

    GPIO_InitStruct.Pin = SEG6_Pin|SEG7_Pin|SEG8_Pin|SEG9_Pin
 800209a:	f64f 7338 	movw	r3, #65336	; 0xff38
 800209e:	61fb      	str	r3, [r7, #28]
                          |SEG10_Pin|SEG11_Pin|SEG3_Pin|SEG4_Pin
                          |SEG5_Pin|SEG13_Pin|COM3_Pin;
    GPIO_InitStruct.Mode = GPIO_MODE_AF_PP;
 80020a0:	2302      	movs	r3, #2
 80020a2:	623b      	str	r3, [r7, #32]
    GPIO_InitStruct.Pull = GPIO_NOPULL;
 80020a4:	2300      	movs	r3, #0
 80020a6:	627b      	str	r3, [r7, #36]	; 0x24
    GPIO_InitStruct.Speed = GPIO_SPEED_FREQ_LOW;
 80020a8:	2300      	movs	r3, #0
 80020aa:	62bb      	str	r3, [r7, #40]	; 0x28
    GPIO_InitStruct.Alternate = GPIO_AF11_LCD;
 80020ac:	230b      	movs	r3, #11
 80020ae:	62fb      	str	r3, [r7, #44]	; 0x2c
    HAL_GPIO_Init(GPIOB, &GPIO_InitStruct);
 80020b0:	f107 031c 	add.w	r3, r7, #28
 80020b4:	4619      	mov	r1, r3
 80020b6:	4807      	ldr	r0, [pc, #28]	; (80020d4 <HAL_LCD_MspInit+0x100>)
 80020b8:	f000 fdb4 	bl	8002c24 <HAL_GPIO_Init>
  /* USER CODE BEGIN LCD_MspInit 1 */

  /* USER CODE END LCD_MspInit 1 */
  }

}
 80020bc:	bf00      	nop
 80020be:	3730      	adds	r7, #48	; 0x30
 80020c0:	46bd      	mov	sp, r7
 80020c2:	bd80      	pop	{r7, pc}
 80020c4:	40002400 	.word	0x40002400
 80020c8:	40023800 	.word	0x40023800
 80020cc:	40020800 	.word	0x40020800
 80020d0:	40020000 	.word	0x40020000
 80020d4:	40020400 	.word	0x40020400

080020d8 <HAL_TIM_Base_MspInit>:
* This function configures the hardware resources used in this example
* @param htim_base: TIM_Base handle pointer
* @retval None
*/
void HAL_TIM_Base_MspInit(TIM_HandleTypeDef* htim_base)
{
 80020d8:	b580      	push	{r7, lr}
 80020da:	b08c      	sub	sp, #48	; 0x30
 80020dc:	af00      	add	r7, sp, #0
 80020de:	6078      	str	r0, [r7, #4]
  GPIO_InitTypeDef GPIO_InitStruct = {0};
 80020e0:	f107 031c 	add.w	r3, r7, #28
 80020e4:	2200      	movs	r2, #0
 80020e6:	601a      	str	r2, [r3, #0]
 80020e8:	605a      	str	r2, [r3, #4]
 80020ea:	609a      	str	r2, [r3, #8]
 80020ec:	60da      	str	r2, [r3, #12]
 80020ee:	611a      	str	r2, [r3, #16]
  if(htim_base->Instance==TIM2)
 80020f0:	687b      	ldr	r3, [r7, #4]
 80020f2:	681b      	ldr	r3, [r3, #0]
 80020f4:	f1b3 4f80 	cmp.w	r3, #1073741824	; 0x40000000
 80020f8:	d128      	bne.n	800214c <HAL_TIM_Base_MspInit+0x74>
  {
  /* USER CODE BEGIN TIM2_MspInit 0 */

  /* USER CODE END TIM2_MspInit 0 */
    /* Peripheral clock enable */
    __HAL_RCC_TIM2_CLK_ENABLE();
 80020fa:	4b36      	ldr	r3, [pc, #216]	; (80021d4 <HAL_TIM_Base_MspInit+0xfc>)
 80020fc:	6a5b      	ldr	r3, [r3, #36]	; 0x24
 80020fe:	4a35      	ldr	r2, [pc, #212]	; (80021d4 <HAL_TIM_Base_MspInit+0xfc>)
 8002100:	f043 0301 	orr.w	r3, r3, #1
 8002104:	6253      	str	r3, [r2, #36]	; 0x24
 8002106:	4b33      	ldr	r3, [pc, #204]	; (80021d4 <HAL_TIM_Base_MspInit+0xfc>)
 8002108:	6a5b      	ldr	r3, [r3, #36]	; 0x24
 800210a:	f003 0301 	and.w	r3, r3, #1
 800210e:	61bb      	str	r3, [r7, #24]
 8002110:	69bb      	ldr	r3, [r7, #24]

    __HAL_RCC_GPIOA_CLK_ENABLE();
 8002112:	4b30      	ldr	r3, [pc, #192]	; (80021d4 <HAL_TIM_Base_MspInit+0xfc>)
 8002114:	69db      	ldr	r3, [r3, #28]
 8002116:	4a2f      	ldr	r2, [pc, #188]	; (80021d4 <HAL_TIM_Base_MspInit+0xfc>)
 8002118:	f043 0301 	orr.w	r3, r3, #1
 800211c:	61d3      	str	r3, [r2, #28]
 800211e:	4b2d      	ldr	r3, [pc, #180]	; (80021d4 <HAL_TIM_Base_MspInit+0xfc>)
 8002120:	69db      	ldr	r3, [r3, #28]
 8002122:	f003 0301 	and.w	r3, r3, #1
 8002126:	617b      	str	r3, [r7, #20]
 8002128:	697b      	ldr	r3, [r7, #20]
    /**TIM2 GPIO Configuration
    PA5     ------> TIM2_CH1
    */
    GPIO_InitStruct.Pin = GPIO_PIN_5;
 800212a:	2320      	movs	r3, #32
 800212c:	61fb      	str	r3, [r7, #28]
    GPIO_InitStruct.Mode = GPIO_MODE_AF_PP;
 800212e:	2302      	movs	r3, #2
 8002130:	623b      	str	r3, [r7, #32]
    GPIO_InitStruct.Pull = GPIO_NOPULL;
 8002132:	2300      	movs	r3, #0
 8002134:	627b      	str	r3, [r7, #36]	; 0x24
    GPIO_InitStruct.Speed = GPIO_SPEED_FREQ_LOW;
 8002136:	2300      	movs	r3, #0
 8002138:	62bb      	str	r3, [r7, #40]	; 0x28
    GPIO_InitStruct.Alternate = GPIO_AF1_TIM2;
 800213a:	2301      	movs	r3, #1
 800213c:	62fb      	str	r3, [r7, #44]	; 0x2c
    HAL_GPIO_Init(GPIOA, &GPIO_InitStruct);
 800213e:	f107 031c 	add.w	r3, r7, #28
 8002142:	4619      	mov	r1, r3
 8002144:	4824      	ldr	r0, [pc, #144]	; (80021d8 <HAL_TIM_Base_MspInit+0x100>)
 8002146:	f000 fd6d 	bl	8002c24 <HAL_GPIO_Init>
  /* USER CODE BEGIN TIM4_MspInit 1 */

  /* USER CODE END TIM4_MspInit 1 */
  }

}
 800214a:	e03e      	b.n	80021ca <HAL_TIM_Base_MspInit+0xf2>
  else if(htim_base->Instance==TIM3)
 800214c:	687b      	ldr	r3, [r7, #4]
 800214e:	681b      	ldr	r3, [r3, #0]
 8002150:	4a22      	ldr	r2, [pc, #136]	; (80021dc <HAL_TIM_Base_MspInit+0x104>)
 8002152:	4293      	cmp	r3, r2
 8002154:	d10c      	bne.n	8002170 <HAL_TIM_Base_MspInit+0x98>
    __HAL_RCC_TIM3_CLK_ENABLE();
 8002156:	4b1f      	ldr	r3, [pc, #124]	; (80021d4 <HAL_TIM_Base_MspInit+0xfc>)
 8002158:	6a5b      	ldr	r3, [r3, #36]	; 0x24
 800215a:	4a1e      	ldr	r2, [pc, #120]	; (80021d4 <HAL_TIM_Base_MspInit+0xfc>)
 800215c:	f043 0302 	orr.w	r3, r3, #2
 8002160:	6253      	str	r3, [r2, #36]	; 0x24
 8002162:	4b1c      	ldr	r3, [pc, #112]	; (80021d4 <HAL_TIM_Base_MspInit+0xfc>)
 8002164:	6a5b      	ldr	r3, [r3, #36]	; 0x24
 8002166:	f003 0302 	and.w	r3, r3, #2
 800216a:	613b      	str	r3, [r7, #16]
 800216c:	693b      	ldr	r3, [r7, #16]
}
 800216e:	e02c      	b.n	80021ca <HAL_TIM_Base_MspInit+0xf2>
  else if(htim_base->Instance==TIM4)
 8002170:	687b      	ldr	r3, [r7, #4]
 8002172:	681b      	ldr	r3, [r3, #0]
 8002174:	4a1a      	ldr	r2, [pc, #104]	; (80021e0 <HAL_TIM_Base_MspInit+0x108>)
 8002176:	4293      	cmp	r3, r2
 8002178:	d127      	bne.n	80021ca <HAL_TIM_Base_MspInit+0xf2>
    __HAL_RCC_TIM4_CLK_ENABLE();
 800217a:	4b16      	ldr	r3, [pc, #88]	; (80021d4 <HAL_TIM_Base_MspInit+0xfc>)
 800217c:	6a5b      	ldr	r3, [r3, #36]	; 0x24
 800217e:	4a15      	ldr	r2, [pc, #84]	; (80021d4 <HAL_TIM_Base_MspInit+0xfc>)
 8002180:	f043 0304 	orr.w	r3, r3, #4
 8002184:	6253      	str	r3, [r2, #36]	; 0x24
 8002186:	4b13      	ldr	r3, [pc, #76]	; (80021d4 <HAL_TIM_Base_MspInit+0xfc>)
 8002188:	6a5b      	ldr	r3, [r3, #36]	; 0x24
 800218a:	f003 0304 	and.w	r3, r3, #4
 800218e:	60fb      	str	r3, [r7, #12]
 8002190:	68fb      	ldr	r3, [r7, #12]
    __HAL_RCC_GPIOB_CLK_ENABLE();
 8002192:	4b10      	ldr	r3, [pc, #64]	; (80021d4 <HAL_TIM_Base_MspInit+0xfc>)
 8002194:	69db      	ldr	r3, [r3, #28]
 8002196:	4a0f      	ldr	r2, [pc, #60]	; (80021d4 <HAL_TIM_Base_MspInit+0xfc>)
 8002198:	f043 0302 	orr.w	r3, r3, #2
 800219c:	61d3      	str	r3, [r2, #28]
 800219e:	4b0d      	ldr	r3, [pc, #52]	; (80021d4 <HAL_TIM_Base_MspInit+0xfc>)
 80021a0:	69db      	ldr	r3, [r3, #28]
 80021a2:	f003 0302 	and.w	r3, r3, #2
 80021a6:	60bb      	str	r3, [r7, #8]
 80021a8:	68bb      	ldr	r3, [r7, #8]
    GPIO_InitStruct.Pin = GPIO_PIN_6|GPIO_PIN_7;
 80021aa:	23c0      	movs	r3, #192	; 0xc0
 80021ac:	61fb      	str	r3, [r7, #28]
    GPIO_InitStruct.Mode = GPIO_MODE_AF_PP;
 80021ae:	2302      	movs	r3, #2
 80021b0:	623b      	str	r3, [r7, #32]
    GPIO_InitStruct.Pull = GPIO_NOPULL;
 80021b2:	2300      	movs	r3, #0
 80021b4:	627b      	str	r3, [r7, #36]	; 0x24
    GPIO_InitStruct.Speed = GPIO_SPEED_FREQ_LOW;
 80021b6:	2300      	movs	r3, #0
 80021b8:	62bb      	str	r3, [r7, #40]	; 0x28
    GPIO_InitStruct.Alternate = GPIO_AF2_TIM4;
 80021ba:	2302      	movs	r3, #2
 80021bc:	62fb      	str	r3, [r7, #44]	; 0x2c
    HAL_GPIO_Init(GPIOB, &GPIO_InitStruct);
 80021be:	f107 031c 	add.w	r3, r7, #28
 80021c2:	4619      	mov	r1, r3
 80021c4:	4807      	ldr	r0, [pc, #28]	; (80021e4 <HAL_TIM_Base_MspInit+0x10c>)
 80021c6:	f000 fd2d 	bl	8002c24 <HAL_GPIO_Init>
}
 80021ca:	bf00      	nop
 80021cc:	3730      	adds	r7, #48	; 0x30
 80021ce:	46bd      	mov	sp, r7
 80021d0:	bd80      	pop	{r7, pc}
 80021d2:	bf00      	nop
 80021d4:	40023800 	.word	0x40023800
 80021d8:	40020000 	.word	0x40020000
 80021dc:	40000400 	.word	0x40000400
 80021e0:	40000800 	.word	0x40000800
 80021e4:	40020400 	.word	0x40020400

080021e8 <NMI_Handler>:
/******************************************************************************/
/**
  * @brief This function handles Non maskable interrupt.
  */
void NMI_Handler(void)
{
 80021e8:	b480      	push	{r7}
 80021ea:	af00      	add	r7, sp, #0
  /* USER CODE BEGIN NonMaskableInt_IRQn 0 */

  /* USER CODE END NonMaskableInt_IRQn 0 */
  /* USER CODE BEGIN NonMaskableInt_IRQn 1 */
  while (1)
 80021ec:	e7fe      	b.n	80021ec <NMI_Handler+0x4>

080021ee <HardFault_Handler>:

/**
  * @brief This function handles Hard fault interrupt.
  */
void HardFault_Handler(void)
{
 80021ee:	b480      	push	{r7}
 80021f0:	af00      	add	r7, sp, #0
  /* USER CODE BEGIN HardFault_IRQn 0 */

  /* USER CODE END HardFault_IRQn 0 */
  while (1)
 80021f2:	e7fe      	b.n	80021f2 <HardFault_Handler+0x4>

080021f4 <MemManage_Handler>:

/**
  * @brief This function handles Memory management fault.
  */
void MemManage_Handler(void)
{
 80021f4:	b480      	push	{r7}
 80021f6:	af00      	add	r7, sp, #0
  /* USER CODE BEGIN MemoryManagement_IRQn 0 */

  /* USER CODE END MemoryManagement_IRQn 0 */
  while (1)
 80021f8:	e7fe      	b.n	80021f8 <MemManage_Handler+0x4>

080021fa <BusFault_Handler>:

/**
  * @brief This function handles Pre-fetch fault, memory access fault.
  */
void BusFault_Handler(void)
{
 80021fa:	b480      	push	{r7}
 80021fc:	af00      	add	r7, sp, #0
  /* USER CODE BEGIN BusFault_IRQn 0 */

  /* USER CODE END BusFault_IRQn 0 */
  while (1)
 80021fe:	e7fe      	b.n	80021fe <BusFault_Handler+0x4>

08002200 <UsageFault_Handler>:

/**
  * @brief This function handles Undefined instruction or illegal state.
  */
void UsageFault_Handler(void)
{
 8002200:	b480      	push	{r7}
 8002202:	af00      	add	r7, sp, #0
  /* USER CODE BEGIN UsageFault_IRQn 0 */

  /* USER CODE END UsageFault_IRQn 0 */
  while (1)
 8002204:	e7fe      	b.n	8002204 <UsageFault_Handler+0x4>

08002206 <SVC_Handler>:

/**
  * @brief This function handles System service call via SWI instruction.
  */
void SVC_Handler(void)
{
 8002206:	b480      	push	{r7}
 8002208:	af00      	add	r7, sp, #0

  /* USER CODE END SVC_IRQn 0 */
  /* USER CODE BEGIN SVC_IRQn 1 */

  /* USER CODE END SVC_IRQn 1 */
}
 800220a:	bf00      	nop
 800220c:	46bd      	mov	sp, r7
 800220e:	bc80      	pop	{r7}
 8002210:	4770      	bx	lr

08002212 <DebugMon_Handler>:

/**
  * @brief This function handles Debug monitor.
  */
void DebugMon_Handler(void)
{
 8002212:	b480      	push	{r7}
 8002214:	af00      	add	r7, sp, #0

  /* USER CODE END DebugMonitor_IRQn 0 */
  /* USER CODE BEGIN DebugMonitor_IRQn 1 */

  /* USER CODE END DebugMonitor_IRQn 1 */
}
 8002216:	bf00      	nop
 8002218:	46bd      	mov	sp, r7
 800221a:	bc80      	pop	{r7}
 800221c:	4770      	bx	lr

0800221e <PendSV_Handler>:

/**
  * @brief This function handles Pendable request for system service.
  */
void PendSV_Handler(void)
{
 800221e:	b480      	push	{r7}
 8002220:	af00      	add	r7, sp, #0

  /* USER CODE END PendSV_IRQn 0 */
  /* USER CODE BEGIN PendSV_IRQn 1 */

  /* USER CODE END PendSV_IRQn 1 */
}
 8002222:	bf00      	nop
 8002224:	46bd      	mov	sp, r7
 8002226:	bc80      	pop	{r7}
 8002228:	4770      	bx	lr

0800222a <SysTick_Handler>:

/**
  * @brief This function handles System tick timer.
  */
void SysTick_Handler(void)
{
 800222a:	b580      	push	{r7, lr}
 800222c:	af00      	add	r7, sp, #0
  /* USER CODE BEGIN SysTick_IRQn 0 */

  /* USER CODE END SysTick_IRQn 0 */
  HAL_IncTick();
 800222e:	f000 f941 	bl	80024b4 <HAL_IncTick>
  /* USER CODE BEGIN SysTick_IRQn 1 */

  /* USER CODE END SysTick_IRQn 1 */
}
 8002232:	bf00      	nop
 8002234:	bd80      	pop	{r7, pc}

08002236 <_getpid>:
void initialise_monitor_handles()
{
}

int _getpid(void)
{
 8002236:	b480      	push	{r7}
 8002238:	af00      	add	r7, sp, #0
	return 1;
 800223a:	2301      	movs	r3, #1
}
 800223c:	4618      	mov	r0, r3
 800223e:	46bd      	mov	sp, r7
 8002240:	bc80      	pop	{r7}
 8002242:	4770      	bx	lr

08002244 <_kill>:

int _kill(int pid, int sig)
{
 8002244:	b580      	push	{r7, lr}
 8002246:	b082      	sub	sp, #8
 8002248:	af00      	add	r7, sp, #0
 800224a:	6078      	str	r0, [r7, #4]
 800224c:	6039      	str	r1, [r7, #0]
	errno = EINVAL;
 800224e:	f002 f965 	bl	800451c <__errno>
 8002252:	4603      	mov	r3, r0
 8002254:	2216      	movs	r2, #22
 8002256:	601a      	str	r2, [r3, #0]
	return -1;
 8002258:	f04f 33ff 	mov.w	r3, #4294967295
}
 800225c:	4618      	mov	r0, r3
 800225e:	3708      	adds	r7, #8
 8002260:	46bd      	mov	sp, r7
 8002262:	bd80      	pop	{r7, pc}

08002264 <_exit>:

void _exit (int status)
{
 8002264:	b580      	push	{r7, lr}
 8002266:	b082      	sub	sp, #8
 8002268:	af00      	add	r7, sp, #0
 800226a:	6078      	str	r0, [r7, #4]
	_kill(status, -1);
 800226c:	f04f 31ff 	mov.w	r1, #4294967295
 8002270:	6878      	ldr	r0, [r7, #4]
 8002272:	f7ff ffe7 	bl	8002244 <_kill>
	while (1) {}		/* Make sure we hang here */
 8002276:	e7fe      	b.n	8002276 <_exit+0x12>

08002278 <_read>:
}

__attribute__((weak)) int _read(int file, char *ptr, int len)
{
 8002278:	b580      	push	{r7, lr}
 800227a:	b086      	sub	sp, #24
 800227c:	af00      	add	r7, sp, #0
 800227e:	60f8      	str	r0, [r7, #12]
 8002280:	60b9      	str	r1, [r7, #8]
 8002282:	607a      	str	r2, [r7, #4]
	int DataIdx;

	for (DataIdx = 0; DataIdx < len; DataIdx++)
 8002284:	2300      	movs	r3, #0
 8002286:	617b      	str	r3, [r7, #20]
 8002288:	e00a      	b.n	80022a0 <_read+0x28>
	{
		*ptr++ = __io_getchar();
 800228a:	f3af 8000 	nop.w
 800228e:	4601      	mov	r1, r0
 8002290:	68bb      	ldr	r3, [r7, #8]
 8002292:	1c5a      	adds	r2, r3, #1
 8002294:	60ba      	str	r2, [r7, #8]
 8002296:	b2ca      	uxtb	r2, r1
 8002298:	701a      	strb	r2, [r3, #0]
	for (DataIdx = 0; DataIdx < len; DataIdx++)
 800229a:	697b      	ldr	r3, [r7, #20]
 800229c:	3301      	adds	r3, #1
 800229e:	617b      	str	r3, [r7, #20]
 80022a0:	697a      	ldr	r2, [r7, #20]
 80022a2:	687b      	ldr	r3, [r7, #4]
 80022a4:	429a      	cmp	r2, r3
 80022a6:	dbf0      	blt.n	800228a <_read+0x12>
	}

return len;
 80022a8:	687b      	ldr	r3, [r7, #4]
}
 80022aa:	4618      	mov	r0, r3
 80022ac:	3718      	adds	r7, #24
 80022ae:	46bd      	mov	sp, r7
 80022b0:	bd80      	pop	{r7, pc}

080022b2 <_write>:

__attribute__((weak)) int _write(int file, char *ptr, int len)
{
 80022b2:	b580      	push	{r7, lr}
 80022b4:	b086      	sub	sp, #24
 80022b6:	af00      	add	r7, sp, #0
 80022b8:	60f8      	str	r0, [r7, #12]
 80022ba:	60b9      	str	r1, [r7, #8]
 80022bc:	607a      	str	r2, [r7, #4]
	int DataIdx;

	for (DataIdx = 0; DataIdx < len; DataIdx++)
 80022be:	2300      	movs	r3, #0
 80022c0:	617b      	str	r3, [r7, #20]
 80022c2:	e009      	b.n	80022d8 <_write+0x26>
	{
		__io_putchar(*ptr++);
 80022c4:	68bb      	ldr	r3, [r7, #8]
 80022c6:	1c5a      	adds	r2, r3, #1
 80022c8:	60ba      	str	r2, [r7, #8]
 80022ca:	781b      	ldrb	r3, [r3, #0]
 80022cc:	4618      	mov	r0, r3
 80022ce:	f3af 8000 	nop.w
	for (DataIdx = 0; DataIdx < len; DataIdx++)
 80022d2:	697b      	ldr	r3, [r7, #20]
 80022d4:	3301      	adds	r3, #1
 80022d6:	617b      	str	r3, [r7, #20]
 80022d8:	697a      	ldr	r2, [r7, #20]
 80022da:	687b      	ldr	r3, [r7, #4]
 80022dc:	429a      	cmp	r2, r3
 80022de:	dbf1      	blt.n	80022c4 <_write+0x12>
	}
	return len;
 80022e0:	687b      	ldr	r3, [r7, #4]
}
 80022e2:	4618      	mov	r0, r3
 80022e4:	3718      	adds	r7, #24
 80022e6:	46bd      	mov	sp, r7
 80022e8:	bd80      	pop	{r7, pc}

080022ea <_close>:

int _close(int file)
{
 80022ea:	b480      	push	{r7}
 80022ec:	b083      	sub	sp, #12
 80022ee:	af00      	add	r7, sp, #0
 80022f0:	6078      	str	r0, [r7, #4]
	return -1;
 80022f2:	f04f 33ff 	mov.w	r3, #4294967295
}
 80022f6:	4618      	mov	r0, r3
 80022f8:	370c      	adds	r7, #12
 80022fa:	46bd      	mov	sp, r7
 80022fc:	bc80      	pop	{r7}
 80022fe:	4770      	bx	lr

08002300 <_fstat>:


int _fstat(int file, struct stat *st)
{
 8002300:	b480      	push	{r7}
 8002302:	b083      	sub	sp, #12
 8002304:	af00      	add	r7, sp, #0
 8002306:	6078      	str	r0, [r7, #4]
 8002308:	6039      	str	r1, [r7, #0]
	st->st_mode = S_IFCHR;
 800230a:	683b      	ldr	r3, [r7, #0]
 800230c:	f44f 5200 	mov.w	r2, #8192	; 0x2000
 8002310:	605a      	str	r2, [r3, #4]
	return 0;
 8002312:	2300      	movs	r3, #0
}
 8002314:	4618      	mov	r0, r3
 8002316:	370c      	adds	r7, #12
 8002318:	46bd      	mov	sp, r7
 800231a:	bc80      	pop	{r7}
 800231c:	4770      	bx	lr

0800231e <_isatty>:

int _isatty(int file)
{
 800231e:	b480      	push	{r7}
 8002320:	b083      	sub	sp, #12
 8002322:	af00      	add	r7, sp, #0
 8002324:	6078      	str	r0, [r7, #4]
	return 1;
 8002326:	2301      	movs	r3, #1
}
 8002328:	4618      	mov	r0, r3
 800232a:	370c      	adds	r7, #12
 800232c:	46bd      	mov	sp, r7
 800232e:	bc80      	pop	{r7}
 8002330:	4770      	bx	lr

08002332 <_lseek>:

int _lseek(int file, int ptr, int dir)
{
 8002332:	b480      	push	{r7}
 8002334:	b085      	sub	sp, #20
 8002336:	af00      	add	r7, sp, #0
 8002338:	60f8      	str	r0, [r7, #12]
 800233a:	60b9      	str	r1, [r7, #8]
 800233c:	607a      	str	r2, [r7, #4]
	return 0;
 800233e:	2300      	movs	r3, #0
}
 8002340:	4618      	mov	r0, r3
 8002342:	3714      	adds	r7, #20
 8002344:	46bd      	mov	sp, r7
 8002346:	bc80      	pop	{r7}
 8002348:	4770      	bx	lr
	...

0800234c <_sbrk>:
 *
 * @param incr Memory size
 * @return Pointer to allocated memory
 */
void *_sbrk(ptrdiff_t incr)
{
 800234c:	b580      	push	{r7, lr}
 800234e:	b086      	sub	sp, #24
 8002350:	af00      	add	r7, sp, #0
 8002352:	6078      	str	r0, [r7, #4]
  extern uint8_t _end; /* Symbol defined in the linker script */
  extern uint8_t _estack; /* Symbol defined in the linker script */
  extern uint32_t _Min_Stack_Size; /* Symbol defined in the linker script */
  const uint32_t stack_limit = (uint32_t)&_estack - (uint32_t)&_Min_Stack_Size;
 8002354:	4a14      	ldr	r2, [pc, #80]	; (80023a8 <_sbrk+0x5c>)
 8002356:	4b15      	ldr	r3, [pc, #84]	; (80023ac <_sbrk+0x60>)
 8002358:	1ad3      	subs	r3, r2, r3
 800235a:	617b      	str	r3, [r7, #20]
  const uint8_t *max_heap = (uint8_t *)stack_limit;
 800235c:	697b      	ldr	r3, [r7, #20]
 800235e:	613b      	str	r3, [r7, #16]
  uint8_t *prev_heap_end;

  /* Initialize heap end at first call */
  if (NULL == __sbrk_heap_end)
 8002360:	4b13      	ldr	r3, [pc, #76]	; (80023b0 <_sbrk+0x64>)
 8002362:	681b      	ldr	r3, [r3, #0]
 8002364:	2b00      	cmp	r3, #0
 8002366:	d102      	bne.n	800236e <_sbrk+0x22>
  {
    __sbrk_heap_end = &_end;
 8002368:	4b11      	ldr	r3, [pc, #68]	; (80023b0 <_sbrk+0x64>)
 800236a:	4a12      	ldr	r2, [pc, #72]	; (80023b4 <_sbrk+0x68>)
 800236c:	601a      	str	r2, [r3, #0]
  }

  /* Protect heap from growing into the reserved MSP stack */
  if (__sbrk_heap_end + incr > max_heap)
 800236e:	4b10      	ldr	r3, [pc, #64]	; (80023b0 <_sbrk+0x64>)
 8002370:	681a      	ldr	r2, [r3, #0]
 8002372:	687b      	ldr	r3, [r7, #4]
 8002374:	4413      	add	r3, r2
 8002376:	693a      	ldr	r2, [r7, #16]
 8002378:	429a      	cmp	r2, r3
 800237a:	d207      	bcs.n	800238c <_sbrk+0x40>
  {
    errno = ENOMEM;
 800237c:	f002 f8ce 	bl	800451c <__errno>
 8002380:	4603      	mov	r3, r0
 8002382:	220c      	movs	r2, #12
 8002384:	601a      	str	r2, [r3, #0]
    return (void *)-1;
 8002386:	f04f 33ff 	mov.w	r3, #4294967295
 800238a:	e009      	b.n	80023a0 <_sbrk+0x54>
  }

  prev_heap_end = __sbrk_heap_end;
 800238c:	4b08      	ldr	r3, [pc, #32]	; (80023b0 <_sbrk+0x64>)
 800238e:	681b      	ldr	r3, [r3, #0]
 8002390:	60fb      	str	r3, [r7, #12]
  __sbrk_heap_end += incr;
 8002392:	4b07      	ldr	r3, [pc, #28]	; (80023b0 <_sbrk+0x64>)
 8002394:	681a      	ldr	r2, [r3, #0]
 8002396:	687b      	ldr	r3, [r7, #4]
 8002398:	4413      	add	r3, r2
 800239a:	4a05      	ldr	r2, [pc, #20]	; (80023b0 <_sbrk+0x64>)
 800239c:	6013      	str	r3, [r2, #0]

  return (void *)prev_heap_end;
 800239e:	68fb      	ldr	r3, [r7, #12]
}
 80023a0:	4618      	mov	r0, r3
 80023a2:	3718      	adds	r7, #24
 80023a4:	46bd      	mov	sp, r7
 80023a6:	bd80      	pop	{r7, pc}
 80023a8:	20004000 	.word	0x20004000
 80023ac:	00000400 	.word	0x00000400
 80023b0:	20000258 	.word	0x20000258
 80023b4:	20000270 	.word	0x20000270

080023b8 <SystemInit>:
  *         SystemCoreClock variable.
  * @param  None
  * @retval None
  */
void SystemInit (void)
{
 80023b8:	b480      	push	{r7}
 80023ba:	af00      	add	r7, sp, #0
    
  /* Configure the Vector Table location -------------------------------------*/
#if defined(USER_VECT_TAB_ADDRESS)
  SCB->VTOR = VECT_TAB_BASE_ADDRESS | VECT_TAB_OFFSET; /* Vector Table Relocation in Internal SRAM. */
#endif /* USER_VECT_TAB_ADDRESS */
}
 80023bc:	bf00      	nop
 80023be:	46bd      	mov	sp, r7
 80023c0:	bc80      	pop	{r7}
 80023c2:	4770      	bx	lr

080023c4 <Reset_Handler>:
  .weak Reset_Handler
  .type Reset_Handler, %function
Reset_Handler:

/* Copy the data segment initializers from flash to SRAM */
  ldr r0, =_sdata
 80023c4:	480c      	ldr	r0, [pc, #48]	; (80023f8 <LoopFillZerobss+0x12>)
  ldr r1, =_edata
 80023c6:	490d      	ldr	r1, [pc, #52]	; (80023fc <LoopFillZerobss+0x16>)
  ldr r2, =_sidata
 80023c8:	4a0d      	ldr	r2, [pc, #52]	; (8002400 <LoopFillZerobss+0x1a>)
  movs r3, #0
 80023ca:	2300      	movs	r3, #0
  b LoopCopyDataInit
 80023cc:	e002      	b.n	80023d4 <LoopCopyDataInit>

080023ce <CopyDataInit>:

CopyDataInit:
  ldr r4, [r2, r3]
 80023ce:	58d4      	ldr	r4, [r2, r3]
  str r4, [r0, r3]
 80023d0:	50c4      	str	r4, [r0, r3]
  adds r3, r3, #4
 80023d2:	3304      	adds	r3, #4

080023d4 <LoopCopyDataInit>:

LoopCopyDataInit:
  adds r4, r0, r3
 80023d4:	18c4      	adds	r4, r0, r3
  cmp r4, r1
 80023d6:	428c      	cmp	r4, r1
  bcc CopyDataInit
 80023d8:	d3f9      	bcc.n	80023ce <CopyDataInit>
  
/* Zero fill the bss segment. */
  ldr r2, =_sbss
 80023da:	4a0a      	ldr	r2, [pc, #40]	; (8002404 <LoopFillZerobss+0x1e>)
  ldr r4, =_ebss
 80023dc:	4c0a      	ldr	r4, [pc, #40]	; (8002408 <LoopFillZerobss+0x22>)
  movs r3, #0
 80023de:	2300      	movs	r3, #0
  b LoopFillZerobss
 80023e0:	e001      	b.n	80023e6 <LoopFillZerobss>

080023e2 <FillZerobss>:

FillZerobss:
  str  r3, [r2]
 80023e2:	6013      	str	r3, [r2, #0]
  adds r2, r2, #4
 80023e4:	3204      	adds	r2, #4

080023e6 <LoopFillZerobss>:

LoopFillZerobss:
  cmp r2, r4
 80023e6:	42a2      	cmp	r2, r4
  bcc FillZerobss
 80023e8:	d3fb      	bcc.n	80023e2 <FillZerobss>

/* Call the clock system intitialization function.*/
    bl  SystemInit
 80023ea:	f7ff ffe5 	bl	80023b8 <SystemInit>
/* Call static constructors */
    bl __libc_init_array
 80023ee:	f002 f89b 	bl	8004528 <__libc_init_array>
/* Call the application's entry point.*/
  bl main
 80023f2:	f7fe f94d 	bl	8000690 <main>
  bx lr
 80023f6:	4770      	bx	lr
  ldr r0, =_sdata
 80023f8:	20000000 	.word	0x20000000
  ldr r1, =_edata
 80023fc:	20000078 	.word	0x20000078
  ldr r2, =_sidata
 8002400:	08005804 	.word	0x08005804
  ldr r2, =_sbss
 8002404:	20000078 	.word	0x20000078
  ldr r4, =_ebss
 8002408:	20000270 	.word	0x20000270

0800240c <ADC1_IRQHandler>:
 * @retval : None
*/
    .section .text.Default_Handler,"ax",%progbits
Default_Handler:
Infinite_Loop:
  b Infinite_Loop
 800240c:	e7fe      	b.n	800240c <ADC1_IRQHandler>

0800240e <HAL_Init>:
  *        In the default implementation,Systick is used as source of time base.
  *        the tick variable is incremented each 1ms in its ISR.
  * @retval HAL status
  */
HAL_StatusTypeDef HAL_Init(void)
{
 800240e:	b580      	push	{r7, lr}
 8002410:	b082      	sub	sp, #8
 8002412:	af00      	add	r7, sp, #0
  HAL_StatusTypeDef  status = HAL_OK;
 8002414:	2300      	movs	r3, #0
 8002416:	71fb      	strb	r3, [r7, #7]
#if (PREFETCH_ENABLE != 0)
  __HAL_FLASH_PREFETCH_BUFFER_ENABLE();
#endif /* PREFETCH_ENABLE */

  /* Set Interrupt Group Priority */
  HAL_NVIC_SetPriorityGrouping(NVIC_PRIORITYGROUP_4);
 8002418:	2003      	movs	r0, #3
 800241a:	f000 fbcf 	bl	8002bbc <HAL_NVIC_SetPriorityGrouping>

  /* Use systick as time base source and configure 1ms tick (default clock after Reset is MSI) */
  if (HAL_InitTick(TICK_INT_PRIORITY) != HAL_OK)
 800241e:	2000      	movs	r0, #0
 8002420:	f000 f80e 	bl	8002440 <HAL_InitTick>
 8002424:	4603      	mov	r3, r0
 8002426:	2b00      	cmp	r3, #0
 8002428:	d002      	beq.n	8002430 <HAL_Init+0x22>
  {
    status = HAL_ERROR;
 800242a:	2301      	movs	r3, #1
 800242c:	71fb      	strb	r3, [r7, #7]
 800242e:	e001      	b.n	8002434 <HAL_Init+0x26>
  }
  else
  {
    /* Init the low level hardware */
    HAL_MspInit();
 8002430:	f7ff fd60 	bl	8001ef4 <HAL_MspInit>
  }

  /* Return function status */
  return status;
 8002434:	79fb      	ldrb	r3, [r7, #7]
}
 8002436:	4618      	mov	r0, r3
 8002438:	3708      	adds	r7, #8
 800243a:	46bd      	mov	sp, r7
 800243c:	bd80      	pop	{r7, pc}
	...

08002440 <HAL_InitTick>:
  *       implementation  in user file.
  * @param TickPriority Tick interrupt priority.
  * @retval HAL status
  */
__weak HAL_StatusTypeDef HAL_InitTick(uint32_t TickPriority)
{
 8002440:	b580      	push	{r7, lr}
 8002442:	b084      	sub	sp, #16
 8002444:	af00      	add	r7, sp, #0
 8002446:	6078      	str	r0, [r7, #4]
  HAL_StatusTypeDef  status = HAL_OK;
 8002448:	2300      	movs	r3, #0
 800244a:	73fb      	strb	r3, [r7, #15]

  if (uwTickFreq != 0U)
 800244c:	4b16      	ldr	r3, [pc, #88]	; (80024a8 <HAL_InitTick+0x68>)
 800244e:	681b      	ldr	r3, [r3, #0]
 8002450:	2b00      	cmp	r3, #0
 8002452:	d022      	beq.n	800249a <HAL_InitTick+0x5a>
  {
    /*Configure the SysTick to have interrupt in 1ms time basis*/
    if (HAL_SYSTICK_Config(SystemCoreClock / (1000U / uwTickFreq)) == 0U)
 8002454:	4b15      	ldr	r3, [pc, #84]	; (80024ac <HAL_InitTick+0x6c>)
 8002456:	681a      	ldr	r2, [r3, #0]
 8002458:	4b13      	ldr	r3, [pc, #76]	; (80024a8 <HAL_InitTick+0x68>)
 800245a:	681b      	ldr	r3, [r3, #0]
 800245c:	f44f 717a 	mov.w	r1, #1000	; 0x3e8
 8002460:	fbb1 f3f3 	udiv	r3, r1, r3
 8002464:	fbb2 f3f3 	udiv	r3, r2, r3
 8002468:	4618      	mov	r0, r3
 800246a:	f000 fbce 	bl	8002c0a <HAL_SYSTICK_Config>
 800246e:	4603      	mov	r3, r0
 8002470:	2b00      	cmp	r3, #0
 8002472:	d10f      	bne.n	8002494 <HAL_InitTick+0x54>
    {
      /* Configure the SysTick IRQ priority */
      if (TickPriority < (1UL << __NVIC_PRIO_BITS))
 8002474:	687b      	ldr	r3, [r7, #4]
 8002476:	2b0f      	cmp	r3, #15
 8002478:	d809      	bhi.n	800248e <HAL_InitTick+0x4e>
      {
        HAL_NVIC_SetPriority(SysTick_IRQn, TickPriority, 0U);
 800247a:	2200      	movs	r2, #0
 800247c:	6879      	ldr	r1, [r7, #4]
 800247e:	f04f 30ff 	mov.w	r0, #4294967295
 8002482:	f000 fba6 	bl	8002bd2 <HAL_NVIC_SetPriority>
        uwTickPrio = TickPriority;
 8002486:	4a0a      	ldr	r2, [pc, #40]	; (80024b0 <HAL_InitTick+0x70>)
 8002488:	687b      	ldr	r3, [r7, #4]
 800248a:	6013      	str	r3, [r2, #0]
 800248c:	e007      	b.n	800249e <HAL_InitTick+0x5e>
      }
      else
      {
        status = HAL_ERROR;
 800248e:	2301      	movs	r3, #1
 8002490:	73fb      	strb	r3, [r7, #15]
 8002492:	e004      	b.n	800249e <HAL_InitTick+0x5e>
      }
    }
    else
    {
      status = HAL_ERROR;
 8002494:	2301      	movs	r3, #1
 8002496:	73fb      	strb	r3, [r7, #15]
 8002498:	e001      	b.n	800249e <HAL_InitTick+0x5e>
    }
  }
  else
  {
    status = HAL_ERROR;
 800249a:	2301      	movs	r3, #1
 800249c:	73fb      	strb	r3, [r7, #15]
  }

  /* Return function status */
  return status;
 800249e:	7bfb      	ldrb	r3, [r7, #15]
}
 80024a0:	4618      	mov	r0, r3
 80024a2:	3710      	adds	r7, #16
 80024a4:	46bd      	mov	sp, r7
 80024a6:	bd80      	pop	{r7, pc}
 80024a8:	20000010 	.word	0x20000010
 80024ac:	20000008 	.word	0x20000008
 80024b0:	2000000c 	.word	0x2000000c

080024b4 <HAL_IncTick>:
 * @note This function is declared as __weak to be overwritten in case of other
  *      implementations in user file.
  * @retval None
  */
__weak void HAL_IncTick(void)
{
 80024b4:	b480      	push	{r7}
 80024b6:	af00      	add	r7, sp, #0
  uwTick += uwTickFreq;
 80024b8:	4b05      	ldr	r3, [pc, #20]	; (80024d0 <HAL_IncTick+0x1c>)
 80024ba:	681a      	ldr	r2, [r3, #0]
 80024bc:	4b05      	ldr	r3, [pc, #20]	; (80024d4 <HAL_IncTick+0x20>)
 80024be:	681b      	ldr	r3, [r3, #0]
 80024c0:	4413      	add	r3, r2
 80024c2:	4a03      	ldr	r2, [pc, #12]	; (80024d0 <HAL_IncTick+0x1c>)
 80024c4:	6013      	str	r3, [r2, #0]
}
 80024c6:	bf00      	nop
 80024c8:	46bd      	mov	sp, r7
 80024ca:	bc80      	pop	{r7}
 80024cc:	4770      	bx	lr
 80024ce:	bf00      	nop
 80024d0:	2000025c 	.word	0x2000025c
 80024d4:	20000010 	.word	0x20000010

080024d8 <HAL_GetTick>:
  * @note This function is declared as __weak to be overwritten in case of other
  *       implementations in user file.
  * @retval tick value
  */
__weak uint32_t HAL_GetTick(void)
{
 80024d8:	b480      	push	{r7}
 80024da:	af00      	add	r7, sp, #0
  return uwTick;
 80024dc:	4b02      	ldr	r3, [pc, #8]	; (80024e8 <HAL_GetTick+0x10>)
 80024de:	681b      	ldr	r3, [r3, #0]
}
 80024e0:	4618      	mov	r0, r3
 80024e2:	46bd      	mov	sp, r7
 80024e4:	bc80      	pop	{r7}
 80024e6:	4770      	bx	lr
 80024e8:	2000025c 	.word	0x2000025c

080024ec <HAL_Delay>:
  *       implementations in user file.
  * @param Delay specifies the delay time length, in milliseconds.
  * @retval None
  */
__weak void HAL_Delay(uint32_t Delay)
{
 80024ec:	b580      	push	{r7, lr}
 80024ee:	b084      	sub	sp, #16
 80024f0:	af00      	add	r7, sp, #0
 80024f2:	6078      	str	r0, [r7, #4]
  uint32_t tickstart = HAL_GetTick();
 80024f4:	f7ff fff0 	bl	80024d8 <HAL_GetTick>
 80024f8:	60b8      	str	r0, [r7, #8]
  uint32_t wait = Delay;
 80024fa:	687b      	ldr	r3, [r7, #4]
 80024fc:	60fb      	str	r3, [r7, #12]

  /* Add a period to guaranty minimum wait */
  if (wait < HAL_MAX_DELAY)
 80024fe:	68fb      	ldr	r3, [r7, #12]
 8002500:	f1b3 3fff 	cmp.w	r3, #4294967295
 8002504:	d004      	beq.n	8002510 <HAL_Delay+0x24>
  {
    wait += (uint32_t)(uwTickFreq);
 8002506:	4b09      	ldr	r3, [pc, #36]	; (800252c <HAL_Delay+0x40>)
 8002508:	681b      	ldr	r3, [r3, #0]
 800250a:	68fa      	ldr	r2, [r7, #12]
 800250c:	4413      	add	r3, r2
 800250e:	60fb      	str	r3, [r7, #12]
  }

  while((HAL_GetTick() - tickstart) < wait)
 8002510:	bf00      	nop
 8002512:	f7ff ffe1 	bl	80024d8 <HAL_GetTick>
 8002516:	4602      	mov	r2, r0
 8002518:	68bb      	ldr	r3, [r7, #8]
 800251a:	1ad3      	subs	r3, r2, r3
 800251c:	68fa      	ldr	r2, [r7, #12]
 800251e:	429a      	cmp	r2, r3
 8002520:	d8f7      	bhi.n	8002512 <HAL_Delay+0x26>
  {
  }
}
 8002522:	bf00      	nop
 8002524:	bf00      	nop
 8002526:	3710      	adds	r7, #16
 8002528:	46bd      	mov	sp, r7
 800252a:	bd80      	pop	{r7, pc}
 800252c:	20000010 	.word	0x20000010

08002530 <HAL_ADC_Init>:
  *         of structure "ADC_InitTypeDef".
  * @param  hadc ADC handle
  * @retval HAL status
  */
HAL_StatusTypeDef HAL_ADC_Init(ADC_HandleTypeDef* hadc)
{
 8002530:	b580      	push	{r7, lr}
 8002532:	b08e      	sub	sp, #56	; 0x38
 8002534:	af00      	add	r7, sp, #0
 8002536:	6078      	str	r0, [r7, #4]
  HAL_StatusTypeDef tmp_hal_status = HAL_OK;
 8002538:	2300      	movs	r3, #0
 800253a:	f887 3037 	strb.w	r3, [r7, #55]	; 0x37
  uint32_t tmp_cr1 = 0;
 800253e:	2300      	movs	r3, #0
 8002540:	633b      	str	r3, [r7, #48]	; 0x30
  uint32_t tmp_cr2 = 0;
 8002542:	2300      	movs	r3, #0
 8002544:	62fb      	str	r3, [r7, #44]	; 0x2c
  
  /* Check ADC handle */
  if(hadc == NULL)
 8002546:	687b      	ldr	r3, [r7, #4]
 8002548:	2b00      	cmp	r3, #0
 800254a:	d101      	bne.n	8002550 <HAL_ADC_Init+0x20>
  {
    return HAL_ERROR;
 800254c:	2301      	movs	r3, #1
 800254e:	e127      	b.n	80027a0 <HAL_ADC_Init+0x270>
  assert_param(IS_ADC_CHANNELSBANK(hadc->Init.ChannelsBank));
  assert_param(IS_FUNCTIONAL_STATE(hadc->Init.ContinuousConvMode));
  assert_param(IS_ADC_EXTTRIG(hadc->Init.ExternalTrigConv));
  assert_param(IS_FUNCTIONAL_STATE(hadc->Init.DMAContinuousRequests));
  
  if(hadc->Init.ScanConvMode != ADC_SCAN_DISABLE)
 8002550:	687b      	ldr	r3, [r7, #4]
 8002552:	691b      	ldr	r3, [r3, #16]
 8002554:	2b00      	cmp	r3, #0
  /* Refer to header of this file for more details on clock enabling          */
  /* procedure.                                                               */

  /* Actions performed only if ADC is coming from state reset:                */
  /* - Initialization of ADC MSP                                              */
  if (hadc->State == HAL_ADC_STATE_RESET)
 8002556:	687b      	ldr	r3, [r7, #4]
 8002558:	6cdb      	ldr	r3, [r3, #76]	; 0x4c
 800255a:	2b00      	cmp	r3, #0
 800255c:	d115      	bne.n	800258a <HAL_ADC_Init+0x5a>
  {
    /* Initialize ADC error code */
    ADC_CLEAR_ERRORCODE(hadc);
 800255e:	687b      	ldr	r3, [r7, #4]
 8002560:	2200      	movs	r2, #0
 8002562:	651a      	str	r2, [r3, #80]	; 0x50
    
    /* Allocate lock resource and initialize it */
    hadc->Lock = HAL_UNLOCKED;
 8002564:	687b      	ldr	r3, [r7, #4]
 8002566:	2200      	movs	r2, #0
 8002568:	f883 2048 	strb.w	r2, [r3, #72]	; 0x48
    
    /* Enable SYSCFG clock to control the routing Interface (RI) */
    __HAL_RCC_SYSCFG_CLK_ENABLE();
 800256c:	4b8e      	ldr	r3, [pc, #568]	; (80027a8 <HAL_ADC_Init+0x278>)
 800256e:	6a1b      	ldr	r3, [r3, #32]
 8002570:	4a8d      	ldr	r2, [pc, #564]	; (80027a8 <HAL_ADC_Init+0x278>)
 8002572:	f043 0301 	orr.w	r3, r3, #1
 8002576:	6213      	str	r3, [r2, #32]
 8002578:	4b8b      	ldr	r3, [pc, #556]	; (80027a8 <HAL_ADC_Init+0x278>)
 800257a:	6a1b      	ldr	r3, [r3, #32]
 800257c:	f003 0301 	and.w	r3, r3, #1
 8002580:	60bb      	str	r3, [r7, #8]
 8002582:	68bb      	ldr	r3, [r7, #8]
    
    /* Init the low level hardware */
    hadc->MspInitCallback(hadc);
#else
    /* Init the low level hardware */
    HAL_ADC_MspInit(hadc);
 8002584:	6878      	ldr	r0, [r7, #4]
 8002586:	f7ff fce5 	bl	8001f54 <HAL_ADC_MspInit>
#endif /* USE_HAL_ADC_REGISTER_CALLBACKS */
  }
  
  /* Configuration of ADC parameters if previous preliminary actions are      */ 
  /* correctly completed.                                                     */
  if (HAL_IS_BIT_CLR(hadc->State, HAL_ADC_STATE_ERROR_INTERNAL))
 800258a:	687b      	ldr	r3, [r7, #4]
 800258c:	6cdb      	ldr	r3, [r3, #76]	; 0x4c
 800258e:	f003 0310 	and.w	r3, r3, #16
 8002592:	2b00      	cmp	r3, #0
 8002594:	f040 80ff 	bne.w	8002796 <HAL_ADC_Init+0x266>
  {
    /* Set ADC state */
    ADC_STATE_CLR_SET(hadc->State,
 8002598:	687b      	ldr	r3, [r7, #4]
 800259a:	6cdb      	ldr	r3, [r3, #76]	; 0x4c
 800259c:	f423 5388 	bic.w	r3, r3, #4352	; 0x1100
 80025a0:	f023 0302 	bic.w	r3, r3, #2
 80025a4:	f043 0202 	orr.w	r2, r3, #2
 80025a8:	687b      	ldr	r3, [r7, #4]
 80025aa:	64da      	str	r2, [r3, #76]	; 0x4c
    
    /* Set ADC parameters */
    
    /* Configuration of common ADC clock: clock source HSI with selectable    */
    /* prescaler                                                              */
    MODIFY_REG(ADC->CCR                 ,
 80025ac:	4b7f      	ldr	r3, [pc, #508]	; (80027ac <HAL_ADC_Init+0x27c>)
 80025ae:	685b      	ldr	r3, [r3, #4]
 80025b0:	f423 3240 	bic.w	r2, r3, #196608	; 0x30000
 80025b4:	687b      	ldr	r3, [r7, #4]
 80025b6:	685b      	ldr	r3, [r3, #4]
 80025b8:	497c      	ldr	r1, [pc, #496]	; (80027ac <HAL_ADC_Init+0x27c>)
 80025ba:	4313      	orrs	r3, r2
 80025bc:	604b      	str	r3, [r1, #4]
    /*  - external trigger polarity                                           */
    /*  - End of conversion selection                                         */
    /*  - DMA continuous request                                              */
    /*  - Channels bank (Banks availability depends on devices categories)    */
    /*  - continuous conversion mode                                          */
    tmp_cr2 |= (hadc->Init.DataAlign                                           |
 80025be:	687b      	ldr	r3, [r7, #4]
 80025c0:	68da      	ldr	r2, [r3, #12]
                hadc->Init.EOCSelection                                        |
 80025c2:	687b      	ldr	r3, [r7, #4]
 80025c4:	695b      	ldr	r3, [r3, #20]
    tmp_cr2 |= (hadc->Init.DataAlign                                           |
 80025c6:	431a      	orrs	r2, r3
                ADC_CR2_DMACONTREQ((uint32_t)hadc->Init.DMAContinuousRequests) |
 80025c8:	687b      	ldr	r3, [r7, #4]
 80025ca:	f893 303c 	ldrb.w	r3, [r3, #60]	; 0x3c
 80025ce:	4619      	mov	r1, r3
 80025d0:	f44f 7300 	mov.w	r3, #512	; 0x200
 80025d4:	623b      	str	r3, [r7, #32]
  uint32_t result;

#if ((defined (__ARM_ARCH_7M__      ) && (__ARM_ARCH_7M__      == 1)) || \
     (defined (__ARM_ARCH_7EM__     ) && (__ARM_ARCH_7EM__     == 1)) || \
     (defined (__ARM_ARCH_8M_MAIN__ ) && (__ARM_ARCH_8M_MAIN__ == 1))    )
   __ASM volatile ("rbit %0, %1" : "=r" (result) : "r" (value) );
 80025d6:	6a3b      	ldr	r3, [r7, #32]
 80025d8:	fa93 f3a3 	rbit	r3, r3
 80025dc:	61fb      	str	r3, [r7, #28]
    result |= value & 1U;
    s--;
  }
  result <<= s;                        /* shift when v's highest bits are zero */
#endif
  return result;
 80025de:	69fb      	ldr	r3, [r7, #28]
 80025e0:	fab3 f383 	clz	r3, r3
 80025e4:	b2db      	uxtb	r3, r3
 80025e6:	fa01 f303 	lsl.w	r3, r1, r3
                hadc->Init.EOCSelection                                        |
 80025ea:	431a      	orrs	r2, r3
                hadc->Init.ChannelsBank                                        |
 80025ec:	687b      	ldr	r3, [r7, #4]
 80025ee:	6a1b      	ldr	r3, [r3, #32]
                ADC_CR2_DMACONTREQ((uint32_t)hadc->Init.DMAContinuousRequests) |
 80025f0:	431a      	orrs	r2, r3
                ADC_CR2_CONTINUOUS((uint32_t)hadc->Init.ContinuousConvMode)     );
 80025f2:	687b      	ldr	r3, [r7, #4]
 80025f4:	f893 3024 	ldrb.w	r3, [r3, #36]	; 0x24
 80025f8:	4619      	mov	r1, r3
 80025fa:	2302      	movs	r3, #2
 80025fc:	62bb      	str	r3, [r7, #40]	; 0x28
   __ASM volatile ("rbit %0, %1" : "=r" (result) : "r" (value) );
 80025fe:	6abb      	ldr	r3, [r7, #40]	; 0x28
 8002600:	fa93 f3a3 	rbit	r3, r3
 8002604:	627b      	str	r3, [r7, #36]	; 0x24
  return result;
 8002606:	6a7b      	ldr	r3, [r7, #36]	; 0x24
 8002608:	fab3 f383 	clz	r3, r3
 800260c:	b2db      	uxtb	r3, r3
 800260e:	fa01 f303 	lsl.w	r3, r1, r3
                hadc->Init.ChannelsBank                                        |
 8002612:	4313      	orrs	r3, r2
    tmp_cr2 |= (hadc->Init.DataAlign                                           |
 8002614:	6afa      	ldr	r2, [r7, #44]	; 0x2c
 8002616:	4313      	orrs	r3, r2
 8002618:	62fb      	str	r3, [r7, #44]	; 0x2c
    /* Enable external trigger if trigger selection is different of software  */
    /* start.                                                                 */
    /* Note: This configuration keeps the hardware feature of parameter       */
    /*       ExternalTrigConvEdge "trigger edge none" equivalent to           */
    /*       software start.                                                  */
    if (hadc->Init.ExternalTrigConv != ADC_SOFTWARE_START)
 800261a:	687b      	ldr	r3, [r7, #4]
 800261c:	6b5b      	ldr	r3, [r3, #52]	; 0x34
 800261e:	2b10      	cmp	r3, #16
 8002620:	d007      	beq.n	8002632 <HAL_ADC_Init+0x102>
    {
      tmp_cr2 |= ( hadc->Init.ExternalTrigConv    |
 8002622:	687b      	ldr	r3, [r7, #4]
 8002624:	6b5a      	ldr	r2, [r3, #52]	; 0x34
                  hadc->Init.ExternalTrigConvEdge );
 8002626:	687b      	ldr	r3, [r7, #4]
 8002628:	6b9b      	ldr	r3, [r3, #56]	; 0x38
      tmp_cr2 |= ( hadc->Init.ExternalTrigConv    |
 800262a:	4313      	orrs	r3, r2
 800262c:	6afa      	ldr	r2, [r7, #44]	; 0x2c
 800262e:	4313      	orrs	r3, r2
 8002630:	62fb      	str	r3, [r7, #44]	; 0x2c
    /*  - resolution                                                          */
    /*  - auto power off (LowPowerAutoPowerOff mode)                          */
    /*  - scan mode                                                           */
    /*  - discontinuous mode disable/enable                                   */
    /*  - discontinuous mode number of conversions                            */
    if ((ADC_IS_ENABLE(hadc) == RESET))
 8002632:	687b      	ldr	r3, [r7, #4]
 8002634:	681b      	ldr	r3, [r3, #0]
 8002636:	681b      	ldr	r3, [r3, #0]
 8002638:	f003 0340 	and.w	r3, r3, #64	; 0x40
 800263c:	2b40      	cmp	r3, #64	; 0x40
 800263e:	d04f      	beq.n	80026e0 <HAL_ADC_Init+0x1b0>
    {
      tmp_cr2 |= hadc->Init.LowPowerAutoWait;
 8002640:	687b      	ldr	r3, [r7, #4]
 8002642:	699b      	ldr	r3, [r3, #24]
 8002644:	6afa      	ldr	r2, [r7, #44]	; 0x2c
 8002646:	4313      	orrs	r3, r2
 8002648:	62fb      	str	r3, [r7, #44]	; 0x2c
      
      tmp_cr1 |= (hadc->Init.Resolution                     |
 800264a:	687b      	ldr	r3, [r7, #4]
 800264c:	689a      	ldr	r2, [r3, #8]
                  hadc->Init.LowPowerAutoPowerOff           |
 800264e:	687b      	ldr	r3, [r7, #4]
 8002650:	69db      	ldr	r3, [r3, #28]
      tmp_cr1 |= (hadc->Init.Resolution                     |
 8002652:	4313      	orrs	r3, r2
                  ADC_CR1_SCAN_SET(hadc->Init.ScanConvMode)  );
 8002654:	687a      	ldr	r2, [r7, #4]
 8002656:	6912      	ldr	r2, [r2, #16]
 8002658:	f5b2 7f80 	cmp.w	r2, #256	; 0x100
 800265c:	d003      	beq.n	8002666 <HAL_ADC_Init+0x136>
 800265e:	687a      	ldr	r2, [r7, #4]
 8002660:	6912      	ldr	r2, [r2, #16]
 8002662:	2a01      	cmp	r2, #1
 8002664:	d102      	bne.n	800266c <HAL_ADC_Init+0x13c>
 8002666:	f44f 7280 	mov.w	r2, #256	; 0x100
 800266a:	e000      	b.n	800266e <HAL_ADC_Init+0x13e>
 800266c:	2200      	movs	r2, #0
                  hadc->Init.LowPowerAutoPowerOff           |
 800266e:	4313      	orrs	r3, r2
      tmp_cr1 |= (hadc->Init.Resolution                     |
 8002670:	6b3a      	ldr	r2, [r7, #48]	; 0x30
 8002672:	4313      	orrs	r3, r2
 8002674:	633b      	str	r3, [r7, #48]	; 0x30
      
      /* Enable discontinuous mode only if continuous mode is disabled */
      /* Note: If parameter "Init.ScanConvMode" is set to disable, parameter  */
      /*       discontinuous is set anyway, but has no effect on ADC HW.      */
      if (hadc->Init.DiscontinuousConvMode == ENABLE)
 8002676:	687b      	ldr	r3, [r7, #4]
 8002678:	f893 302c 	ldrb.w	r3, [r3, #44]	; 0x2c
 800267c:	2b01      	cmp	r3, #1
 800267e:	d125      	bne.n	80026cc <HAL_ADC_Init+0x19c>
      {
        if (hadc->Init.ContinuousConvMode == DISABLE)
 8002680:	687b      	ldr	r3, [r7, #4]
 8002682:	f893 3024 	ldrb.w	r3, [r3, #36]	; 0x24
 8002686:	2b00      	cmp	r3, #0
 8002688:	d114      	bne.n	80026b4 <HAL_ADC_Init+0x184>
        {
          /* Enable the selected ADC regular discontinuous mode */
          /* Set the number of channels to be converted in discontinuous mode */
          SET_BIT(tmp_cr1, ADC_CR1_DISCEN                                            |
 800268a:	687b      	ldr	r3, [r7, #4]
 800268c:	6b1b      	ldr	r3, [r3, #48]	; 0x30
 800268e:	3b01      	subs	r3, #1
 8002690:	f44f 4260 	mov.w	r2, #57344	; 0xe000
 8002694:	61ba      	str	r2, [r7, #24]
   __ASM volatile ("rbit %0, %1" : "=r" (result) : "r" (value) );
 8002696:	69ba      	ldr	r2, [r7, #24]
 8002698:	fa92 f2a2 	rbit	r2, r2
 800269c:	617a      	str	r2, [r7, #20]
  return result;
 800269e:	697a      	ldr	r2, [r7, #20]
 80026a0:	fab2 f282 	clz	r2, r2
 80026a4:	b2d2      	uxtb	r2, r2
 80026a6:	4093      	lsls	r3, r2
 80026a8:	f443 6300 	orr.w	r3, r3, #2048	; 0x800
 80026ac:	6b3a      	ldr	r2, [r7, #48]	; 0x30
 80026ae:	4313      	orrs	r3, r2
 80026b0:	633b      	str	r3, [r7, #48]	; 0x30
 80026b2:	e00b      	b.n	80026cc <HAL_ADC_Init+0x19c>
        {
          /* ADC regular group settings continuous and sequencer discontinuous*/
          /* cannot be enabled simultaneously.                                */
          
          /* Update ADC state machine to error */
          SET_BIT(hadc->State, HAL_ADC_STATE_ERROR_CONFIG);
 80026b4:	687b      	ldr	r3, [r7, #4]
 80026b6:	6cdb      	ldr	r3, [r3, #76]	; 0x4c
 80026b8:	f043 0220 	orr.w	r2, r3, #32
 80026bc:	687b      	ldr	r3, [r7, #4]
 80026be:	64da      	str	r2, [r3, #76]	; 0x4c
          
          /* Set ADC error code to ADC IP internal error */
          SET_BIT(hadc->ErrorCode, HAL_ADC_ERROR_INTERNAL);
 80026c0:	687b      	ldr	r3, [r7, #4]
 80026c2:	6d1b      	ldr	r3, [r3, #80]	; 0x50
 80026c4:	f043 0201 	orr.w	r2, r3, #1
 80026c8:	687b      	ldr	r3, [r7, #4]
 80026ca:	651a      	str	r2, [r3, #80]	; 0x50
        }
      }
      
      /* Update ADC configuration register CR1 with previous settings */
        MODIFY_REG(hadc->Instance->CR1,
 80026cc:	687b      	ldr	r3, [r7, #4]
 80026ce:	681b      	ldr	r3, [r3, #0]
 80026d0:	685a      	ldr	r2, [r3, #4]
 80026d2:	4b37      	ldr	r3, [pc, #220]	; (80027b0 <HAL_ADC_Init+0x280>)
 80026d4:	4013      	ands	r3, r2
 80026d6:	687a      	ldr	r2, [r7, #4]
 80026d8:	6812      	ldr	r2, [r2, #0]
 80026da:	6b39      	ldr	r1, [r7, #48]	; 0x30
 80026dc:	430b      	orrs	r3, r1
 80026de:	6053      	str	r3, [r2, #4]
                   ADC_CR1_SCAN     ,
                   tmp_cr1           );
    }
    
    /* Update ADC configuration register CR2 with previous settings */
    MODIFY_REG(hadc->Instance->CR2    ,
 80026e0:	687b      	ldr	r3, [r7, #4]
 80026e2:	681b      	ldr	r3, [r3, #0]
 80026e4:	689a      	ldr	r2, [r3, #8]
 80026e6:	4b33      	ldr	r3, [pc, #204]	; (80027b4 <HAL_ADC_Init+0x284>)
 80026e8:	4013      	ands	r3, r2
 80026ea:	687a      	ldr	r2, [r7, #4]
 80026ec:	6812      	ldr	r2, [r2, #0]
 80026ee:	6af9      	ldr	r1, [r7, #44]	; 0x2c
 80026f0:	430b      	orrs	r3, r1
 80026f2:	6093      	str	r3, [r2, #8]
    /*   Note: Scan mode is present by hardware on this device and, if        */
    /*   disabled, discards automatically nb of conversions. Anyway, nb of    */
    /*   conversions is forced to 0x00 for alignment over all STM32 devices.  */
    /* - if scan mode is enabled, regular channels sequence length is set to  */
    /*   parameter "NbrOfConversion"                                          */
    if (ADC_CR1_SCAN_SET(hadc->Init.ScanConvMode) == ADC_SCAN_ENABLE)
 80026f4:	687b      	ldr	r3, [r7, #4]
 80026f6:	691b      	ldr	r3, [r3, #16]
 80026f8:	f5b3 7f80 	cmp.w	r3, #256	; 0x100
 80026fc:	d003      	beq.n	8002706 <HAL_ADC_Init+0x1d6>
 80026fe:	687b      	ldr	r3, [r7, #4]
 8002700:	691b      	ldr	r3, [r3, #16]
 8002702:	2b01      	cmp	r3, #1
 8002704:	d119      	bne.n	800273a <HAL_ADC_Init+0x20a>
    {
      MODIFY_REG(hadc->Instance->SQR1                         ,
 8002706:	687b      	ldr	r3, [r7, #4]
 8002708:	681b      	ldr	r3, [r3, #0]
 800270a:	6b1b      	ldr	r3, [r3, #48]	; 0x30
 800270c:	f023 71f8 	bic.w	r1, r3, #32505856	; 0x1f00000
 8002710:	687b      	ldr	r3, [r7, #4]
 8002712:	6a9b      	ldr	r3, [r3, #40]	; 0x28
 8002714:	3b01      	subs	r3, #1
 8002716:	f04f 72f8 	mov.w	r2, #32505856	; 0x1f00000
 800271a:	613a      	str	r2, [r7, #16]
   __ASM volatile ("rbit %0, %1" : "=r" (result) : "r" (value) );
 800271c:	693a      	ldr	r2, [r7, #16]
 800271e:	fa92 f2a2 	rbit	r2, r2
 8002722:	60fa      	str	r2, [r7, #12]
  return result;
 8002724:	68fa      	ldr	r2, [r7, #12]
 8002726:	fab2 f282 	clz	r2, r2
 800272a:	b2d2      	uxtb	r2, r2
 800272c:	fa03 f202 	lsl.w	r2, r3, r2
 8002730:	687b      	ldr	r3, [r7, #4]
 8002732:	681b      	ldr	r3, [r3, #0]
 8002734:	430a      	orrs	r2, r1
 8002736:	631a      	str	r2, [r3, #48]	; 0x30
 8002738:	e007      	b.n	800274a <HAL_ADC_Init+0x21a>
                 ADC_SQR1_L                                   ,
                 ADC_SQR1_L_SHIFT(hadc->Init.NbrOfConversion)  );
    }
    else
    {
      MODIFY_REG(hadc->Instance->SQR1,
 800273a:	687b      	ldr	r3, [r7, #4]
 800273c:	681b      	ldr	r3, [r3, #0]
 800273e:	6b1a      	ldr	r2, [r3, #48]	; 0x30
 8002740:	687b      	ldr	r3, [r7, #4]
 8002742:	681b      	ldr	r3, [r3, #0]
 8002744:	f022 72f8 	bic.w	r2, r2, #32505856	; 0x1f00000
 8002748:	631a      	str	r2, [r3, #48]	; 0x30
    
    /* Check back that ADC registers have effectively been configured to      */
    /* ensure of no potential problem of ADC core IP clocking.                */
    /* Check through register CR2 (excluding execution control bits ADON,     */
    /* JSWSTART, SWSTART and injected trigger bits JEXTEN and JEXTSEL).       */
    if ((READ_REG(hadc->Instance->CR2) & ~(ADC_CR2_ADON |
 800274a:	687b      	ldr	r3, [r7, #4]
 800274c:	681b      	ldr	r3, [r3, #0]
 800274e:	689a      	ldr	r2, [r3, #8]
 8002750:	4b19      	ldr	r3, [pc, #100]	; (80027b8 <HAL_ADC_Init+0x288>)
 8002752:	4013      	ands	r3, r2
 8002754:	6afa      	ldr	r2, [r7, #44]	; 0x2c
 8002756:	429a      	cmp	r2, r3
 8002758:	d10b      	bne.n	8002772 <HAL_ADC_Init+0x242>
                                           ADC_CR2_SWSTART | ADC_CR2_JSWSTART |
                                           ADC_CR2_JEXTEN  | ADC_CR2_JEXTSEL   ))
         == tmp_cr2)
    {
      /* Set ADC error code to none */
      ADC_CLEAR_ERRORCODE(hadc);
 800275a:	687b      	ldr	r3, [r7, #4]
 800275c:	2200      	movs	r2, #0
 800275e:	651a      	str	r2, [r3, #80]	; 0x50
      
      /* Set the ADC state */
      ADC_STATE_CLR_SET(hadc->State,
 8002760:	687b      	ldr	r3, [r7, #4]
 8002762:	6cdb      	ldr	r3, [r3, #76]	; 0x4c
 8002764:	f023 0303 	bic.w	r3, r3, #3
 8002768:	f043 0201 	orr.w	r2, r3, #1
 800276c:	687b      	ldr	r3, [r7, #4]
 800276e:	64da      	str	r2, [r3, #76]	; 0x4c
 8002770:	e014      	b.n	800279c <HAL_ADC_Init+0x26c>
                        HAL_ADC_STATE_READY);
    }
    else
    {
      /* Update ADC state machine to error */
      ADC_STATE_CLR_SET(hadc->State,
 8002772:	687b      	ldr	r3, [r7, #4]
 8002774:	6cdb      	ldr	r3, [r3, #76]	; 0x4c
 8002776:	f023 0312 	bic.w	r3, r3, #18
 800277a:	f043 0210 	orr.w	r2, r3, #16
 800277e:	687b      	ldr	r3, [r7, #4]
 8002780:	64da      	str	r2, [r3, #76]	; 0x4c
                        HAL_ADC_STATE_BUSY_INTERNAL,
                        HAL_ADC_STATE_ERROR_INTERNAL);
      
      /* Set ADC error code to ADC IP internal error */
      SET_BIT(hadc->ErrorCode, HAL_ADC_ERROR_INTERNAL);
 8002782:	687b      	ldr	r3, [r7, #4]
 8002784:	6d1b      	ldr	r3, [r3, #80]	; 0x50
 8002786:	f043 0201 	orr.w	r2, r3, #1
 800278a:	687b      	ldr	r3, [r7, #4]
 800278c:	651a      	str	r2, [r3, #80]	; 0x50
      
      tmp_hal_status = HAL_ERROR;
 800278e:	2301      	movs	r3, #1
 8002790:	f887 3037 	strb.w	r3, [r7, #55]	; 0x37
 8002794:	e002      	b.n	800279c <HAL_ADC_Init+0x26c>
    }
    
  }
  else
  {
    tmp_hal_status = HAL_ERROR;
 8002796:	2301      	movs	r3, #1
 8002798:	f887 3037 	strb.w	r3, [r7, #55]	; 0x37
  }
  
  /* Return function status */
  return tmp_hal_status;
 800279c:	f897 3037 	ldrb.w	r3, [r7, #55]	; 0x37
}
 80027a0:	4618      	mov	r0, r3
 80027a2:	3738      	adds	r7, #56	; 0x38
 80027a4:	46bd      	mov	sp, r7
 80027a6:	bd80      	pop	{r7, pc}
 80027a8:	40023800 	.word	0x40023800
 80027ac:	40012700 	.word	0x40012700
 80027b0:	fcfc16ff 	.word	0xfcfc16ff
 80027b4:	c0fff18d 	.word	0xc0fff18d
 80027b8:	bf80fffe 	.word	0xbf80fffe

080027bc <HAL_ADC_ConfigChannel>:
  * @param  hadc ADC handle
  * @param  sConfig Structure of ADC channel for regular group.
  * @retval HAL status
  */
HAL_StatusTypeDef HAL_ADC_ConfigChannel(ADC_HandleTypeDef* hadc, ADC_ChannelConfTypeDef* sConfig)
{
 80027bc:	b480      	push	{r7}
 80027be:	b085      	sub	sp, #20
 80027c0:	af00      	add	r7, sp, #0
 80027c2:	6078      	str	r0, [r7, #4]
 80027c4:	6039      	str	r1, [r7, #0]
  HAL_StatusTypeDef tmp_hal_status = HAL_OK;
 80027c6:	2300      	movs	r3, #0
 80027c8:	73fb      	strb	r3, [r7, #15]
  __IO uint32_t wait_loop_index = 0;
 80027ca:	2300      	movs	r3, #0
 80027cc:	60bb      	str	r3, [r7, #8]
  assert_param(IS_ADC_CHANNEL(sConfig->Channel));
  assert_param(IS_ADC_REGULAR_RANK(sConfig->Rank));
  assert_param(IS_ADC_SAMPLE_TIME(sConfig->SamplingTime));
  
  /* Process locked */
  __HAL_LOCK(hadc);
 80027ce:	687b      	ldr	r3, [r7, #4]
 80027d0:	f893 3048 	ldrb.w	r3, [r3, #72]	; 0x48
 80027d4:	2b01      	cmp	r3, #1
 80027d6:	d101      	bne.n	80027dc <HAL_ADC_ConfigChannel+0x20>
 80027d8:	2302      	movs	r3, #2
 80027da:	e134      	b.n	8002a46 <HAL_ADC_ConfigChannel+0x28a>
 80027dc:	687b      	ldr	r3, [r7, #4]
 80027de:	2201      	movs	r2, #1
 80027e0:	f883 2048 	strb.w	r2, [r3, #72]	; 0x48
  
   
  /* Regular sequence configuration */
  /* For Rank 1 to 6 */
  if (sConfig->Rank < 7)
 80027e4:	683b      	ldr	r3, [r7, #0]
 80027e6:	685b      	ldr	r3, [r3, #4]
 80027e8:	2b06      	cmp	r3, #6
 80027ea:	d81c      	bhi.n	8002826 <HAL_ADC_ConfigChannel+0x6a>
  {
    MODIFY_REG(hadc->Instance->SQR5,
 80027ec:	687b      	ldr	r3, [r7, #4]
 80027ee:	681b      	ldr	r3, [r3, #0]
 80027f0:	6c19      	ldr	r1, [r3, #64]	; 0x40
 80027f2:	683b      	ldr	r3, [r7, #0]
 80027f4:	685a      	ldr	r2, [r3, #4]
 80027f6:	4613      	mov	r3, r2
 80027f8:	009b      	lsls	r3, r3, #2
 80027fa:	4413      	add	r3, r2
 80027fc:	3b05      	subs	r3, #5
 80027fe:	221f      	movs	r2, #31
 8002800:	fa02 f303 	lsl.w	r3, r2, r3
 8002804:	43db      	mvns	r3, r3
 8002806:	4019      	ands	r1, r3
 8002808:	683b      	ldr	r3, [r7, #0]
 800280a:	6818      	ldr	r0, [r3, #0]
 800280c:	683b      	ldr	r3, [r7, #0]
 800280e:	685a      	ldr	r2, [r3, #4]
 8002810:	4613      	mov	r3, r2
 8002812:	009b      	lsls	r3, r3, #2
 8002814:	4413      	add	r3, r2
 8002816:	3b05      	subs	r3, #5
 8002818:	fa00 f203 	lsl.w	r2, r0, r3
 800281c:	687b      	ldr	r3, [r7, #4]
 800281e:	681b      	ldr	r3, [r3, #0]
 8002820:	430a      	orrs	r2, r1
 8002822:	641a      	str	r2, [r3, #64]	; 0x40
 8002824:	e07e      	b.n	8002924 <HAL_ADC_ConfigChannel+0x168>
               ADC_SQR5_RK(ADC_SQR5_SQ1, sConfig->Rank),
               ADC_SQR5_RK(sConfig->Channel, sConfig->Rank) );
  }
  /* For Rank 7 to 12 */
  else if (sConfig->Rank < 13)
 8002826:	683b      	ldr	r3, [r7, #0]
 8002828:	685b      	ldr	r3, [r3, #4]
 800282a:	2b0c      	cmp	r3, #12
 800282c:	d81c      	bhi.n	8002868 <HAL_ADC_ConfigChannel+0xac>
  {
    MODIFY_REG(hadc->Instance->SQR4,
 800282e:	687b      	ldr	r3, [r7, #4]
 8002830:	681b      	ldr	r3, [r3, #0]
 8002832:	6bd9      	ldr	r1, [r3, #60]	; 0x3c
 8002834:	683b      	ldr	r3, [r7, #0]
 8002836:	685a      	ldr	r2, [r3, #4]
 8002838:	4613      	mov	r3, r2
 800283a:	009b      	lsls	r3, r3, #2
 800283c:	4413      	add	r3, r2
 800283e:	3b23      	subs	r3, #35	; 0x23
 8002840:	221f      	movs	r2, #31
 8002842:	fa02 f303 	lsl.w	r3, r2, r3
 8002846:	43db      	mvns	r3, r3
 8002848:	4019      	ands	r1, r3
 800284a:	683b      	ldr	r3, [r7, #0]
 800284c:	6818      	ldr	r0, [r3, #0]
 800284e:	683b      	ldr	r3, [r7, #0]
 8002850:	685a      	ldr	r2, [r3, #4]
 8002852:	4613      	mov	r3, r2
 8002854:	009b      	lsls	r3, r3, #2
 8002856:	4413      	add	r3, r2
 8002858:	3b23      	subs	r3, #35	; 0x23
 800285a:	fa00 f203 	lsl.w	r2, r0, r3
 800285e:	687b      	ldr	r3, [r7, #4]
 8002860:	681b      	ldr	r3, [r3, #0]
 8002862:	430a      	orrs	r2, r1
 8002864:	63da      	str	r2, [r3, #60]	; 0x3c
 8002866:	e05d      	b.n	8002924 <HAL_ADC_ConfigChannel+0x168>
               ADC_SQR4_RK(ADC_SQR4_SQ7, sConfig->Rank),
               ADC_SQR4_RK(sConfig->Channel, sConfig->Rank) );
  }
  /* For Rank 13 to 18 */
  else if (sConfig->Rank < 19)
 8002868:	683b      	ldr	r3, [r7, #0]
 800286a:	685b      	ldr	r3, [r3, #4]
 800286c:	2b12      	cmp	r3, #18
 800286e:	d81c      	bhi.n	80028aa <HAL_ADC_ConfigChannel+0xee>
  {
    MODIFY_REG(hadc->Instance->SQR3,
 8002870:	687b      	ldr	r3, [r7, #4]
 8002872:	681b      	ldr	r3, [r3, #0]
 8002874:	6b99      	ldr	r1, [r3, #56]	; 0x38
 8002876:	683b      	ldr	r3, [r7, #0]
 8002878:	685a      	ldr	r2, [r3, #4]
 800287a:	4613      	mov	r3, r2
 800287c:	009b      	lsls	r3, r3, #2
 800287e:	4413      	add	r3, r2
 8002880:	3b41      	subs	r3, #65	; 0x41
 8002882:	221f      	movs	r2, #31
 8002884:	fa02 f303 	lsl.w	r3, r2, r3
 8002888:	43db      	mvns	r3, r3
 800288a:	4019      	ands	r1, r3
 800288c:	683b      	ldr	r3, [r7, #0]
 800288e:	6818      	ldr	r0, [r3, #0]
 8002890:	683b      	ldr	r3, [r7, #0]
 8002892:	685a      	ldr	r2, [r3, #4]
 8002894:	4613      	mov	r3, r2
 8002896:	009b      	lsls	r3, r3, #2
 8002898:	4413      	add	r3, r2
 800289a:	3b41      	subs	r3, #65	; 0x41
 800289c:	fa00 f203 	lsl.w	r2, r0, r3
 80028a0:	687b      	ldr	r3, [r7, #4]
 80028a2:	681b      	ldr	r3, [r3, #0]
 80028a4:	430a      	orrs	r2, r1
 80028a6:	639a      	str	r2, [r3, #56]	; 0x38
 80028a8:	e03c      	b.n	8002924 <HAL_ADC_ConfigChannel+0x168>
               ADC_SQR3_RK(ADC_SQR3_SQ13, sConfig->Rank),
               ADC_SQR3_RK(sConfig->Channel, sConfig->Rank) );
  }
  /* For Rank 19 to 24 */
  else if (sConfig->Rank < 25)
 80028aa:	683b      	ldr	r3, [r7, #0]
 80028ac:	685b      	ldr	r3, [r3, #4]
 80028ae:	2b18      	cmp	r3, #24
 80028b0:	d81c      	bhi.n	80028ec <HAL_ADC_ConfigChannel+0x130>
  {
    MODIFY_REG(hadc->Instance->SQR2,
 80028b2:	687b      	ldr	r3, [r7, #4]
 80028b4:	681b      	ldr	r3, [r3, #0]
 80028b6:	6b59      	ldr	r1, [r3, #52]	; 0x34
 80028b8:	683b      	ldr	r3, [r7, #0]
 80028ba:	685a      	ldr	r2, [r3, #4]
 80028bc:	4613      	mov	r3, r2
 80028be:	009b      	lsls	r3, r3, #2
 80028c0:	4413      	add	r3, r2
 80028c2:	3b5f      	subs	r3, #95	; 0x5f
 80028c4:	221f      	movs	r2, #31
 80028c6:	fa02 f303 	lsl.w	r3, r2, r3
 80028ca:	43db      	mvns	r3, r3
 80028cc:	4019      	ands	r1, r3
 80028ce:	683b      	ldr	r3, [r7, #0]
 80028d0:	6818      	ldr	r0, [r3, #0]
 80028d2:	683b      	ldr	r3, [r7, #0]
 80028d4:	685a      	ldr	r2, [r3, #4]
 80028d6:	4613      	mov	r3, r2
 80028d8:	009b      	lsls	r3, r3, #2
 80028da:	4413      	add	r3, r2
 80028dc:	3b5f      	subs	r3, #95	; 0x5f
 80028de:	fa00 f203 	lsl.w	r2, r0, r3
 80028e2:	687b      	ldr	r3, [r7, #4]
 80028e4:	681b      	ldr	r3, [r3, #0]
 80028e6:	430a      	orrs	r2, r1
 80028e8:	635a      	str	r2, [r3, #52]	; 0x34
 80028ea:	e01b      	b.n	8002924 <HAL_ADC_ConfigChannel+0x168>
               ADC_SQR2_RK(sConfig->Channel, sConfig->Rank) );
  }
  /* For Rank 25 to 28 */
  else
  {
    MODIFY_REG(hadc->Instance->SQR1,
 80028ec:	687b      	ldr	r3, [r7, #4]
 80028ee:	681b      	ldr	r3, [r3, #0]
 80028f0:	6b19      	ldr	r1, [r3, #48]	; 0x30
 80028f2:	683b      	ldr	r3, [r7, #0]
 80028f4:	685a      	ldr	r2, [r3, #4]
 80028f6:	4613      	mov	r3, r2
 80028f8:	009b      	lsls	r3, r3, #2
 80028fa:	4413      	add	r3, r2
 80028fc:	3b7d      	subs	r3, #125	; 0x7d
 80028fe:	221f      	movs	r2, #31
 8002900:	fa02 f303 	lsl.w	r3, r2, r3
 8002904:	43db      	mvns	r3, r3
 8002906:	4019      	ands	r1, r3
 8002908:	683b      	ldr	r3, [r7, #0]
 800290a:	6818      	ldr	r0, [r3, #0]
 800290c:	683b      	ldr	r3, [r7, #0]
 800290e:	685a      	ldr	r2, [r3, #4]
 8002910:	4613      	mov	r3, r2
 8002912:	009b      	lsls	r3, r3, #2
 8002914:	4413      	add	r3, r2
 8002916:	3b7d      	subs	r3, #125	; 0x7d
 8002918:	fa00 f203 	lsl.w	r2, r0, r3
 800291c:	687b      	ldr	r3, [r7, #4]
 800291e:	681b      	ldr	r3, [r3, #0]
 8002920:	430a      	orrs	r2, r1
 8002922:	631a      	str	r2, [r3, #48]	; 0x30
  }
  
  
  /* Channel sampling time configuration */
  /* For channels 0 to 9 */
  if (sConfig->Channel < ADC_CHANNEL_10)
 8002924:	683b      	ldr	r3, [r7, #0]
 8002926:	681b      	ldr	r3, [r3, #0]
 8002928:	2b09      	cmp	r3, #9
 800292a:	d81a      	bhi.n	8002962 <HAL_ADC_ConfigChannel+0x1a6>
  {
    MODIFY_REG(hadc->Instance->SMPR3,
 800292c:	687b      	ldr	r3, [r7, #4]
 800292e:	681b      	ldr	r3, [r3, #0]
 8002930:	6959      	ldr	r1, [r3, #20]
 8002932:	683b      	ldr	r3, [r7, #0]
 8002934:	681a      	ldr	r2, [r3, #0]
 8002936:	4613      	mov	r3, r2
 8002938:	005b      	lsls	r3, r3, #1
 800293a:	4413      	add	r3, r2
 800293c:	2207      	movs	r2, #7
 800293e:	fa02 f303 	lsl.w	r3, r2, r3
 8002942:	43db      	mvns	r3, r3
 8002944:	4019      	ands	r1, r3
 8002946:	683b      	ldr	r3, [r7, #0]
 8002948:	6898      	ldr	r0, [r3, #8]
 800294a:	683b      	ldr	r3, [r7, #0]
 800294c:	681a      	ldr	r2, [r3, #0]
 800294e:	4613      	mov	r3, r2
 8002950:	005b      	lsls	r3, r3, #1
 8002952:	4413      	add	r3, r2
 8002954:	fa00 f203 	lsl.w	r2, r0, r3
 8002958:	687b      	ldr	r3, [r7, #4]
 800295a:	681b      	ldr	r3, [r3, #0]
 800295c:	430a      	orrs	r2, r1
 800295e:	615a      	str	r2, [r3, #20]
 8002960:	e042      	b.n	80029e8 <HAL_ADC_ConfigChannel+0x22c>
               ADC_SMPR3(ADC_SMPR3_SMP0, sConfig->Channel),
               ADC_SMPR3(sConfig->SamplingTime, sConfig->Channel) );
  }
  /* For channels 10 to 19 */
  else if (sConfig->Channel < ADC_CHANNEL_20)
 8002962:	683b      	ldr	r3, [r7, #0]
 8002964:	681b      	ldr	r3, [r3, #0]
 8002966:	2b13      	cmp	r3, #19
 8002968:	d81c      	bhi.n	80029a4 <HAL_ADC_ConfigChannel+0x1e8>
  {
    MODIFY_REG(hadc->Instance->SMPR2,
 800296a:	687b      	ldr	r3, [r7, #4]
 800296c:	681b      	ldr	r3, [r3, #0]
 800296e:	6919      	ldr	r1, [r3, #16]
 8002970:	683b      	ldr	r3, [r7, #0]
 8002972:	681a      	ldr	r2, [r3, #0]
 8002974:	4613      	mov	r3, r2
 8002976:	005b      	lsls	r3, r3, #1
 8002978:	4413      	add	r3, r2
 800297a:	3b1e      	subs	r3, #30
 800297c:	2207      	movs	r2, #7
 800297e:	fa02 f303 	lsl.w	r3, r2, r3
 8002982:	43db      	mvns	r3, r3
 8002984:	4019      	ands	r1, r3
 8002986:	683b      	ldr	r3, [r7, #0]
 8002988:	6898      	ldr	r0, [r3, #8]
 800298a:	683b      	ldr	r3, [r7, #0]
 800298c:	681a      	ldr	r2, [r3, #0]
 800298e:	4613      	mov	r3, r2
 8002990:	005b      	lsls	r3, r3, #1
 8002992:	4413      	add	r3, r2
 8002994:	3b1e      	subs	r3, #30
 8002996:	fa00 f203 	lsl.w	r2, r0, r3
 800299a:	687b      	ldr	r3, [r7, #4]
 800299c:	681b      	ldr	r3, [r3, #0]
 800299e:	430a      	orrs	r2, r1
 80029a0:	611a      	str	r2, [r3, #16]
 80029a2:	e021      	b.n	80029e8 <HAL_ADC_ConfigChannel+0x22c>
               ADC_SMPR2(ADC_SMPR2_SMP10, sConfig->Channel),
               ADC_SMPR2(sConfig->SamplingTime, sConfig->Channel) );
  }
  /* For channels 20 to 26 for devices Cat.1, Cat.2, Cat.3 */
  /* For channels 20 to 29 for devices Cat4, Cat.5 */
  else if (sConfig->Channel <= ADC_SMPR1_CHANNEL_MAX)
 80029a4:	683b      	ldr	r3, [r7, #0]
 80029a6:	681b      	ldr	r3, [r3, #0]
 80029a8:	2b1a      	cmp	r3, #26
 80029aa:	d81c      	bhi.n	80029e6 <HAL_ADC_ConfigChannel+0x22a>
  {
    MODIFY_REG(hadc->Instance->SMPR1,
 80029ac:	687b      	ldr	r3, [r7, #4]
 80029ae:	681b      	ldr	r3, [r3, #0]
 80029b0:	68d9      	ldr	r1, [r3, #12]
 80029b2:	683b      	ldr	r3, [r7, #0]
 80029b4:	681a      	ldr	r2, [r3, #0]
 80029b6:	4613      	mov	r3, r2
 80029b8:	005b      	lsls	r3, r3, #1
 80029ba:	4413      	add	r3, r2
 80029bc:	3b3c      	subs	r3, #60	; 0x3c
 80029be:	2207      	movs	r2, #7
 80029c0:	fa02 f303 	lsl.w	r3, r2, r3
 80029c4:	43db      	mvns	r3, r3
 80029c6:	4019      	ands	r1, r3
 80029c8:	683b      	ldr	r3, [r7, #0]
 80029ca:	6898      	ldr	r0, [r3, #8]
 80029cc:	683b      	ldr	r3, [r7, #0]
 80029ce:	681a      	ldr	r2, [r3, #0]
 80029d0:	4613      	mov	r3, r2
 80029d2:	005b      	lsls	r3, r3, #1
 80029d4:	4413      	add	r3, r2
 80029d6:	3b3c      	subs	r3, #60	; 0x3c
 80029d8:	fa00 f203 	lsl.w	r2, r0, r3
 80029dc:	687b      	ldr	r3, [r7, #4]
 80029de:	681b      	ldr	r3, [r3, #0]
 80029e0:	430a      	orrs	r2, r1
 80029e2:	60da      	str	r2, [r3, #12]
 80029e4:	e000      	b.n	80029e8 <HAL_ADC_ConfigChannel+0x22c>
               ADC_SMPR1(sConfig->SamplingTime, sConfig->Channel) );
  }
  /* For channels 30 to 31 for devices Cat4, Cat.5 */
  else
  {
    ADC_SMPR0_CHANNEL_SET(hadc, sConfig->SamplingTime, sConfig->Channel);
 80029e6:	bf00      	nop
  }

  /* If ADC1 Channel_16 or Channel_17 is selected, enable Temperature sensor  */
  /* and VREFINT measurement path.                                            */
  if ((sConfig->Channel == ADC_CHANNEL_TEMPSENSOR) ||
 80029e8:	683b      	ldr	r3, [r7, #0]
 80029ea:	681b      	ldr	r3, [r3, #0]
 80029ec:	2b10      	cmp	r3, #16
 80029ee:	d003      	beq.n	80029f8 <HAL_ADC_ConfigChannel+0x23c>
      (sConfig->Channel == ADC_CHANNEL_VREFINT)      )
 80029f0:	683b      	ldr	r3, [r7, #0]
 80029f2:	681b      	ldr	r3, [r3, #0]
  if ((sConfig->Channel == ADC_CHANNEL_TEMPSENSOR) ||
 80029f4:	2b11      	cmp	r3, #17
 80029f6:	d121      	bne.n	8002a3c <HAL_ADC_ConfigChannel+0x280>
  {
      if (READ_BIT(ADC->CCR, ADC_CCR_TSVREFE) == RESET)
 80029f8:	4b15      	ldr	r3, [pc, #84]	; (8002a50 <HAL_ADC_ConfigChannel+0x294>)
 80029fa:	685b      	ldr	r3, [r3, #4]
 80029fc:	f403 0300 	and.w	r3, r3, #8388608	; 0x800000
 8002a00:	2b00      	cmp	r3, #0
 8002a02:	d11b      	bne.n	8002a3c <HAL_ADC_ConfigChannel+0x280>
      {
        SET_BIT(ADC->CCR, ADC_CCR_TSVREFE);
 8002a04:	4b12      	ldr	r3, [pc, #72]	; (8002a50 <HAL_ADC_ConfigChannel+0x294>)
 8002a06:	685b      	ldr	r3, [r3, #4]
 8002a08:	4a11      	ldr	r2, [pc, #68]	; (8002a50 <HAL_ADC_ConfigChannel+0x294>)
 8002a0a:	f443 0300 	orr.w	r3, r3, #8388608	; 0x800000
 8002a0e:	6053      	str	r3, [r2, #4]
        
        if (sConfig->Channel == ADC_CHANNEL_TEMPSENSOR)
 8002a10:	683b      	ldr	r3, [r7, #0]
 8002a12:	681b      	ldr	r3, [r3, #0]
 8002a14:	2b10      	cmp	r3, #16
 8002a16:	d111      	bne.n	8002a3c <HAL_ADC_ConfigChannel+0x280>
        {
          /* Delay for temperature sensor stabilization time */
          /* Compute number of CPU cycles to wait for */
          wait_loop_index = (ADC_TEMPSENSOR_DELAY_US * (SystemCoreClock / 1000000));
 8002a18:	4b0e      	ldr	r3, [pc, #56]	; (8002a54 <HAL_ADC_ConfigChannel+0x298>)
 8002a1a:	681b      	ldr	r3, [r3, #0]
 8002a1c:	4a0e      	ldr	r2, [pc, #56]	; (8002a58 <HAL_ADC_ConfigChannel+0x29c>)
 8002a1e:	fba2 2303 	umull	r2, r3, r2, r3
 8002a22:	0c9a      	lsrs	r2, r3, #18
 8002a24:	4613      	mov	r3, r2
 8002a26:	009b      	lsls	r3, r3, #2
 8002a28:	4413      	add	r3, r2
 8002a2a:	005b      	lsls	r3, r3, #1
 8002a2c:	60bb      	str	r3, [r7, #8]
          while(wait_loop_index != 0)
 8002a2e:	e002      	b.n	8002a36 <HAL_ADC_ConfigChannel+0x27a>
          {
            wait_loop_index--;
 8002a30:	68bb      	ldr	r3, [r7, #8]
 8002a32:	3b01      	subs	r3, #1
 8002a34:	60bb      	str	r3, [r7, #8]
          while(wait_loop_index != 0)
 8002a36:	68bb      	ldr	r3, [r7, #8]
 8002a38:	2b00      	cmp	r3, #0
 8002a3a:	d1f9      	bne.n	8002a30 <HAL_ADC_ConfigChannel+0x274>
        }
    }
  }
  
  /* Process unlocked */
  __HAL_UNLOCK(hadc);
 8002a3c:	687b      	ldr	r3, [r7, #4]
 8002a3e:	2200      	movs	r2, #0
 8002a40:	f883 2048 	strb.w	r2, [r3, #72]	; 0x48
  
  /* Return function status */
  return tmp_hal_status;
 8002a44:	7bfb      	ldrb	r3, [r7, #15]
}
 8002a46:	4618      	mov	r0, r3
 8002a48:	3714      	adds	r7, #20
 8002a4a:	46bd      	mov	sp, r7
 8002a4c:	bc80      	pop	{r7}
 8002a4e:	4770      	bx	lr
 8002a50:	40012700 	.word	0x40012700
 8002a54:	20000008 	.word	0x20000008
 8002a58:	431bde83 	.word	0x431bde83

08002a5c <__NVIC_SetPriorityGrouping>:
           In case of a conflict between priority grouping and available
           priority bits (__NVIC_PRIO_BITS), the smallest possible priority group is set.
  \param [in]      PriorityGroup  Priority grouping field.
 */
__STATIC_INLINE void __NVIC_SetPriorityGrouping(uint32_t PriorityGroup)
{
 8002a5c:	b480      	push	{r7}
 8002a5e:	b085      	sub	sp, #20
 8002a60:	af00      	add	r7, sp, #0
 8002a62:	6078      	str	r0, [r7, #4]
  uint32_t reg_value;
  uint32_t PriorityGroupTmp = (PriorityGroup & (uint32_t)0x07UL);             /* only values 0..7 are used          */
 8002a64:	687b      	ldr	r3, [r7, #4]
 8002a66:	f003 0307 	and.w	r3, r3, #7
 8002a6a:	60fb      	str	r3, [r7, #12]

  reg_value  =  SCB->AIRCR;                                                   /* read old register configuration    */
 8002a6c:	4b0c      	ldr	r3, [pc, #48]	; (8002aa0 <__NVIC_SetPriorityGrouping+0x44>)
 8002a6e:	68db      	ldr	r3, [r3, #12]
 8002a70:	60bb      	str	r3, [r7, #8]
  reg_value &= ~((uint32_t)(SCB_AIRCR_VECTKEY_Msk | SCB_AIRCR_PRIGROUP_Msk)); /* clear bits to change               */
 8002a72:	68ba      	ldr	r2, [r7, #8]
 8002a74:	f64f 03ff 	movw	r3, #63743	; 0xf8ff
 8002a78:	4013      	ands	r3, r2
 8002a7a:	60bb      	str	r3, [r7, #8]
  reg_value  =  (reg_value                                   |
                ((uint32_t)0x5FAUL << SCB_AIRCR_VECTKEY_Pos) |
                (PriorityGroupTmp << SCB_AIRCR_PRIGROUP_Pos) );               /* Insert write key and priority group */
 8002a7c:	68fb      	ldr	r3, [r7, #12]
 8002a7e:	021a      	lsls	r2, r3, #8
                ((uint32_t)0x5FAUL << SCB_AIRCR_VECTKEY_Pos) |
 8002a80:	68bb      	ldr	r3, [r7, #8]
 8002a82:	4313      	orrs	r3, r2
  reg_value  =  (reg_value                                   |
 8002a84:	f043 63bf 	orr.w	r3, r3, #100139008	; 0x5f80000
 8002a88:	f443 3300 	orr.w	r3, r3, #131072	; 0x20000
 8002a8c:	60bb      	str	r3, [r7, #8]
  SCB->AIRCR =  reg_value;
 8002a8e:	4a04      	ldr	r2, [pc, #16]	; (8002aa0 <__NVIC_SetPriorityGrouping+0x44>)
 8002a90:	68bb      	ldr	r3, [r7, #8]
 8002a92:	60d3      	str	r3, [r2, #12]
}
 8002a94:	bf00      	nop
 8002a96:	3714      	adds	r7, #20
 8002a98:	46bd      	mov	sp, r7
 8002a9a:	bc80      	pop	{r7}
 8002a9c:	4770      	bx	lr
 8002a9e:	bf00      	nop
 8002aa0:	e000ed00 	.word	0xe000ed00

08002aa4 <__NVIC_GetPriorityGrouping>:
  \brief   Get Priority Grouping
  \details Reads the priority grouping field from the NVIC Interrupt Controller.
  \return                Priority grouping field (SCB->AIRCR [10:8] PRIGROUP field).
 */
__STATIC_INLINE uint32_t __NVIC_GetPriorityGrouping(void)
{
 8002aa4:	b480      	push	{r7}
 8002aa6:	af00      	add	r7, sp, #0
  return ((uint32_t)((SCB->AIRCR & SCB_AIRCR_PRIGROUP_Msk) >> SCB_AIRCR_PRIGROUP_Pos));
 8002aa8:	4b04      	ldr	r3, [pc, #16]	; (8002abc <__NVIC_GetPriorityGrouping+0x18>)
 8002aaa:	68db      	ldr	r3, [r3, #12]
 8002aac:	0a1b      	lsrs	r3, r3, #8
 8002aae:	f003 0307 	and.w	r3, r3, #7
}
 8002ab2:	4618      	mov	r0, r3
 8002ab4:	46bd      	mov	sp, r7
 8002ab6:	bc80      	pop	{r7}
 8002ab8:	4770      	bx	lr
 8002aba:	bf00      	nop
 8002abc:	e000ed00 	.word	0xe000ed00

08002ac0 <__NVIC_SetPriority>:
  \param [in]      IRQn  Interrupt number.
  \param [in]  priority  Priority to set.
  \note    The priority cannot be set for every processor exception.
 */
__STATIC_INLINE void __NVIC_SetPriority(IRQn_Type IRQn, uint32_t priority)
{
 8002ac0:	b480      	push	{r7}
 8002ac2:	b083      	sub	sp, #12
 8002ac4:	af00      	add	r7, sp, #0
 8002ac6:	4603      	mov	r3, r0
 8002ac8:	6039      	str	r1, [r7, #0]
 8002aca:	71fb      	strb	r3, [r7, #7]
  if ((int32_t)(IRQn) >= 0)
 8002acc:	f997 3007 	ldrsb.w	r3, [r7, #7]
 8002ad0:	2b00      	cmp	r3, #0
 8002ad2:	db0a      	blt.n	8002aea <__NVIC_SetPriority+0x2a>
  {
    NVIC->IP[((uint32_t)IRQn)]               = (uint8_t)((priority << (8U - __NVIC_PRIO_BITS)) & (uint32_t)0xFFUL);
 8002ad4:	683b      	ldr	r3, [r7, #0]
 8002ad6:	b2da      	uxtb	r2, r3
 8002ad8:	490c      	ldr	r1, [pc, #48]	; (8002b0c <__NVIC_SetPriority+0x4c>)
 8002ada:	f997 3007 	ldrsb.w	r3, [r7, #7]
 8002ade:	0112      	lsls	r2, r2, #4
 8002ae0:	b2d2      	uxtb	r2, r2
 8002ae2:	440b      	add	r3, r1
 8002ae4:	f883 2300 	strb.w	r2, [r3, #768]	; 0x300
  }
  else
  {
    SCB->SHP[(((uint32_t)IRQn) & 0xFUL)-4UL] = (uint8_t)((priority << (8U - __NVIC_PRIO_BITS)) & (uint32_t)0xFFUL);
  }
}
 8002ae8:	e00a      	b.n	8002b00 <__NVIC_SetPriority+0x40>
    SCB->SHP[(((uint32_t)IRQn) & 0xFUL)-4UL] = (uint8_t)((priority << (8U - __NVIC_PRIO_BITS)) & (uint32_t)0xFFUL);
 8002aea:	683b      	ldr	r3, [r7, #0]
 8002aec:	b2da      	uxtb	r2, r3
 8002aee:	4908      	ldr	r1, [pc, #32]	; (8002b10 <__NVIC_SetPriority+0x50>)
 8002af0:	79fb      	ldrb	r3, [r7, #7]
 8002af2:	f003 030f 	and.w	r3, r3, #15
 8002af6:	3b04      	subs	r3, #4
 8002af8:	0112      	lsls	r2, r2, #4
 8002afa:	b2d2      	uxtb	r2, r2
 8002afc:	440b      	add	r3, r1
 8002afe:	761a      	strb	r2, [r3, #24]
}
 8002b00:	bf00      	nop
 8002b02:	370c      	adds	r7, #12
 8002b04:	46bd      	mov	sp, r7
 8002b06:	bc80      	pop	{r7}
 8002b08:	4770      	bx	lr
 8002b0a:	bf00      	nop
 8002b0c:	e000e100 	.word	0xe000e100
 8002b10:	e000ed00 	.word	0xe000ed00

08002b14 <NVIC_EncodePriority>:
  \param [in]   PreemptPriority  Preemptive priority value (starting from 0).
  \param [in]       SubPriority  Subpriority value (starting from 0).
  \return                        Encoded priority. Value can be used in the function \ref NVIC_SetPriority().
 */
__STATIC_INLINE uint32_t NVIC_EncodePriority (uint32_t PriorityGroup, uint32_t PreemptPriority, uint32_t SubPriority)
{
 8002b14:	b480      	push	{r7}
 8002b16:	b089      	sub	sp, #36	; 0x24
 8002b18:	af00      	add	r7, sp, #0
 8002b1a:	60f8      	str	r0, [r7, #12]
 8002b1c:	60b9      	str	r1, [r7, #8]
 8002b1e:	607a      	str	r2, [r7, #4]
  uint32_t PriorityGroupTmp = (PriorityGroup & (uint32_t)0x07UL);   /* only values 0..7 are used          */
 8002b20:	68fb      	ldr	r3, [r7, #12]
 8002b22:	f003 0307 	and.w	r3, r3, #7
 8002b26:	61fb      	str	r3, [r7, #28]
  uint32_t PreemptPriorityBits;
  uint32_t SubPriorityBits;

  PreemptPriorityBits = ((7UL - PriorityGroupTmp) > (uint32_t)(__NVIC_PRIO_BITS)) ? (uint32_t)(__NVIC_PRIO_BITS) : (uint32_t)(7UL - PriorityGroupTmp);
 8002b28:	69fb      	ldr	r3, [r7, #28]
 8002b2a:	f1c3 0307 	rsb	r3, r3, #7
 8002b2e:	2b04      	cmp	r3, #4
 8002b30:	bf28      	it	cs
 8002b32:	2304      	movcs	r3, #4
 8002b34:	61bb      	str	r3, [r7, #24]
  SubPriorityBits     = ((PriorityGroupTmp + (uint32_t)(__NVIC_PRIO_BITS)) < (uint32_t)7UL) ? (uint32_t)0UL : (uint32_t)((PriorityGroupTmp - 7UL) + (uint32_t)(__NVIC_PRIO_BITS));
 8002b36:	69fb      	ldr	r3, [r7, #28]
 8002b38:	3304      	adds	r3, #4
 8002b3a:	2b06      	cmp	r3, #6
 8002b3c:	d902      	bls.n	8002b44 <NVIC_EncodePriority+0x30>
 8002b3e:	69fb      	ldr	r3, [r7, #28]
 8002b40:	3b03      	subs	r3, #3
 8002b42:	e000      	b.n	8002b46 <NVIC_EncodePriority+0x32>
 8002b44:	2300      	movs	r3, #0
 8002b46:	617b      	str	r3, [r7, #20]

  return (
           ((PreemptPriority & (uint32_t)((1UL << (PreemptPriorityBits)) - 1UL)) << SubPriorityBits) |
 8002b48:	f04f 32ff 	mov.w	r2, #4294967295
 8002b4c:	69bb      	ldr	r3, [r7, #24]
 8002b4e:	fa02 f303 	lsl.w	r3, r2, r3
 8002b52:	43da      	mvns	r2, r3
 8002b54:	68bb      	ldr	r3, [r7, #8]
 8002b56:	401a      	ands	r2, r3
 8002b58:	697b      	ldr	r3, [r7, #20]
 8002b5a:	409a      	lsls	r2, r3
           ((SubPriority     & (uint32_t)((1UL << (SubPriorityBits    )) - 1UL)))
 8002b5c:	f04f 31ff 	mov.w	r1, #4294967295
 8002b60:	697b      	ldr	r3, [r7, #20]
 8002b62:	fa01 f303 	lsl.w	r3, r1, r3
 8002b66:	43d9      	mvns	r1, r3
 8002b68:	687b      	ldr	r3, [r7, #4]
 8002b6a:	400b      	ands	r3, r1
           ((PreemptPriority & (uint32_t)((1UL << (PreemptPriorityBits)) - 1UL)) << SubPriorityBits) |
 8002b6c:	4313      	orrs	r3, r2
         );
}
 8002b6e:	4618      	mov	r0, r3
 8002b70:	3724      	adds	r7, #36	; 0x24
 8002b72:	46bd      	mov	sp, r7
 8002b74:	bc80      	pop	{r7}
 8002b76:	4770      	bx	lr

08002b78 <SysTick_Config>:
  \note    When the variable <b>__Vendor_SysTickConfig</b> is set to 1, then the
           function <b>SysTick_Config</b> is not included. In this case, the file <b><i>device</i>.h</b>
           must contain a vendor-specific implementation of this function.
 */
__STATIC_INLINE uint32_t SysTick_Config(uint32_t ticks)
{
 8002b78:	b580      	push	{r7, lr}
 8002b7a:	b082      	sub	sp, #8
 8002b7c:	af00      	add	r7, sp, #0
 8002b7e:	6078      	str	r0, [r7, #4]
  if ((ticks - 1UL) > SysTick_LOAD_RELOAD_Msk)
 8002b80:	687b      	ldr	r3, [r7, #4]
 8002b82:	3b01      	subs	r3, #1
 8002b84:	f1b3 7f80 	cmp.w	r3, #16777216	; 0x1000000
 8002b88:	d301      	bcc.n	8002b8e <SysTick_Config+0x16>
  {
    return (1UL);                                                   /* Reload value impossible */
 8002b8a:	2301      	movs	r3, #1
 8002b8c:	e00f      	b.n	8002bae <SysTick_Config+0x36>
  }

  SysTick->LOAD  = (uint32_t)(ticks - 1UL);                         /* set reload register */
 8002b8e:	4a0a      	ldr	r2, [pc, #40]	; (8002bb8 <SysTick_Config+0x40>)
 8002b90:	687b      	ldr	r3, [r7, #4]
 8002b92:	3b01      	subs	r3, #1
 8002b94:	6053      	str	r3, [r2, #4]
  NVIC_SetPriority (SysTick_IRQn, (1UL << __NVIC_PRIO_BITS) - 1UL); /* set Priority for Systick Interrupt */
 8002b96:	210f      	movs	r1, #15
 8002b98:	f04f 30ff 	mov.w	r0, #4294967295
 8002b9c:	f7ff ff90 	bl	8002ac0 <__NVIC_SetPriority>
  SysTick->VAL   = 0UL;                                             /* Load the SysTick Counter Value */
 8002ba0:	4b05      	ldr	r3, [pc, #20]	; (8002bb8 <SysTick_Config+0x40>)
 8002ba2:	2200      	movs	r2, #0
 8002ba4:	609a      	str	r2, [r3, #8]
  SysTick->CTRL  = SysTick_CTRL_CLKSOURCE_Msk |
 8002ba6:	4b04      	ldr	r3, [pc, #16]	; (8002bb8 <SysTick_Config+0x40>)
 8002ba8:	2207      	movs	r2, #7
 8002baa:	601a      	str	r2, [r3, #0]
                   SysTick_CTRL_TICKINT_Msk   |
                   SysTick_CTRL_ENABLE_Msk;                         /* Enable SysTick IRQ and SysTick Timer */
  return (0UL);                                                     /* Function successful */
 8002bac:	2300      	movs	r3, #0
}
 8002bae:	4618      	mov	r0, r3
 8002bb0:	3708      	adds	r7, #8
 8002bb2:	46bd      	mov	sp, r7
 8002bb4:	bd80      	pop	{r7, pc}
 8002bb6:	bf00      	nop
 8002bb8:	e000e010 	.word	0xe000e010

08002bbc <HAL_NVIC_SetPriorityGrouping>:
  * @note   When the NVIC_PriorityGroup_0 is selected, IRQ pre-emption is no more possible. 
  *         The pending IRQ priority will be managed only by the subpriority. 
  * @retval None
  */
void HAL_NVIC_SetPriorityGrouping(uint32_t PriorityGroup)
{
 8002bbc:	b580      	push	{r7, lr}
 8002bbe:	b082      	sub	sp, #8
 8002bc0:	af00      	add	r7, sp, #0
 8002bc2:	6078      	str	r0, [r7, #4]
  /* Check the parameters */
  assert_param(IS_NVIC_PRIORITY_GROUP(PriorityGroup));
  
  /* Set the PRIGROUP[10:8] bits according to the PriorityGroup parameter value */
  NVIC_SetPriorityGrouping(PriorityGroup);
 8002bc4:	6878      	ldr	r0, [r7, #4]
 8002bc6:	f7ff ff49 	bl	8002a5c <__NVIC_SetPriorityGrouping>
}
 8002bca:	bf00      	nop
 8002bcc:	3708      	adds	r7, #8
 8002bce:	46bd      	mov	sp, r7
 8002bd0:	bd80      	pop	{r7, pc}

08002bd2 <HAL_NVIC_SetPriority>:
  *         This parameter can be a value between 0 and 15
  *         A lower priority value indicates a higher priority.          
  * @retval None
  */
void HAL_NVIC_SetPriority(IRQn_Type IRQn, uint32_t PreemptPriority, uint32_t SubPriority)
{
 8002bd2:	b580      	push	{r7, lr}
 8002bd4:	b086      	sub	sp, #24
 8002bd6:	af00      	add	r7, sp, #0
 8002bd8:	4603      	mov	r3, r0
 8002bda:	60b9      	str	r1, [r7, #8]
 8002bdc:	607a      	str	r2, [r7, #4]
 8002bde:	73fb      	strb	r3, [r7, #15]
  uint32_t prioritygroup = 0x00;
 8002be0:	2300      	movs	r3, #0
 8002be2:	617b      	str	r3, [r7, #20]
  
  /* Check the parameters */
  assert_param(IS_NVIC_SUB_PRIORITY(SubPriority));
  assert_param(IS_NVIC_PREEMPTION_PRIORITY(PreemptPriority));
  
  prioritygroup = NVIC_GetPriorityGrouping();
 8002be4:	f7ff ff5e 	bl	8002aa4 <__NVIC_GetPriorityGrouping>
 8002be8:	6178      	str	r0, [r7, #20]
  
  NVIC_SetPriority(IRQn, NVIC_EncodePriority(prioritygroup, PreemptPriority, SubPriority));
 8002bea:	687a      	ldr	r2, [r7, #4]
 8002bec:	68b9      	ldr	r1, [r7, #8]
 8002bee:	6978      	ldr	r0, [r7, #20]
 8002bf0:	f7ff ff90 	bl	8002b14 <NVIC_EncodePriority>
 8002bf4:	4602      	mov	r2, r0
 8002bf6:	f997 300f 	ldrsb.w	r3, [r7, #15]
 8002bfa:	4611      	mov	r1, r2
 8002bfc:	4618      	mov	r0, r3
 8002bfe:	f7ff ff5f 	bl	8002ac0 <__NVIC_SetPriority>
}
 8002c02:	bf00      	nop
 8002c04:	3718      	adds	r7, #24
 8002c06:	46bd      	mov	sp, r7
 8002c08:	bd80      	pop	{r7, pc}

08002c0a <HAL_SYSTICK_Config>:
  * @param  TicksNumb Specifies the ticks Number of ticks between two interrupts.
  * @retval status:  - 0  Function succeeded.
  *                  - 1  Function failed.
  */
uint32_t HAL_SYSTICK_Config(uint32_t TicksNumb)
{
 8002c0a:	b580      	push	{r7, lr}
 8002c0c:	b082      	sub	sp, #8
 8002c0e:	af00      	add	r7, sp, #0
 8002c10:	6078      	str	r0, [r7, #4]
   return SysTick_Config(TicksNumb);
 8002c12:	6878      	ldr	r0, [r7, #4]
 8002c14:	f7ff ffb0 	bl	8002b78 <SysTick_Config>
 8002c18:	4603      	mov	r3, r0
}
 8002c1a:	4618      	mov	r0, r3
 8002c1c:	3708      	adds	r7, #8
 8002c1e:	46bd      	mov	sp, r7
 8002c20:	bd80      	pop	{r7, pc}
	...

08002c24 <HAL_GPIO_Init>:
  * @param  GPIO_Init pointer to a GPIO_InitTypeDef structure that contains
  *         the configuration information for the specified GPIO peripheral.
  * @retval None
  */
void HAL_GPIO_Init(GPIO_TypeDef  *GPIOx, GPIO_InitTypeDef *GPIO_Init)
{
 8002c24:	b480      	push	{r7}
 8002c26:	b087      	sub	sp, #28
 8002c28:	af00      	add	r7, sp, #0
 8002c2a:	6078      	str	r0, [r7, #4]
 8002c2c:	6039      	str	r1, [r7, #0]
  uint32_t position = 0x00;
 8002c2e:	2300      	movs	r3, #0
 8002c30:	617b      	str	r3, [r7, #20]
  uint32_t iocurrent = 0x00;
 8002c32:	2300      	movs	r3, #0
 8002c34:	60fb      	str	r3, [r7, #12]
  uint32_t temp = 0x00;
 8002c36:	2300      	movs	r3, #0
 8002c38:	613b      	str	r3, [r7, #16]
  assert_param(IS_GPIO_ALL_INSTANCE(GPIOx));
  assert_param(IS_GPIO_PIN(GPIO_Init->Pin));
  assert_param(IS_GPIO_MODE(GPIO_Init->Mode));

  /* Configure the port pins */
  while (((GPIO_Init->Pin) >> position) != 0)
 8002c3a:	e154      	b.n	8002ee6 <HAL_GPIO_Init+0x2c2>
  {
    /* Get current io position */
    iocurrent = (GPIO_Init->Pin) & (1U << position);
 8002c3c:	683b      	ldr	r3, [r7, #0]
 8002c3e:	681a      	ldr	r2, [r3, #0]
 8002c40:	2101      	movs	r1, #1
 8002c42:	697b      	ldr	r3, [r7, #20]
 8002c44:	fa01 f303 	lsl.w	r3, r1, r3
 8002c48:	4013      	ands	r3, r2
 8002c4a:	60fb      	str	r3, [r7, #12]

    if (iocurrent)
 8002c4c:	68fb      	ldr	r3, [r7, #12]
 8002c4e:	2b00      	cmp	r3, #0
 8002c50:	f000 8146 	beq.w	8002ee0 <HAL_GPIO_Init+0x2bc>
    {
      /*--------------------- GPIO Mode Configuration ------------------------*/
      /* In case of Output or Alternate function mode selection */
      if (((GPIO_Init->Mode & GPIO_MODE) == MODE_OUTPUT) ||
 8002c54:	683b      	ldr	r3, [r7, #0]
 8002c56:	685b      	ldr	r3, [r3, #4]
 8002c58:	f003 0303 	and.w	r3, r3, #3
 8002c5c:	2b01      	cmp	r3, #1
 8002c5e:	d005      	beq.n	8002c6c <HAL_GPIO_Init+0x48>
          ((GPIO_Init->Mode & GPIO_MODE) == MODE_AF))
 8002c60:	683b      	ldr	r3, [r7, #0]
 8002c62:	685b      	ldr	r3, [r3, #4]
 8002c64:	f003 0303 	and.w	r3, r3, #3
      if (((GPIO_Init->Mode & GPIO_MODE) == MODE_OUTPUT) ||
 8002c68:	2b02      	cmp	r3, #2
 8002c6a:	d130      	bne.n	8002cce <HAL_GPIO_Init+0xaa>
      {
        /* Check the Speed parameter */
        assert_param(IS_GPIO_SPEED(GPIO_Init->Speed));
        /* Configure the IO Speed */
        temp = GPIOx->OSPEEDR;
 8002c6c:	687b      	ldr	r3, [r7, #4]
 8002c6e:	689b      	ldr	r3, [r3, #8]
 8002c70:	613b      	str	r3, [r7, #16]
        CLEAR_BIT(temp, GPIO_OSPEEDER_OSPEEDR0 << (position * 2));
 8002c72:	697b      	ldr	r3, [r7, #20]
 8002c74:	005b      	lsls	r3, r3, #1
 8002c76:	2203      	movs	r2, #3
 8002c78:	fa02 f303 	lsl.w	r3, r2, r3
 8002c7c:	43db      	mvns	r3, r3
 8002c7e:	693a      	ldr	r2, [r7, #16]
 8002c80:	4013      	ands	r3, r2
 8002c82:	613b      	str	r3, [r7, #16]
        SET_BIT(temp, GPIO_Init->Speed << (position * 2));
 8002c84:	683b      	ldr	r3, [r7, #0]
 8002c86:	68da      	ldr	r2, [r3, #12]
 8002c88:	697b      	ldr	r3, [r7, #20]
 8002c8a:	005b      	lsls	r3, r3, #1
 8002c8c:	fa02 f303 	lsl.w	r3, r2, r3
 8002c90:	693a      	ldr	r2, [r7, #16]
 8002c92:	4313      	orrs	r3, r2
 8002c94:	613b      	str	r3, [r7, #16]
        GPIOx->OSPEEDR = temp;
 8002c96:	687b      	ldr	r3, [r7, #4]
 8002c98:	693a      	ldr	r2, [r7, #16]
 8002c9a:	609a      	str	r2, [r3, #8]

        /* Configure the IO Output Type */
        temp = GPIOx->OTYPER;
 8002c9c:	687b      	ldr	r3, [r7, #4]
 8002c9e:	685b      	ldr	r3, [r3, #4]
 8002ca0:	613b      	str	r3, [r7, #16]
        CLEAR_BIT(temp, GPIO_OTYPER_OT_0 << position) ;
 8002ca2:	2201      	movs	r2, #1
 8002ca4:	697b      	ldr	r3, [r7, #20]
 8002ca6:	fa02 f303 	lsl.w	r3, r2, r3
 8002caa:	43db      	mvns	r3, r3
 8002cac:	693a      	ldr	r2, [r7, #16]
 8002cae:	4013      	ands	r3, r2
 8002cb0:	613b      	str	r3, [r7, #16]
        SET_BIT(temp, ((GPIO_Init->Mode & OUTPUT_TYPE) >> OUTPUT_TYPE_Pos) << position);
 8002cb2:	683b      	ldr	r3, [r7, #0]
 8002cb4:	685b      	ldr	r3, [r3, #4]
 8002cb6:	091b      	lsrs	r3, r3, #4
 8002cb8:	f003 0201 	and.w	r2, r3, #1
 8002cbc:	697b      	ldr	r3, [r7, #20]
 8002cbe:	fa02 f303 	lsl.w	r3, r2, r3
 8002cc2:	693a      	ldr	r2, [r7, #16]
 8002cc4:	4313      	orrs	r3, r2
 8002cc6:	613b      	str	r3, [r7, #16]
        GPIOx->OTYPER = temp;
 8002cc8:	687b      	ldr	r3, [r7, #4]
 8002cca:	693a      	ldr	r2, [r7, #16]
 8002ccc:	605a      	str	r2, [r3, #4]
      }

      if ((GPIO_Init->Mode & GPIO_MODE) != MODE_ANALOG)
 8002cce:	683b      	ldr	r3, [r7, #0]
 8002cd0:	685b      	ldr	r3, [r3, #4]
 8002cd2:	f003 0303 	and.w	r3, r3, #3
 8002cd6:	2b03      	cmp	r3, #3
 8002cd8:	d017      	beq.n	8002d0a <HAL_GPIO_Init+0xe6>
      {
        /* Check the Pull parameter */
        assert_param(IS_GPIO_PULL(GPIO_Init->Pull));

        /* Activate the Pull-up or Pull down resistor for the current IO */
        temp = GPIOx->PUPDR;
 8002cda:	687b      	ldr	r3, [r7, #4]
 8002cdc:	68db      	ldr	r3, [r3, #12]
 8002cde:	613b      	str	r3, [r7, #16]
        CLEAR_BIT(temp, GPIO_PUPDR_PUPDR0 << (position * 2));
 8002ce0:	697b      	ldr	r3, [r7, #20]
 8002ce2:	005b      	lsls	r3, r3, #1
 8002ce4:	2203      	movs	r2, #3
 8002ce6:	fa02 f303 	lsl.w	r3, r2, r3
 8002cea:	43db      	mvns	r3, r3
 8002cec:	693a      	ldr	r2, [r7, #16]
 8002cee:	4013      	ands	r3, r2
 8002cf0:	613b      	str	r3, [r7, #16]
        SET_BIT(temp, (GPIO_Init->Pull) << (position * 2));
 8002cf2:	683b      	ldr	r3, [r7, #0]
 8002cf4:	689a      	ldr	r2, [r3, #8]
 8002cf6:	697b      	ldr	r3, [r7, #20]
 8002cf8:	005b      	lsls	r3, r3, #1
 8002cfa:	fa02 f303 	lsl.w	r3, r2, r3
 8002cfe:	693a      	ldr	r2, [r7, #16]
 8002d00:	4313      	orrs	r3, r2
 8002d02:	613b      	str	r3, [r7, #16]
        GPIOx->PUPDR = temp;
 8002d04:	687b      	ldr	r3, [r7, #4]
 8002d06:	693a      	ldr	r2, [r7, #16]
 8002d08:	60da      	str	r2, [r3, #12]
      }

      /* In case of Alternate function mode selection */
      if ((GPIO_Init->Mode & GPIO_MODE) == MODE_AF)
 8002d0a:	683b      	ldr	r3, [r7, #0]
 8002d0c:	685b      	ldr	r3, [r3, #4]
 8002d0e:	f003 0303 	and.w	r3, r3, #3
 8002d12:	2b02      	cmp	r3, #2
 8002d14:	d123      	bne.n	8002d5e <HAL_GPIO_Init+0x13a>
        assert_param(IS_GPIO_AF_INSTANCE(GPIOx));
        assert_param(IS_GPIO_AF(GPIO_Init->Alternate));

        /* Configure Alternate function mapped with the current IO */
        /* Identify AFRL or AFRH register based on IO position*/
        temp = GPIOx->AFR[position >> 3];
 8002d16:	697b      	ldr	r3, [r7, #20]
 8002d18:	08da      	lsrs	r2, r3, #3
 8002d1a:	687b      	ldr	r3, [r7, #4]
 8002d1c:	3208      	adds	r2, #8
 8002d1e:	f853 3022 	ldr.w	r3, [r3, r2, lsl #2]
 8002d22:	613b      	str	r3, [r7, #16]
        CLEAR_BIT(temp, 0xFU << ((uint32_t)(position & 0x07U) * 4));
 8002d24:	697b      	ldr	r3, [r7, #20]
 8002d26:	f003 0307 	and.w	r3, r3, #7
 8002d2a:	009b      	lsls	r3, r3, #2
 8002d2c:	220f      	movs	r2, #15
 8002d2e:	fa02 f303 	lsl.w	r3, r2, r3
 8002d32:	43db      	mvns	r3, r3
 8002d34:	693a      	ldr	r2, [r7, #16]
 8002d36:	4013      	ands	r3, r2
 8002d38:	613b      	str	r3, [r7, #16]
        SET_BIT(temp, (uint32_t)(GPIO_Init->Alternate) << (((uint32_t)position & 0x07U) * 4));
 8002d3a:	683b      	ldr	r3, [r7, #0]
 8002d3c:	691a      	ldr	r2, [r3, #16]
 8002d3e:	697b      	ldr	r3, [r7, #20]
 8002d40:	f003 0307 	and.w	r3, r3, #7
 8002d44:	009b      	lsls	r3, r3, #2
 8002d46:	fa02 f303 	lsl.w	r3, r2, r3
 8002d4a:	693a      	ldr	r2, [r7, #16]
 8002d4c:	4313      	orrs	r3, r2
 8002d4e:	613b      	str	r3, [r7, #16]
        GPIOx->AFR[position >> 3] = temp;
 8002d50:	697b      	ldr	r3, [r7, #20]
 8002d52:	08da      	lsrs	r2, r3, #3
 8002d54:	687b      	ldr	r3, [r7, #4]
 8002d56:	3208      	adds	r2, #8
 8002d58:	6939      	ldr	r1, [r7, #16]
 8002d5a:	f843 1022 	str.w	r1, [r3, r2, lsl #2]
      }

      /* Configure IO Direction mode (Input, Output, Alternate or Analog) */
      temp = GPIOx->MODER;
 8002d5e:	687b      	ldr	r3, [r7, #4]
 8002d60:	681b      	ldr	r3, [r3, #0]
 8002d62:	613b      	str	r3, [r7, #16]
      CLEAR_BIT(temp, GPIO_MODER_MODER0 << (position * 2));
 8002d64:	697b      	ldr	r3, [r7, #20]
 8002d66:	005b      	lsls	r3, r3, #1
 8002d68:	2203      	movs	r2, #3
 8002d6a:	fa02 f303 	lsl.w	r3, r2, r3
 8002d6e:	43db      	mvns	r3, r3
 8002d70:	693a      	ldr	r2, [r7, #16]
 8002d72:	4013      	ands	r3, r2
 8002d74:	613b      	str	r3, [r7, #16]
      SET_BIT(temp, (GPIO_Init->Mode & GPIO_MODE) << (position * 2));
 8002d76:	683b      	ldr	r3, [r7, #0]
 8002d78:	685b      	ldr	r3, [r3, #4]
 8002d7a:	f003 0203 	and.w	r2, r3, #3
 8002d7e:	697b      	ldr	r3, [r7, #20]
 8002d80:	005b      	lsls	r3, r3, #1
 8002d82:	fa02 f303 	lsl.w	r3, r2, r3
 8002d86:	693a      	ldr	r2, [r7, #16]
 8002d88:	4313      	orrs	r3, r2
 8002d8a:	613b      	str	r3, [r7, #16]
      GPIOx->MODER = temp;
 8002d8c:	687b      	ldr	r3, [r7, #4]
 8002d8e:	693a      	ldr	r2, [r7, #16]
 8002d90:	601a      	str	r2, [r3, #0]

      /*--------------------- EXTI Mode Configuration ------------------------*/
      /* Configure the External Interrupt or event for the current IO */
      if ((GPIO_Init->Mode & EXTI_MODE) != 0x00U)
 8002d92:	683b      	ldr	r3, [r7, #0]
 8002d94:	685b      	ldr	r3, [r3, #4]
 8002d96:	f403 3340 	and.w	r3, r3, #196608	; 0x30000
 8002d9a:	2b00      	cmp	r3, #0
 8002d9c:	f000 80a0 	beq.w	8002ee0 <HAL_GPIO_Init+0x2bc>
      {
        /* Enable SYSCFG Clock */
        __HAL_RCC_SYSCFG_CLK_ENABLE();
 8002da0:	4b58      	ldr	r3, [pc, #352]	; (8002f04 <HAL_GPIO_Init+0x2e0>)
 8002da2:	6a1b      	ldr	r3, [r3, #32]
 8002da4:	4a57      	ldr	r2, [pc, #348]	; (8002f04 <HAL_GPIO_Init+0x2e0>)
 8002da6:	f043 0301 	orr.w	r3, r3, #1
 8002daa:	6213      	str	r3, [r2, #32]
 8002dac:	4b55      	ldr	r3, [pc, #340]	; (8002f04 <HAL_GPIO_Init+0x2e0>)
 8002dae:	6a1b      	ldr	r3, [r3, #32]
 8002db0:	f003 0301 	and.w	r3, r3, #1
 8002db4:	60bb      	str	r3, [r7, #8]
 8002db6:	68bb      	ldr	r3, [r7, #8]

        temp = SYSCFG->EXTICR[position >> 2];
 8002db8:	4a53      	ldr	r2, [pc, #332]	; (8002f08 <HAL_GPIO_Init+0x2e4>)
 8002dba:	697b      	ldr	r3, [r7, #20]
 8002dbc:	089b      	lsrs	r3, r3, #2
 8002dbe:	3302      	adds	r3, #2
 8002dc0:	f852 3023 	ldr.w	r3, [r2, r3, lsl #2]
 8002dc4:	613b      	str	r3, [r7, #16]
        CLEAR_BIT(temp, (0x0FU) << (4 * (position & 0x03)));
 8002dc6:	697b      	ldr	r3, [r7, #20]
 8002dc8:	f003 0303 	and.w	r3, r3, #3
 8002dcc:	009b      	lsls	r3, r3, #2
 8002dce:	220f      	movs	r2, #15
 8002dd0:	fa02 f303 	lsl.w	r3, r2, r3
 8002dd4:	43db      	mvns	r3, r3
 8002dd6:	693a      	ldr	r2, [r7, #16]
 8002dd8:	4013      	ands	r3, r2
 8002dda:	613b      	str	r3, [r7, #16]
        SET_BIT(temp, (GPIO_GET_INDEX(GPIOx)) << (4 * (position & 0x03)));
 8002ddc:	687b      	ldr	r3, [r7, #4]
 8002dde:	4a4b      	ldr	r2, [pc, #300]	; (8002f0c <HAL_GPIO_Init+0x2e8>)
 8002de0:	4293      	cmp	r3, r2
 8002de2:	d019      	beq.n	8002e18 <HAL_GPIO_Init+0x1f4>
 8002de4:	687b      	ldr	r3, [r7, #4]
 8002de6:	4a4a      	ldr	r2, [pc, #296]	; (8002f10 <HAL_GPIO_Init+0x2ec>)
 8002de8:	4293      	cmp	r3, r2
 8002dea:	d013      	beq.n	8002e14 <HAL_GPIO_Init+0x1f0>
 8002dec:	687b      	ldr	r3, [r7, #4]
 8002dee:	4a49      	ldr	r2, [pc, #292]	; (8002f14 <HAL_GPIO_Init+0x2f0>)
 8002df0:	4293      	cmp	r3, r2
 8002df2:	d00d      	beq.n	8002e10 <HAL_GPIO_Init+0x1ec>
 8002df4:	687b      	ldr	r3, [r7, #4]
 8002df6:	4a48      	ldr	r2, [pc, #288]	; (8002f18 <HAL_GPIO_Init+0x2f4>)
 8002df8:	4293      	cmp	r3, r2
 8002dfa:	d007      	beq.n	8002e0c <HAL_GPIO_Init+0x1e8>
 8002dfc:	687b      	ldr	r3, [r7, #4]
 8002dfe:	4a47      	ldr	r2, [pc, #284]	; (8002f1c <HAL_GPIO_Init+0x2f8>)
 8002e00:	4293      	cmp	r3, r2
 8002e02:	d101      	bne.n	8002e08 <HAL_GPIO_Init+0x1e4>
 8002e04:	2304      	movs	r3, #4
 8002e06:	e008      	b.n	8002e1a <HAL_GPIO_Init+0x1f6>
 8002e08:	2305      	movs	r3, #5
 8002e0a:	e006      	b.n	8002e1a <HAL_GPIO_Init+0x1f6>
 8002e0c:	2303      	movs	r3, #3
 8002e0e:	e004      	b.n	8002e1a <HAL_GPIO_Init+0x1f6>
 8002e10:	2302      	movs	r3, #2
 8002e12:	e002      	b.n	8002e1a <HAL_GPIO_Init+0x1f6>
 8002e14:	2301      	movs	r3, #1
 8002e16:	e000      	b.n	8002e1a <HAL_GPIO_Init+0x1f6>
 8002e18:	2300      	movs	r3, #0
 8002e1a:	697a      	ldr	r2, [r7, #20]
 8002e1c:	f002 0203 	and.w	r2, r2, #3
 8002e20:	0092      	lsls	r2, r2, #2
 8002e22:	4093      	lsls	r3, r2
 8002e24:	693a      	ldr	r2, [r7, #16]
 8002e26:	4313      	orrs	r3, r2
 8002e28:	613b      	str	r3, [r7, #16]
        SYSCFG->EXTICR[position >> 2] = temp;
 8002e2a:	4937      	ldr	r1, [pc, #220]	; (8002f08 <HAL_GPIO_Init+0x2e4>)
 8002e2c:	697b      	ldr	r3, [r7, #20]
 8002e2e:	089b      	lsrs	r3, r3, #2
 8002e30:	3302      	adds	r3, #2
 8002e32:	693a      	ldr	r2, [r7, #16]
 8002e34:	f841 2023 	str.w	r2, [r1, r3, lsl #2]

        /* Clear EXTI line configuration */
        temp = EXTI->IMR;
 8002e38:	4b39      	ldr	r3, [pc, #228]	; (8002f20 <HAL_GPIO_Init+0x2fc>)
 8002e3a:	681b      	ldr	r3, [r3, #0]
 8002e3c:	613b      	str	r3, [r7, #16]
        CLEAR_BIT(temp, (uint32_t)iocurrent);
 8002e3e:	68fb      	ldr	r3, [r7, #12]
 8002e40:	43db      	mvns	r3, r3
 8002e42:	693a      	ldr	r2, [r7, #16]
 8002e44:	4013      	ands	r3, r2
 8002e46:	613b      	str	r3, [r7, #16]
        if ((GPIO_Init->Mode & EXTI_IT) != 0x00U)
 8002e48:	683b      	ldr	r3, [r7, #0]
 8002e4a:	685b      	ldr	r3, [r3, #4]
 8002e4c:	f403 3380 	and.w	r3, r3, #65536	; 0x10000
 8002e50:	2b00      	cmp	r3, #0
 8002e52:	d003      	beq.n	8002e5c <HAL_GPIO_Init+0x238>
        {
          SET_BIT(temp, iocurrent);
 8002e54:	693a      	ldr	r2, [r7, #16]
 8002e56:	68fb      	ldr	r3, [r7, #12]
 8002e58:	4313      	orrs	r3, r2
 8002e5a:	613b      	str	r3, [r7, #16]
        }
        EXTI->IMR = temp;
 8002e5c:	4a30      	ldr	r2, [pc, #192]	; (8002f20 <HAL_GPIO_Init+0x2fc>)
 8002e5e:	693b      	ldr	r3, [r7, #16]
 8002e60:	6013      	str	r3, [r2, #0]

        temp = EXTI->EMR;
 8002e62:	4b2f      	ldr	r3, [pc, #188]	; (8002f20 <HAL_GPIO_Init+0x2fc>)
 8002e64:	685b      	ldr	r3, [r3, #4]
 8002e66:	613b      	str	r3, [r7, #16]
        CLEAR_BIT(temp, (uint32_t)iocurrent);
 8002e68:	68fb      	ldr	r3, [r7, #12]
 8002e6a:	43db      	mvns	r3, r3
 8002e6c:	693a      	ldr	r2, [r7, #16]
 8002e6e:	4013      	ands	r3, r2
 8002e70:	613b      	str	r3, [r7, #16]
        if ((GPIO_Init->Mode & EXTI_EVT) != 0x00U)
 8002e72:	683b      	ldr	r3, [r7, #0]
 8002e74:	685b      	ldr	r3, [r3, #4]
 8002e76:	f403 3300 	and.w	r3, r3, #131072	; 0x20000
 8002e7a:	2b00      	cmp	r3, #0
 8002e7c:	d003      	beq.n	8002e86 <HAL_GPIO_Init+0x262>
        {
          SET_BIT(temp, iocurrent);
 8002e7e:	693a      	ldr	r2, [r7, #16]
 8002e80:	68fb      	ldr	r3, [r7, #12]
 8002e82:	4313      	orrs	r3, r2
 8002e84:	613b      	str	r3, [r7, #16]
        }
        EXTI->EMR = temp;
 8002e86:	4a26      	ldr	r2, [pc, #152]	; (8002f20 <HAL_GPIO_Init+0x2fc>)
 8002e88:	693b      	ldr	r3, [r7, #16]
 8002e8a:	6053      	str	r3, [r2, #4]

        /* Clear Rising Falling edge configuration */
        temp = EXTI->RTSR;
 8002e8c:	4b24      	ldr	r3, [pc, #144]	; (8002f20 <HAL_GPIO_Init+0x2fc>)
 8002e8e:	689b      	ldr	r3, [r3, #8]
 8002e90:	613b      	str	r3, [r7, #16]
        CLEAR_BIT(temp, (uint32_t)iocurrent);
 8002e92:	68fb      	ldr	r3, [r7, #12]
 8002e94:	43db      	mvns	r3, r3
 8002e96:	693a      	ldr	r2, [r7, #16]
 8002e98:	4013      	ands	r3, r2
 8002e9a:	613b      	str	r3, [r7, #16]
        if ((GPIO_Init->Mode & TRIGGER_RISING) != 0x00U)
 8002e9c:	683b      	ldr	r3, [r7, #0]
 8002e9e:	685b      	ldr	r3, [r3, #4]
 8002ea0:	f403 1380 	and.w	r3, r3, #1048576	; 0x100000
 8002ea4:	2b00      	cmp	r3, #0
 8002ea6:	d003      	beq.n	8002eb0 <HAL_GPIO_Init+0x28c>
        {
          SET_BIT(temp, iocurrent);
 8002ea8:	693a      	ldr	r2, [r7, #16]
 8002eaa:	68fb      	ldr	r3, [r7, #12]
 8002eac:	4313      	orrs	r3, r2
 8002eae:	613b      	str	r3, [r7, #16]
        }
        EXTI->RTSR = temp;
 8002eb0:	4a1b      	ldr	r2, [pc, #108]	; (8002f20 <HAL_GPIO_Init+0x2fc>)
 8002eb2:	693b      	ldr	r3, [r7, #16]
 8002eb4:	6093      	str	r3, [r2, #8]

        temp = EXTI->FTSR;
 8002eb6:	4b1a      	ldr	r3, [pc, #104]	; (8002f20 <HAL_GPIO_Init+0x2fc>)
 8002eb8:	68db      	ldr	r3, [r3, #12]
 8002eba:	613b      	str	r3, [r7, #16]
        CLEAR_BIT(temp, (uint32_t)iocurrent);
 8002ebc:	68fb      	ldr	r3, [r7, #12]
 8002ebe:	43db      	mvns	r3, r3
 8002ec0:	693a      	ldr	r2, [r7, #16]
 8002ec2:	4013      	ands	r3, r2
 8002ec4:	613b      	str	r3, [r7, #16]
        if ((GPIO_Init->Mode & TRIGGER_FALLING) != 0x00U)
 8002ec6:	683b      	ldr	r3, [r7, #0]
 8002ec8:	685b      	ldr	r3, [r3, #4]
 8002eca:	f403 1300 	and.w	r3, r3, #2097152	; 0x200000
 8002ece:	2b00      	cmp	r3, #0
 8002ed0:	d003      	beq.n	8002eda <HAL_GPIO_Init+0x2b6>
        {
          SET_BIT(temp, iocurrent);
 8002ed2:	693a      	ldr	r2, [r7, #16]
 8002ed4:	68fb      	ldr	r3, [r7, #12]
 8002ed6:	4313      	orrs	r3, r2
 8002ed8:	613b      	str	r3, [r7, #16]
        }
        EXTI->FTSR = temp;
 8002eda:	4a11      	ldr	r2, [pc, #68]	; (8002f20 <HAL_GPIO_Init+0x2fc>)
 8002edc:	693b      	ldr	r3, [r7, #16]
 8002ede:	60d3      	str	r3, [r2, #12]
      }
    }

    position++;
 8002ee0:	697b      	ldr	r3, [r7, #20]
 8002ee2:	3301      	adds	r3, #1
 8002ee4:	617b      	str	r3, [r7, #20]
  while (((GPIO_Init->Pin) >> position) != 0)
 8002ee6:	683b      	ldr	r3, [r7, #0]
 8002ee8:	681a      	ldr	r2, [r3, #0]
 8002eea:	697b      	ldr	r3, [r7, #20]
 8002eec:	fa22 f303 	lsr.w	r3, r2, r3
 8002ef0:	2b00      	cmp	r3, #0
 8002ef2:	f47f aea3 	bne.w	8002c3c <HAL_GPIO_Init+0x18>
  }
}
 8002ef6:	bf00      	nop
 8002ef8:	bf00      	nop
 8002efa:	371c      	adds	r7, #28
 8002efc:	46bd      	mov	sp, r7
 8002efe:	bc80      	pop	{r7}
 8002f00:	4770      	bx	lr
 8002f02:	bf00      	nop
 8002f04:	40023800 	.word	0x40023800
 8002f08:	40010000 	.word	0x40010000
 8002f0c:	40020000 	.word	0x40020000
 8002f10:	40020400 	.word	0x40020400
 8002f14:	40020800 	.word	0x40020800
 8002f18:	40020c00 	.word	0x40020c00
 8002f1c:	40021000 	.word	0x40021000
 8002f20:	40010400 	.word	0x40010400

08002f24 <HAL_LCD_Init>:
  *         The LCD HighDrive can be enabled/disabled using related macros up to user.
  * @param  hlcd LCD handle
  * @retval None
  */
HAL_StatusTypeDef HAL_LCD_Init(LCD_HandleTypeDef *hlcd)
{
 8002f24:	b580      	push	{r7, lr}
 8002f26:	b084      	sub	sp, #16
 8002f28:	af00      	add	r7, sp, #0
 8002f2a:	6078      	str	r0, [r7, #4]
  uint32_t tickstart = 0x00;
 8002f2c:	2300      	movs	r3, #0
 8002f2e:	60bb      	str	r3, [r7, #8]
  uint8_t counter = 0;
 8002f30:	2300      	movs	r3, #0
 8002f32:	73fb      	strb	r3, [r7, #15]
    
  /* Check the LCD handle allocation */
  if(hlcd == NULL)
 8002f34:	687b      	ldr	r3, [r7, #4]
 8002f36:	2b00      	cmp	r3, #0
 8002f38:	d101      	bne.n	8002f3e <HAL_LCD_Init+0x1a>
  {
    return HAL_ERROR;
 8002f3a:	2301      	movs	r3, #1
 8002f3c:	e0a8      	b.n	8003090 <HAL_LCD_Init+0x16c>
  assert_param(IS_LCD_CONTRAST(hlcd->Init.Contrast)); 
  assert_param(IS_LCD_BLINK_FREQUENCY(hlcd->Init.BlinkFrequency)); 
  assert_param(IS_LCD_BLINK_MODE(hlcd->Init.BlinkMode)); 
  assert_param(IS_LCD_MUXSEGMENT(hlcd->Init.MuxSegment));
  
  if(hlcd->State == HAL_LCD_STATE_RESET)
 8002f3e:	687b      	ldr	r3, [r7, #4]
 8002f40:	f893 3035 	ldrb.w	r3, [r3, #53]	; 0x35
 8002f44:	b2db      	uxtb	r3, r3
 8002f46:	2b00      	cmp	r3, #0
 8002f48:	d106      	bne.n	8002f58 <HAL_LCD_Init+0x34>
  {
    /* Allocate lock resource and initialize it */
    hlcd->Lock = HAL_UNLOCKED;
 8002f4a:	687b      	ldr	r3, [r7, #4]
 8002f4c:	2200      	movs	r2, #0
 8002f4e:	f883 2034 	strb.w	r2, [r3, #52]	; 0x34

    /* Initialize the low level hardware (MSP) */
    HAL_LCD_MspInit(hlcd);
 8002f52:	6878      	ldr	r0, [r7, #4]
 8002f54:	f7ff f83e 	bl	8001fd4 <HAL_LCD_MspInit>
  }
  
  hlcd->State = HAL_LCD_STATE_BUSY;
 8002f58:	687b      	ldr	r3, [r7, #4]
 8002f5a:	2202      	movs	r2, #2
 8002f5c:	f883 2035 	strb.w	r2, [r3, #53]	; 0x35
  
  /* Disable the peripheral */
  __HAL_LCD_DISABLE(hlcd);
 8002f60:	687b      	ldr	r3, [r7, #4]
 8002f62:	681b      	ldr	r3, [r3, #0]
 8002f64:	681a      	ldr	r2, [r3, #0]
 8002f66:	687b      	ldr	r3, [r7, #4]
 8002f68:	681b      	ldr	r3, [r3, #0]
 8002f6a:	f022 0201 	bic.w	r2, r2, #1
 8002f6e:	601a      	str	r2, [r3, #0]
  
  /* Clear the LCD_RAM registers and enable the display request by setting the UDR bit
     in the LCD_SR register */
  for(counter = LCD_RAM_REGISTER0; counter <= LCD_RAM_REGISTER15; counter++)
 8002f70:	2300      	movs	r3, #0
 8002f72:	73fb      	strb	r3, [r7, #15]
 8002f74:	e00a      	b.n	8002f8c <HAL_LCD_Init+0x68>
  {
    hlcd->Instance->RAM[counter] = 0;
 8002f76:	687b      	ldr	r3, [r7, #4]
 8002f78:	681a      	ldr	r2, [r3, #0]
 8002f7a:	7bfb      	ldrb	r3, [r7, #15]
 8002f7c:	3304      	adds	r3, #4
 8002f7e:	009b      	lsls	r3, r3, #2
 8002f80:	4413      	add	r3, r2
 8002f82:	2200      	movs	r2, #0
 8002f84:	605a      	str	r2, [r3, #4]
  for(counter = LCD_RAM_REGISTER0; counter <= LCD_RAM_REGISTER15; counter++)
 8002f86:	7bfb      	ldrb	r3, [r7, #15]
 8002f88:	3301      	adds	r3, #1
 8002f8a:	73fb      	strb	r3, [r7, #15]
 8002f8c:	7bfb      	ldrb	r3, [r7, #15]
 8002f8e:	2b0f      	cmp	r3, #15
 8002f90:	d9f1      	bls.n	8002f76 <HAL_LCD_Init+0x52>
  }
  /* Enable the display request */
  SET_BIT(hlcd->Instance->SR, LCD_SR_UDR);
 8002f92:	687b      	ldr	r3, [r7, #4]
 8002f94:	681b      	ldr	r3, [r3, #0]
 8002f96:	689a      	ldr	r2, [r3, #8]
 8002f98:	687b      	ldr	r3, [r7, #4]
 8002f9a:	681b      	ldr	r3, [r3, #0]
 8002f9c:	f042 0204 	orr.w	r2, r2, #4
 8002fa0:	609a      	str	r2, [r3, #8]
     Set BLINKF[2:0] bits according to hlcd->Init.BlinkFrequency value
     Set DEAD[2:0] bits according to hlcd->Init.DeadTime value
     Set PON[2:0] bits according to hlcd->Init.PulseOnDuration value 
     Set CC[2:0] bits according to hlcd->Init.Contrast value
     Set HD[0] bit according to hlcd->Init.HighDrive value */
   MODIFY_REG(hlcd->Instance->FCR, \
 8002fa2:	687b      	ldr	r3, [r7, #4]
 8002fa4:	681b      	ldr	r3, [r3, #0]
 8002fa6:	685a      	ldr	r2, [r3, #4]
 8002fa8:	4b3b      	ldr	r3, [pc, #236]	; (8003098 <HAL_LCD_Init+0x174>)
 8002faa:	4013      	ands	r3, r2
 8002fac:	687a      	ldr	r2, [r7, #4]
 8002fae:	6851      	ldr	r1, [r2, #4]
 8002fb0:	687a      	ldr	r2, [r7, #4]
 8002fb2:	6892      	ldr	r2, [r2, #8]
 8002fb4:	4311      	orrs	r1, r2
 8002fb6:	687a      	ldr	r2, [r7, #4]
 8002fb8:	6a92      	ldr	r2, [r2, #40]	; 0x28
 8002fba:	4311      	orrs	r1, r2
 8002fbc:	687a      	ldr	r2, [r7, #4]
 8002fbe:	6ad2      	ldr	r2, [r2, #44]	; 0x2c
 8002fc0:	4311      	orrs	r1, r2
 8002fc2:	687a      	ldr	r2, [r7, #4]
 8002fc4:	69d2      	ldr	r2, [r2, #28]
 8002fc6:	4311      	orrs	r1, r2
 8002fc8:	687a      	ldr	r2, [r7, #4]
 8002fca:	6a12      	ldr	r2, [r2, #32]
 8002fcc:	4311      	orrs	r1, r2
 8002fce:	687a      	ldr	r2, [r7, #4]
 8002fd0:	6992      	ldr	r2, [r2, #24]
 8002fd2:	4311      	orrs	r1, r2
 8002fd4:	687a      	ldr	r2, [r7, #4]
 8002fd6:	6a52      	ldr	r2, [r2, #36]	; 0x24
 8002fd8:	4311      	orrs	r1, r2
 8002fda:	687a      	ldr	r2, [r7, #4]
 8002fdc:	6812      	ldr	r2, [r2, #0]
 8002fde:	430b      	orrs	r3, r1
 8002fe0:	6053      	str	r3, [r2, #4]
             hlcd->Init.DeadTime | hlcd->Init.PulseOnDuration | hlcd->Init.Contrast | hlcd->Init.HighDrive));

  /* Wait until LCD Frame Control Register Synchronization flag (FCRSF) is set in the LCD_SR register 
     This bit is set by hardware each time the LCD_FCR register is updated in the LCDCLK
     domain. It is cleared by hardware when writing to the LCD_FCR register.*/
  LCD_WaitForSynchro(hlcd);
 8002fe2:	6878      	ldr	r0, [r7, #4]
 8002fe4:	f000 f94e 	bl	8003284 <LCD_WaitForSynchro>
  /* Configure the LCD Duty, Bias, Voltage Source, Dead Time:
     Set DUTY[2:0] bits according to hlcd->Init.Duty value 
     Set BIAS[1:0] bits according to hlcd->Init.Bias value
     Set VSEL bit according to hlcd->Init.VoltageSource value
     Set MUX_SEG bit according to hlcd->Init.MuxSegment value */
  MODIFY_REG(hlcd->Instance->CR, \
 8002fe8:	687b      	ldr	r3, [r7, #4]
 8002fea:	681b      	ldr	r3, [r3, #0]
 8002fec:	681b      	ldr	r3, [r3, #0]
 8002fee:	f023 01fe 	bic.w	r1, r3, #254	; 0xfe
 8002ff2:	687b      	ldr	r3, [r7, #4]
 8002ff4:	68da      	ldr	r2, [r3, #12]
 8002ff6:	687b      	ldr	r3, [r7, #4]
 8002ff8:	691b      	ldr	r3, [r3, #16]
 8002ffa:	431a      	orrs	r2, r3
 8002ffc:	687b      	ldr	r3, [r7, #4]
 8002ffe:	695b      	ldr	r3, [r3, #20]
 8003000:	431a      	orrs	r2, r3
 8003002:	687b      	ldr	r3, [r7, #4]
 8003004:	6b1b      	ldr	r3, [r3, #48]	; 0x30
 8003006:	431a      	orrs	r2, r3
 8003008:	687b      	ldr	r3, [r7, #4]
 800300a:	681b      	ldr	r3, [r3, #0]
 800300c:	430a      	orrs	r2, r1
 800300e:	601a      	str	r2, [r3, #0]
    (LCD_CR_DUTY | LCD_CR_BIAS | LCD_CR_VSEL | LCD_CR_MUX_SEG), \
    (hlcd->Init.Duty | hlcd->Init.Bias | hlcd->Init.VoltageSource | hlcd->Init.MuxSegment));
  
  /* Enable the peripheral */
  __HAL_LCD_ENABLE(hlcd);
 8003010:	687b      	ldr	r3, [r7, #4]
 8003012:	681b      	ldr	r3, [r3, #0]
 8003014:	681a      	ldr	r2, [r3, #0]
 8003016:	687b      	ldr	r3, [r7, #4]
 8003018:	681b      	ldr	r3, [r3, #0]
 800301a:	f042 0201 	orr.w	r2, r2, #1
 800301e:	601a      	str	r2, [r3, #0]
  
  /* Get timeout */
  tickstart = HAL_GetTick();
 8003020:	f7ff fa5a 	bl	80024d8 <HAL_GetTick>
 8003024:	60b8      	str	r0, [r7, #8]
      
  /* Wait Until the LCD is enabled */
  while(__HAL_LCD_GET_FLAG(hlcd, LCD_FLAG_ENS) == RESET)
 8003026:	e00c      	b.n	8003042 <HAL_LCD_Init+0x11e>
  {
    if((HAL_GetTick() - tickstart ) > LCD_TIMEOUT_VALUE)
 8003028:	f7ff fa56 	bl	80024d8 <HAL_GetTick>
 800302c:	4602      	mov	r2, r0
 800302e:	68bb      	ldr	r3, [r7, #8]
 8003030:	1ad3      	subs	r3, r2, r3
 8003032:	f5b3 7f7a 	cmp.w	r3, #1000	; 0x3e8
 8003036:	d904      	bls.n	8003042 <HAL_LCD_Init+0x11e>
    { 
      hlcd->ErrorCode = HAL_LCD_ERROR_ENS;     
 8003038:	687b      	ldr	r3, [r7, #4]
 800303a:	2208      	movs	r2, #8
 800303c:	639a      	str	r2, [r3, #56]	; 0x38
      return HAL_TIMEOUT;
 800303e:	2303      	movs	r3, #3
 8003040:	e026      	b.n	8003090 <HAL_LCD_Init+0x16c>
  while(__HAL_LCD_GET_FLAG(hlcd, LCD_FLAG_ENS) == RESET)
 8003042:	687b      	ldr	r3, [r7, #4]
 8003044:	681b      	ldr	r3, [r3, #0]
 8003046:	689b      	ldr	r3, [r3, #8]
 8003048:	f003 0301 	and.w	r3, r3, #1
 800304c:	2b01      	cmp	r3, #1
 800304e:	d1eb      	bne.n	8003028 <HAL_LCD_Init+0x104>
    } 
  }
  
  /* Get timeout */
  tickstart = HAL_GetTick();
 8003050:	f7ff fa42 	bl	80024d8 <HAL_GetTick>
 8003054:	60b8      	str	r0, [r7, #8]
  
  /*!< Wait Until the LCD Booster is ready */
  while(__HAL_LCD_GET_FLAG(hlcd, LCD_FLAG_RDY) == RESET)
 8003056:	e00c      	b.n	8003072 <HAL_LCD_Init+0x14e>
  {
    if((HAL_GetTick() - tickstart ) > LCD_TIMEOUT_VALUE)
 8003058:	f7ff fa3e 	bl	80024d8 <HAL_GetTick>
 800305c:	4602      	mov	r2, r0
 800305e:	68bb      	ldr	r3, [r7, #8]
 8003060:	1ad3      	subs	r3, r2, r3
 8003062:	f5b3 7f7a 	cmp.w	r3, #1000	; 0x3e8
 8003066:	d904      	bls.n	8003072 <HAL_LCD_Init+0x14e>
    {   
      hlcd->ErrorCode = HAL_LCD_ERROR_RDY;  
 8003068:	687b      	ldr	r3, [r7, #4]
 800306a:	2210      	movs	r2, #16
 800306c:	639a      	str	r2, [r3, #56]	; 0x38
      return HAL_TIMEOUT;
 800306e:	2303      	movs	r3, #3
 8003070:	e00e      	b.n	8003090 <HAL_LCD_Init+0x16c>
  while(__HAL_LCD_GET_FLAG(hlcd, LCD_FLAG_RDY) == RESET)
 8003072:	687b      	ldr	r3, [r7, #4]
 8003074:	681b      	ldr	r3, [r3, #0]
 8003076:	689b      	ldr	r3, [r3, #8]
 8003078:	f003 0310 	and.w	r3, r3, #16
 800307c:	2b10      	cmp	r3, #16
 800307e:	d1eb      	bne.n	8003058 <HAL_LCD_Init+0x134>
    } 
  }
 
  /* Initialize the LCD state */
  hlcd->ErrorCode = HAL_LCD_ERROR_NONE;
 8003080:	687b      	ldr	r3, [r7, #4]
 8003082:	2200      	movs	r2, #0
 8003084:	639a      	str	r2, [r3, #56]	; 0x38
  hlcd->State= HAL_LCD_STATE_READY;
 8003086:	687b      	ldr	r3, [r7, #4]
 8003088:	2201      	movs	r2, #1
 800308a:	f883 2035 	strb.w	r2, [r3, #53]	; 0x35
  
  return HAL_OK;
 800308e:	2300      	movs	r3, #0
}
 8003090:	4618      	mov	r0, r3
 8003092:	3710      	adds	r7, #16
 8003094:	46bd      	mov	sp, r7
 8003096:	bd80      	pop	{r7, pc}
 8003098:	fc00000f 	.word	0xfc00000f

0800309c <HAL_LCD_Write>:
  * @param  RAMRegisterMask specifies the LCD RAM Register Data Mask.
  * @param  Data specifies LCD Data Value to be written.
  * @retval None
  */
HAL_StatusTypeDef HAL_LCD_Write(LCD_HandleTypeDef *hlcd, uint32_t RAMRegisterIndex, uint32_t RAMRegisterMask, uint32_t Data)
{
 800309c:	b580      	push	{r7, lr}
 800309e:	b086      	sub	sp, #24
 80030a0:	af00      	add	r7, sp, #0
 80030a2:	60f8      	str	r0, [r7, #12]
 80030a4:	60b9      	str	r1, [r7, #8]
 80030a6:	607a      	str	r2, [r7, #4]
 80030a8:	603b      	str	r3, [r7, #0]
  uint32_t tickstart = 0x00; 
 80030aa:	2300      	movs	r3, #0
 80030ac:	617b      	str	r3, [r7, #20]
  
  if((hlcd->State == HAL_LCD_STATE_READY) || (hlcd->State == HAL_LCD_STATE_BUSY))
 80030ae:	68fb      	ldr	r3, [r7, #12]
 80030b0:	f893 3035 	ldrb.w	r3, [r3, #53]	; 0x35
 80030b4:	b2db      	uxtb	r3, r3
 80030b6:	2b01      	cmp	r3, #1
 80030b8:	d005      	beq.n	80030c6 <HAL_LCD_Write+0x2a>
 80030ba:	68fb      	ldr	r3, [r7, #12]
 80030bc:	f893 3035 	ldrb.w	r3, [r3, #53]	; 0x35
 80030c0:	b2db      	uxtb	r3, r3
 80030c2:	2b02      	cmp	r3, #2
 80030c4:	d144      	bne.n	8003150 <HAL_LCD_Write+0xb4>
  {
    /* Check the parameters */
    assert_param(IS_LCD_RAM_REGISTER(RAMRegisterIndex));
    
    if(hlcd->State == HAL_LCD_STATE_READY)
 80030c6:	68fb      	ldr	r3, [r7, #12]
 80030c8:	f893 3035 	ldrb.w	r3, [r3, #53]	; 0x35
 80030cc:	b2db      	uxtb	r3, r3
 80030ce:	2b01      	cmp	r3, #1
 80030d0:	d12a      	bne.n	8003128 <HAL_LCD_Write+0x8c>
    {
      /* Process Locked */
      __HAL_LOCK(hlcd);
 80030d2:	68fb      	ldr	r3, [r7, #12]
 80030d4:	f893 3034 	ldrb.w	r3, [r3, #52]	; 0x34
 80030d8:	2b01      	cmp	r3, #1
 80030da:	d101      	bne.n	80030e0 <HAL_LCD_Write+0x44>
 80030dc:	2302      	movs	r3, #2
 80030de:	e038      	b.n	8003152 <HAL_LCD_Write+0xb6>
 80030e0:	68fb      	ldr	r3, [r7, #12]
 80030e2:	2201      	movs	r2, #1
 80030e4:	f883 2034 	strb.w	r2, [r3, #52]	; 0x34
      hlcd->State = HAL_LCD_STATE_BUSY;
 80030e8:	68fb      	ldr	r3, [r7, #12]
 80030ea:	2202      	movs	r2, #2
 80030ec:	f883 2035 	strb.w	r2, [r3, #53]	; 0x35
      
      /* Get timeout */
      tickstart = HAL_GetTick();
 80030f0:	f7ff f9f2 	bl	80024d8 <HAL_GetTick>
 80030f4:	6178      	str	r0, [r7, #20]
      
      /*!< Wait Until the LCD is ready */
      while(__HAL_LCD_GET_FLAG(hlcd, LCD_FLAG_UDR) != RESET)
 80030f6:	e010      	b.n	800311a <HAL_LCD_Write+0x7e>
      {
        if((HAL_GetTick() - tickstart ) > LCD_TIMEOUT_VALUE)
 80030f8:	f7ff f9ee 	bl	80024d8 <HAL_GetTick>
 80030fc:	4602      	mov	r2, r0
 80030fe:	697b      	ldr	r3, [r7, #20]
 8003100:	1ad3      	subs	r3, r2, r3
 8003102:	f5b3 7f7a 	cmp.w	r3, #1000	; 0x3e8
 8003106:	d908      	bls.n	800311a <HAL_LCD_Write+0x7e>
        { 
          hlcd->ErrorCode = HAL_LCD_ERROR_UDR;
 8003108:	68fb      	ldr	r3, [r7, #12]
 800310a:	2202      	movs	r2, #2
 800310c:	639a      	str	r2, [r3, #56]	; 0x38
          
          /* Process Unlocked */
          __HAL_UNLOCK(hlcd);
 800310e:	68fb      	ldr	r3, [r7, #12]
 8003110:	2200      	movs	r2, #0
 8003112:	f883 2034 	strb.w	r2, [r3, #52]	; 0x34
          
          return HAL_TIMEOUT;
 8003116:	2303      	movs	r3, #3
 8003118:	e01b      	b.n	8003152 <HAL_LCD_Write+0xb6>
      while(__HAL_LCD_GET_FLAG(hlcd, LCD_FLAG_UDR) != RESET)
 800311a:	68fb      	ldr	r3, [r7, #12]
 800311c:	681b      	ldr	r3, [r3, #0]
 800311e:	689b      	ldr	r3, [r3, #8]
 8003120:	f003 0304 	and.w	r3, r3, #4
 8003124:	2b04      	cmp	r3, #4
 8003126:	d0e7      	beq.n	80030f8 <HAL_LCD_Write+0x5c>
        } 
      }
    }
    
    /* Copy the new Data bytes to LCD RAM register */
    MODIFY_REG(hlcd->Instance->RAM[RAMRegisterIndex], ~(RAMRegisterMask), Data);
 8003128:	68fb      	ldr	r3, [r7, #12]
 800312a:	681a      	ldr	r2, [r3, #0]
 800312c:	68bb      	ldr	r3, [r7, #8]
 800312e:	3304      	adds	r3, #4
 8003130:	009b      	lsls	r3, r3, #2
 8003132:	4413      	add	r3, r2
 8003134:	685a      	ldr	r2, [r3, #4]
 8003136:	687b      	ldr	r3, [r7, #4]
 8003138:	401a      	ands	r2, r3
 800313a:	68fb      	ldr	r3, [r7, #12]
 800313c:	6819      	ldr	r1, [r3, #0]
 800313e:	683b      	ldr	r3, [r7, #0]
 8003140:	431a      	orrs	r2, r3
 8003142:	68bb      	ldr	r3, [r7, #8]
 8003144:	3304      	adds	r3, #4
 8003146:	009b      	lsls	r3, r3, #2
 8003148:	440b      	add	r3, r1
 800314a:	605a      	str	r2, [r3, #4]

    return HAL_OK;
 800314c:	2300      	movs	r3, #0
 800314e:	e000      	b.n	8003152 <HAL_LCD_Write+0xb6>
  }
  else
  {
    return HAL_ERROR;
 8003150:	2301      	movs	r3, #1
  }
}
 8003152:	4618      	mov	r0, r3
 8003154:	3718      	adds	r7, #24
 8003156:	46bd      	mov	sp, r7
 8003158:	bd80      	pop	{r7, pc}

0800315a <HAL_LCD_Clear>:
  * @brief Clears the LCD RAM registers.
  * @param hlcd: LCD handle
  * @retval None
  */
HAL_StatusTypeDef HAL_LCD_Clear(LCD_HandleTypeDef *hlcd)
{
 800315a:	b580      	push	{r7, lr}
 800315c:	b084      	sub	sp, #16
 800315e:	af00      	add	r7, sp, #0
 8003160:	6078      	str	r0, [r7, #4]
  uint32_t tickstart = 0x00; 
 8003162:	2300      	movs	r3, #0
 8003164:	60bb      	str	r3, [r7, #8]
  uint32_t counter = 0;
 8003166:	2300      	movs	r3, #0
 8003168:	60fb      	str	r3, [r7, #12]
  
  if((hlcd->State == HAL_LCD_STATE_READY) || (hlcd->State == HAL_LCD_STATE_BUSY))
 800316a:	687b      	ldr	r3, [r7, #4]
 800316c:	f893 3035 	ldrb.w	r3, [r3, #53]	; 0x35
 8003170:	b2db      	uxtb	r3, r3
 8003172:	2b01      	cmp	r3, #1
 8003174:	d005      	beq.n	8003182 <HAL_LCD_Clear+0x28>
 8003176:	687b      	ldr	r3, [r7, #4]
 8003178:	f893 3035 	ldrb.w	r3, [r3, #53]	; 0x35
 800317c:	b2db      	uxtb	r3, r3
 800317e:	2b02      	cmp	r3, #2
 8003180:	d140      	bne.n	8003204 <HAL_LCD_Clear+0xaa>
  {
    /* Process Locked */
    __HAL_LOCK(hlcd);
 8003182:	687b      	ldr	r3, [r7, #4]
 8003184:	f893 3034 	ldrb.w	r3, [r3, #52]	; 0x34
 8003188:	2b01      	cmp	r3, #1
 800318a:	d101      	bne.n	8003190 <HAL_LCD_Clear+0x36>
 800318c:	2302      	movs	r3, #2
 800318e:	e03a      	b.n	8003206 <HAL_LCD_Clear+0xac>
 8003190:	687b      	ldr	r3, [r7, #4]
 8003192:	2201      	movs	r2, #1
 8003194:	f883 2034 	strb.w	r2, [r3, #52]	; 0x34
    
    hlcd->State = HAL_LCD_STATE_BUSY;
 8003198:	687b      	ldr	r3, [r7, #4]
 800319a:	2202      	movs	r2, #2
 800319c:	f883 2035 	strb.w	r2, [r3, #53]	; 0x35
    
    /* Get timeout */
    tickstart = HAL_GetTick();
 80031a0:	f7ff f99a 	bl	80024d8 <HAL_GetTick>
 80031a4:	60b8      	str	r0, [r7, #8]
    
    /*!< Wait Until the LCD is ready */
    while(__HAL_LCD_GET_FLAG(hlcd, LCD_FLAG_UDR) != RESET)
 80031a6:	e010      	b.n	80031ca <HAL_LCD_Clear+0x70>
    {
      if((HAL_GetTick() - tickstart ) > LCD_TIMEOUT_VALUE)
 80031a8:	f7ff f996 	bl	80024d8 <HAL_GetTick>
 80031ac:	4602      	mov	r2, r0
 80031ae:	68bb      	ldr	r3, [r7, #8]
 80031b0:	1ad3      	subs	r3, r2, r3
 80031b2:	f5b3 7f7a 	cmp.w	r3, #1000	; 0x3e8
 80031b6:	d908      	bls.n	80031ca <HAL_LCD_Clear+0x70>
      { 
        hlcd->ErrorCode = HAL_LCD_ERROR_UDR;
 80031b8:	687b      	ldr	r3, [r7, #4]
 80031ba:	2202      	movs	r2, #2
 80031bc:	639a      	str	r2, [r3, #56]	; 0x38
        
        /* Process Unlocked */
        __HAL_UNLOCK(hlcd);
 80031be:	687b      	ldr	r3, [r7, #4]
 80031c0:	2200      	movs	r2, #0
 80031c2:	f883 2034 	strb.w	r2, [r3, #52]	; 0x34
        
        return HAL_TIMEOUT;
 80031c6:	2303      	movs	r3, #3
 80031c8:	e01d      	b.n	8003206 <HAL_LCD_Clear+0xac>
    while(__HAL_LCD_GET_FLAG(hlcd, LCD_FLAG_UDR) != RESET)
 80031ca:	687b      	ldr	r3, [r7, #4]
 80031cc:	681b      	ldr	r3, [r3, #0]
 80031ce:	689b      	ldr	r3, [r3, #8]
 80031d0:	f003 0304 	and.w	r3, r3, #4
 80031d4:	2b04      	cmp	r3, #4
 80031d6:	d0e7      	beq.n	80031a8 <HAL_LCD_Clear+0x4e>
      } 
    }
    /* Clear the LCD_RAM registers */
    for(counter = LCD_RAM_REGISTER0; counter <= LCD_RAM_REGISTER15; counter++)
 80031d8:	2300      	movs	r3, #0
 80031da:	60fb      	str	r3, [r7, #12]
 80031dc:	e00a      	b.n	80031f4 <HAL_LCD_Clear+0x9a>
    {
      hlcd->Instance->RAM[counter] = 0;
 80031de:	687b      	ldr	r3, [r7, #4]
 80031e0:	681a      	ldr	r2, [r3, #0]
 80031e2:	68fb      	ldr	r3, [r7, #12]
 80031e4:	3304      	adds	r3, #4
 80031e6:	009b      	lsls	r3, r3, #2
 80031e8:	4413      	add	r3, r2
 80031ea:	2200      	movs	r2, #0
 80031ec:	605a      	str	r2, [r3, #4]
    for(counter = LCD_RAM_REGISTER0; counter <= LCD_RAM_REGISTER15; counter++)
 80031ee:	68fb      	ldr	r3, [r7, #12]
 80031f0:	3301      	adds	r3, #1
 80031f2:	60fb      	str	r3, [r7, #12]
 80031f4:	68fb      	ldr	r3, [r7, #12]
 80031f6:	2b0f      	cmp	r3, #15
 80031f8:	d9f1      	bls.n	80031de <HAL_LCD_Clear+0x84>
    }
    
    /* Update the LCD display */
    HAL_LCD_UpdateDisplayRequest(hlcd);     
 80031fa:	6878      	ldr	r0, [r7, #4]
 80031fc:	f000 f807 	bl	800320e <HAL_LCD_UpdateDisplayRequest>
    
    return HAL_OK;
 8003200:	2300      	movs	r3, #0
 8003202:	e000      	b.n	8003206 <HAL_LCD_Clear+0xac>
  }
  else
  {
    return HAL_ERROR;
 8003204:	2301      	movs	r3, #1
  }
}
 8003206:	4618      	mov	r0, r3
 8003208:	3710      	adds	r7, #16
 800320a:	46bd      	mov	sp, r7
 800320c:	bd80      	pop	{r7, pc}

0800320e <HAL_LCD_UpdateDisplayRequest>:
  *         for which commons are active (depending on DUTY). For example if 
  *         DUTY = 1/2, only the LCD_DISPLAY of COM0 and COM1 will be updated.    
  * @retval None
  */
HAL_StatusTypeDef HAL_LCD_UpdateDisplayRequest(LCD_HandleTypeDef *hlcd)
{
 800320e:	b580      	push	{r7, lr}
 8003210:	b084      	sub	sp, #16
 8003212:	af00      	add	r7, sp, #0
 8003214:	6078      	str	r0, [r7, #4]
  uint32_t tickstart = 0x00;
 8003216:	2300      	movs	r3, #0
 8003218:	60fb      	str	r3, [r7, #12]
  
  /* Clear the Update Display Done flag before starting the update display request */
  __HAL_LCD_CLEAR_FLAG(hlcd, LCD_FLAG_UDD);
 800321a:	687b      	ldr	r3, [r7, #4]
 800321c:	681b      	ldr	r3, [r3, #0]
 800321e:	2208      	movs	r2, #8
 8003220:	60da      	str	r2, [r3, #12]
  
  /* Enable the display request */
  hlcd->Instance->SR |= LCD_SR_UDR;
 8003222:	687b      	ldr	r3, [r7, #4]
 8003224:	681b      	ldr	r3, [r3, #0]
 8003226:	689a      	ldr	r2, [r3, #8]
 8003228:	687b      	ldr	r3, [r7, #4]
 800322a:	681b      	ldr	r3, [r3, #0]
 800322c:	f042 0204 	orr.w	r2, r2, #4
 8003230:	609a      	str	r2, [r3, #8]
  
  /* Get timeout */
  tickstart = HAL_GetTick();
 8003232:	f7ff f951 	bl	80024d8 <HAL_GetTick>
 8003236:	60f8      	str	r0, [r7, #12]
  
  /*!< Wait Until the LCD display is done */
  while(__HAL_LCD_GET_FLAG(hlcd, LCD_FLAG_UDD) == RESET)
 8003238:	e010      	b.n	800325c <HAL_LCD_UpdateDisplayRequest+0x4e>
  {
    if((HAL_GetTick() - tickstart ) > LCD_TIMEOUT_VALUE)
 800323a:	f7ff f94d 	bl	80024d8 <HAL_GetTick>
 800323e:	4602      	mov	r2, r0
 8003240:	68fb      	ldr	r3, [r7, #12]
 8003242:	1ad3      	subs	r3, r2, r3
 8003244:	f5b3 7f7a 	cmp.w	r3, #1000	; 0x3e8
 8003248:	d908      	bls.n	800325c <HAL_LCD_UpdateDisplayRequest+0x4e>
    { 
      hlcd->ErrorCode = HAL_LCD_ERROR_UDD;
 800324a:	687b      	ldr	r3, [r7, #4]
 800324c:	2204      	movs	r2, #4
 800324e:	639a      	str	r2, [r3, #56]	; 0x38
      
      /* Process Unlocked */
      __HAL_UNLOCK(hlcd);
 8003250:	687b      	ldr	r3, [r7, #4]
 8003252:	2200      	movs	r2, #0
 8003254:	f883 2034 	strb.w	r2, [r3, #52]	; 0x34
  
      return HAL_TIMEOUT;
 8003258:	2303      	movs	r3, #3
 800325a:	e00f      	b.n	800327c <HAL_LCD_UpdateDisplayRequest+0x6e>
  while(__HAL_LCD_GET_FLAG(hlcd, LCD_FLAG_UDD) == RESET)
 800325c:	687b      	ldr	r3, [r7, #4]
 800325e:	681b      	ldr	r3, [r3, #0]
 8003260:	689b      	ldr	r3, [r3, #8]
 8003262:	f003 0308 	and.w	r3, r3, #8
 8003266:	2b08      	cmp	r3, #8
 8003268:	d1e7      	bne.n	800323a <HAL_LCD_UpdateDisplayRequest+0x2c>
    }
  }

  hlcd->State = HAL_LCD_STATE_READY;
 800326a:	687b      	ldr	r3, [r7, #4]
 800326c:	2201      	movs	r2, #1
 800326e:	f883 2035 	strb.w	r2, [r3, #53]	; 0x35
  
  /* Process Unlocked */
  __HAL_UNLOCK(hlcd);
 8003272:	687b      	ldr	r3, [r7, #4]
 8003274:	2200      	movs	r2, #0
 8003276:	f883 2034 	strb.w	r2, [r3, #52]	; 0x34
  
  return HAL_OK;
 800327a:	2300      	movs	r3, #0
}
 800327c:	4618      	mov	r0, r3
 800327e:	3710      	adds	r7, #16
 8003280:	46bd      	mov	sp, r7
 8003282:	bd80      	pop	{r7, pc}

08003284 <LCD_WaitForSynchro>:
  * @brief  Waits until the LCD FCR register is synchronized in the LCDCLK domain.
  *   This function must be called after any write operation to LCD_FCR register.
  * @retval None
  */
HAL_StatusTypeDef LCD_WaitForSynchro(LCD_HandleTypeDef *hlcd)
{
 8003284:	b580      	push	{r7, lr}
 8003286:	b084      	sub	sp, #16
 8003288:	af00      	add	r7, sp, #0
 800328a:	6078      	str	r0, [r7, #4]
  uint32_t tickstart = 0x00; 
 800328c:	2300      	movs	r3, #0
 800328e:	60fb      	str	r3, [r7, #12]
  
  /* Get timeout */
  tickstart = HAL_GetTick();
 8003290:	f7ff f922 	bl	80024d8 <HAL_GetTick>
 8003294:	60f8      	str	r0, [r7, #12]

  /* Loop until FCRSF flag is set */
  while(__HAL_LCD_GET_FLAG(hlcd, LCD_FLAG_FCRSF) == RESET)
 8003296:	e00c      	b.n	80032b2 <LCD_WaitForSynchro+0x2e>
  {
    if((HAL_GetTick() - tickstart ) > LCD_TIMEOUT_VALUE)
 8003298:	f7ff f91e 	bl	80024d8 <HAL_GetTick>
 800329c:	4602      	mov	r2, r0
 800329e:	68fb      	ldr	r3, [r7, #12]
 80032a0:	1ad3      	subs	r3, r2, r3
 80032a2:	f5b3 7f7a 	cmp.w	r3, #1000	; 0x3e8
 80032a6:	d904      	bls.n	80032b2 <LCD_WaitForSynchro+0x2e>
    {
      hlcd->ErrorCode = HAL_LCD_ERROR_FCRSF;
 80032a8:	687b      	ldr	r3, [r7, #4]
 80032aa:	2201      	movs	r2, #1
 80032ac:	639a      	str	r2, [r3, #56]	; 0x38
      return HAL_TIMEOUT;
 80032ae:	2303      	movs	r3, #3
 80032b0:	e007      	b.n	80032c2 <LCD_WaitForSynchro+0x3e>
  while(__HAL_LCD_GET_FLAG(hlcd, LCD_FLAG_FCRSF) == RESET)
 80032b2:	687b      	ldr	r3, [r7, #4]
 80032b4:	681b      	ldr	r3, [r3, #0]
 80032b6:	689b      	ldr	r3, [r3, #8]
 80032b8:	f003 0320 	and.w	r3, r3, #32
 80032bc:	2b20      	cmp	r3, #32
 80032be:	d1eb      	bne.n	8003298 <LCD_WaitForSynchro+0x14>
    }
  }

  return HAL_OK;
 80032c0:	2300      	movs	r3, #0
}
 80032c2:	4618      	mov	r0, r3
 80032c4:	3710      	adds	r7, #16
 80032c6:	46bd      	mov	sp, r7
 80032c8:	bd80      	pop	{r7, pc}
	...

080032cc <HAL_RCC_OscConfig>:
  *         supported by this macro. User should request a transition to HSE Off
  *         first and then HSE On or HSE Bypass.
  * @retval HAL status
  */
HAL_StatusTypeDef HAL_RCC_OscConfig(RCC_OscInitTypeDef  *RCC_OscInitStruct)
{
 80032cc:	b580      	push	{r7, lr}
 80032ce:	b088      	sub	sp, #32
 80032d0:	af00      	add	r7, sp, #0
 80032d2:	6078      	str	r0, [r7, #4]
  uint32_t tickstart;
  HAL_StatusTypeDef status;
  uint32_t sysclk_source, pll_config;

  /* Check the parameters */
  if(RCC_OscInitStruct == NULL)
 80032d4:	687b      	ldr	r3, [r7, #4]
 80032d6:	2b00      	cmp	r3, #0
 80032d8:	d101      	bne.n	80032de <HAL_RCC_OscConfig+0x12>
  {
    return HAL_ERROR;
 80032da:	2301      	movs	r3, #1
 80032dc:	e31d      	b.n	800391a <HAL_RCC_OscConfig+0x64e>
  }

  assert_param(IS_RCC_OSCILLATORTYPE(RCC_OscInitStruct->OscillatorType));

  sysclk_source = __HAL_RCC_GET_SYSCLK_SOURCE();
 80032de:	4b94      	ldr	r3, [pc, #592]	; (8003530 <HAL_RCC_OscConfig+0x264>)
 80032e0:	689b      	ldr	r3, [r3, #8]
 80032e2:	f003 030c 	and.w	r3, r3, #12
 80032e6:	61bb      	str	r3, [r7, #24]
  pll_config = __HAL_RCC_GET_PLL_OSCSOURCE();
 80032e8:	4b91      	ldr	r3, [pc, #580]	; (8003530 <HAL_RCC_OscConfig+0x264>)
 80032ea:	689b      	ldr	r3, [r3, #8]
 80032ec:	f403 3380 	and.w	r3, r3, #65536	; 0x10000
 80032f0:	617b      	str	r3, [r7, #20]

  /*------------------------------- HSE Configuration ------------------------*/
  if(((RCC_OscInitStruct->OscillatorType) & RCC_OSCILLATORTYPE_HSE) == RCC_OSCILLATORTYPE_HSE)
 80032f2:	687b      	ldr	r3, [r7, #4]
 80032f4:	681b      	ldr	r3, [r3, #0]
 80032f6:	f003 0301 	and.w	r3, r3, #1
 80032fa:	2b00      	cmp	r3, #0
 80032fc:	d07b      	beq.n	80033f6 <HAL_RCC_OscConfig+0x12a>
  {
    /* Check the parameters */
    assert_param(IS_RCC_HSE(RCC_OscInitStruct->HSEState));

    /* When the HSE is used as system clock or clock source for PLL in these cases it is not allowed to be disabled */
    if((sysclk_source == RCC_SYSCLKSOURCE_STATUS_HSE)
 80032fe:	69bb      	ldr	r3, [r7, #24]
 8003300:	2b08      	cmp	r3, #8
 8003302:	d006      	beq.n	8003312 <HAL_RCC_OscConfig+0x46>
       || ((sysclk_source == RCC_SYSCLKSOURCE_STATUS_PLLCLK) && (pll_config == RCC_PLLSOURCE_HSE)))
 8003304:	69bb      	ldr	r3, [r7, #24]
 8003306:	2b0c      	cmp	r3, #12
 8003308:	d10f      	bne.n	800332a <HAL_RCC_OscConfig+0x5e>
 800330a:	697b      	ldr	r3, [r7, #20]
 800330c:	f5b3 3f80 	cmp.w	r3, #65536	; 0x10000
 8003310:	d10b      	bne.n	800332a <HAL_RCC_OscConfig+0x5e>
    {
      if((__HAL_RCC_GET_FLAG(RCC_FLAG_HSERDY) != 0U) && (RCC_OscInitStruct->HSEState == RCC_HSE_OFF))
 8003312:	4b87      	ldr	r3, [pc, #540]	; (8003530 <HAL_RCC_OscConfig+0x264>)
 8003314:	681b      	ldr	r3, [r3, #0]
 8003316:	f403 3300 	and.w	r3, r3, #131072	; 0x20000
 800331a:	2b00      	cmp	r3, #0
 800331c:	d06a      	beq.n	80033f4 <HAL_RCC_OscConfig+0x128>
 800331e:	687b      	ldr	r3, [r7, #4]
 8003320:	685b      	ldr	r3, [r3, #4]
 8003322:	2b00      	cmp	r3, #0
 8003324:	d166      	bne.n	80033f4 <HAL_RCC_OscConfig+0x128>
      {
        return HAL_ERROR;
 8003326:	2301      	movs	r3, #1
 8003328:	e2f7      	b.n	800391a <HAL_RCC_OscConfig+0x64e>
      }
    }
    else
    {
      /* Set the new HSE configuration ---------------------------------------*/
      __HAL_RCC_HSE_CONFIG(RCC_OscInitStruct->HSEState);
 800332a:	687b      	ldr	r3, [r7, #4]
 800332c:	685b      	ldr	r3, [r3, #4]
 800332e:	2b01      	cmp	r3, #1
 8003330:	d106      	bne.n	8003340 <HAL_RCC_OscConfig+0x74>
 8003332:	4b7f      	ldr	r3, [pc, #508]	; (8003530 <HAL_RCC_OscConfig+0x264>)
 8003334:	681b      	ldr	r3, [r3, #0]
 8003336:	4a7e      	ldr	r2, [pc, #504]	; (8003530 <HAL_RCC_OscConfig+0x264>)
 8003338:	f443 3380 	orr.w	r3, r3, #65536	; 0x10000
 800333c:	6013      	str	r3, [r2, #0]
 800333e:	e02d      	b.n	800339c <HAL_RCC_OscConfig+0xd0>
 8003340:	687b      	ldr	r3, [r7, #4]
 8003342:	685b      	ldr	r3, [r3, #4]
 8003344:	2b00      	cmp	r3, #0
 8003346:	d10c      	bne.n	8003362 <HAL_RCC_OscConfig+0x96>
 8003348:	4b79      	ldr	r3, [pc, #484]	; (8003530 <HAL_RCC_OscConfig+0x264>)
 800334a:	681b      	ldr	r3, [r3, #0]
 800334c:	4a78      	ldr	r2, [pc, #480]	; (8003530 <HAL_RCC_OscConfig+0x264>)
 800334e:	f423 3380 	bic.w	r3, r3, #65536	; 0x10000
 8003352:	6013      	str	r3, [r2, #0]
 8003354:	4b76      	ldr	r3, [pc, #472]	; (8003530 <HAL_RCC_OscConfig+0x264>)
 8003356:	681b      	ldr	r3, [r3, #0]
 8003358:	4a75      	ldr	r2, [pc, #468]	; (8003530 <HAL_RCC_OscConfig+0x264>)
 800335a:	f423 2380 	bic.w	r3, r3, #262144	; 0x40000
 800335e:	6013      	str	r3, [r2, #0]
 8003360:	e01c      	b.n	800339c <HAL_RCC_OscConfig+0xd0>
 8003362:	687b      	ldr	r3, [r7, #4]
 8003364:	685b      	ldr	r3, [r3, #4]
 8003366:	2b05      	cmp	r3, #5
 8003368:	d10c      	bne.n	8003384 <HAL_RCC_OscConfig+0xb8>
 800336a:	4b71      	ldr	r3, [pc, #452]	; (8003530 <HAL_RCC_OscConfig+0x264>)
 800336c:	681b      	ldr	r3, [r3, #0]
 800336e:	4a70      	ldr	r2, [pc, #448]	; (8003530 <HAL_RCC_OscConfig+0x264>)
 8003370:	f443 2380 	orr.w	r3, r3, #262144	; 0x40000
 8003374:	6013      	str	r3, [r2, #0]
 8003376:	4b6e      	ldr	r3, [pc, #440]	; (8003530 <HAL_RCC_OscConfig+0x264>)
 8003378:	681b      	ldr	r3, [r3, #0]
 800337a:	4a6d      	ldr	r2, [pc, #436]	; (8003530 <HAL_RCC_OscConfig+0x264>)
 800337c:	f443 3380 	orr.w	r3, r3, #65536	; 0x10000
 8003380:	6013      	str	r3, [r2, #0]
 8003382:	e00b      	b.n	800339c <HAL_RCC_OscConfig+0xd0>
 8003384:	4b6a      	ldr	r3, [pc, #424]	; (8003530 <HAL_RCC_OscConfig+0x264>)
 8003386:	681b      	ldr	r3, [r3, #0]
 8003388:	4a69      	ldr	r2, [pc, #420]	; (8003530 <HAL_RCC_OscConfig+0x264>)
 800338a:	f423 3380 	bic.w	r3, r3, #65536	; 0x10000
 800338e:	6013      	str	r3, [r2, #0]
 8003390:	4b67      	ldr	r3, [pc, #412]	; (8003530 <HAL_RCC_OscConfig+0x264>)
 8003392:	681b      	ldr	r3, [r3, #0]
 8003394:	4a66      	ldr	r2, [pc, #408]	; (8003530 <HAL_RCC_OscConfig+0x264>)
 8003396:	f423 2380 	bic.w	r3, r3, #262144	; 0x40000
 800339a:	6013      	str	r3, [r2, #0]

      /* Check the HSE State */
      if(RCC_OscInitStruct->HSEState != RCC_HSE_OFF)
 800339c:	687b      	ldr	r3, [r7, #4]
 800339e:	685b      	ldr	r3, [r3, #4]
 80033a0:	2b00      	cmp	r3, #0
 80033a2:	d013      	beq.n	80033cc <HAL_RCC_OscConfig+0x100>
      {
        /* Get Start Tick */
        tickstart = HAL_GetTick();
 80033a4:	f7ff f898 	bl	80024d8 <HAL_GetTick>
 80033a8:	6138      	str	r0, [r7, #16]

        /* Wait till HSE is ready */
        while(__HAL_RCC_GET_FLAG(RCC_FLAG_HSERDY) == 0U)
 80033aa:	e008      	b.n	80033be <HAL_RCC_OscConfig+0xf2>
        {
          if((HAL_GetTick() - tickstart ) > HSE_TIMEOUT_VALUE)
 80033ac:	f7ff f894 	bl	80024d8 <HAL_GetTick>
 80033b0:	4602      	mov	r2, r0
 80033b2:	693b      	ldr	r3, [r7, #16]
 80033b4:	1ad3      	subs	r3, r2, r3
 80033b6:	2b64      	cmp	r3, #100	; 0x64
 80033b8:	d901      	bls.n	80033be <HAL_RCC_OscConfig+0xf2>
          {
            return HAL_TIMEOUT;
 80033ba:	2303      	movs	r3, #3
 80033bc:	e2ad      	b.n	800391a <HAL_RCC_OscConfig+0x64e>
        while(__HAL_RCC_GET_FLAG(RCC_FLAG_HSERDY) == 0U)
 80033be:	4b5c      	ldr	r3, [pc, #368]	; (8003530 <HAL_RCC_OscConfig+0x264>)
 80033c0:	681b      	ldr	r3, [r3, #0]
 80033c2:	f403 3300 	and.w	r3, r3, #131072	; 0x20000
 80033c6:	2b00      	cmp	r3, #0
 80033c8:	d0f0      	beq.n	80033ac <HAL_RCC_OscConfig+0xe0>
 80033ca:	e014      	b.n	80033f6 <HAL_RCC_OscConfig+0x12a>
        }
      }
      else
      {
        /* Get Start Tick */
        tickstart = HAL_GetTick();
 80033cc:	f7ff f884 	bl	80024d8 <HAL_GetTick>
 80033d0:	6138      	str	r0, [r7, #16]

        /* Wait till HSE is disabled */
        while(__HAL_RCC_GET_FLAG(RCC_FLAG_HSERDY) != 0U)
 80033d2:	e008      	b.n	80033e6 <HAL_RCC_OscConfig+0x11a>
        {
           if((HAL_GetTick() - tickstart ) > HSE_TIMEOUT_VALUE)
 80033d4:	f7ff f880 	bl	80024d8 <HAL_GetTick>
 80033d8:	4602      	mov	r2, r0
 80033da:	693b      	ldr	r3, [r7, #16]
 80033dc:	1ad3      	subs	r3, r2, r3
 80033de:	2b64      	cmp	r3, #100	; 0x64
 80033e0:	d901      	bls.n	80033e6 <HAL_RCC_OscConfig+0x11a>
          {
            return HAL_TIMEOUT;
 80033e2:	2303      	movs	r3, #3
 80033e4:	e299      	b.n	800391a <HAL_RCC_OscConfig+0x64e>
        while(__HAL_RCC_GET_FLAG(RCC_FLAG_HSERDY) != 0U)
 80033e6:	4b52      	ldr	r3, [pc, #328]	; (8003530 <HAL_RCC_OscConfig+0x264>)
 80033e8:	681b      	ldr	r3, [r3, #0]
 80033ea:	f403 3300 	and.w	r3, r3, #131072	; 0x20000
 80033ee:	2b00      	cmp	r3, #0
 80033f0:	d1f0      	bne.n	80033d4 <HAL_RCC_OscConfig+0x108>
 80033f2:	e000      	b.n	80033f6 <HAL_RCC_OscConfig+0x12a>
      if((__HAL_RCC_GET_FLAG(RCC_FLAG_HSERDY) != 0U) && (RCC_OscInitStruct->HSEState == RCC_HSE_OFF))
 80033f4:	bf00      	nop
        }
      }
    }
  }
  /*----------------------------- HSI Configuration --------------------------*/
  if(((RCC_OscInitStruct->OscillatorType) & RCC_OSCILLATORTYPE_HSI) == RCC_OSCILLATORTYPE_HSI)
 80033f6:	687b      	ldr	r3, [r7, #4]
 80033f8:	681b      	ldr	r3, [r3, #0]
 80033fa:	f003 0302 	and.w	r3, r3, #2
 80033fe:	2b00      	cmp	r3, #0
 8003400:	d05a      	beq.n	80034b8 <HAL_RCC_OscConfig+0x1ec>
    /* Check the parameters */
    assert_param(IS_RCC_HSI(RCC_OscInitStruct->HSIState));
    assert_param(IS_RCC_CALIBRATION_VALUE(RCC_OscInitStruct->HSICalibrationValue));

    /* Check if HSI is used as system clock or as PLL source when PLL is selected as system clock */
    if((sysclk_source == RCC_SYSCLKSOURCE_STATUS_HSI)
 8003402:	69bb      	ldr	r3, [r7, #24]
 8003404:	2b04      	cmp	r3, #4
 8003406:	d005      	beq.n	8003414 <HAL_RCC_OscConfig+0x148>
       || ((sysclk_source == RCC_SYSCLKSOURCE_STATUS_PLLCLK) && (pll_config == RCC_PLLSOURCE_HSI)))
 8003408:	69bb      	ldr	r3, [r7, #24]
 800340a:	2b0c      	cmp	r3, #12
 800340c:	d119      	bne.n	8003442 <HAL_RCC_OscConfig+0x176>
 800340e:	697b      	ldr	r3, [r7, #20]
 8003410:	2b00      	cmp	r3, #0
 8003412:	d116      	bne.n	8003442 <HAL_RCC_OscConfig+0x176>
    {
      /* When HSI is used as system clock it will not disabled */
      if((__HAL_RCC_GET_FLAG(RCC_FLAG_HSIRDY) != 0U) && (RCC_OscInitStruct->HSIState != RCC_HSI_ON))
 8003414:	4b46      	ldr	r3, [pc, #280]	; (8003530 <HAL_RCC_OscConfig+0x264>)
 8003416:	681b      	ldr	r3, [r3, #0]
 8003418:	f003 0302 	and.w	r3, r3, #2
 800341c:	2b00      	cmp	r3, #0
 800341e:	d005      	beq.n	800342c <HAL_RCC_OscConfig+0x160>
 8003420:	687b      	ldr	r3, [r7, #4]
 8003422:	68db      	ldr	r3, [r3, #12]
 8003424:	2b01      	cmp	r3, #1
 8003426:	d001      	beq.n	800342c <HAL_RCC_OscConfig+0x160>
      {
        return HAL_ERROR;
 8003428:	2301      	movs	r3, #1
 800342a:	e276      	b.n	800391a <HAL_RCC_OscConfig+0x64e>
      }
      /* Otherwise, just the calibration is allowed */
      else
      {
        /* Adjusts the Internal High Speed oscillator (HSI) calibration value.*/
        __HAL_RCC_HSI_CALIBRATIONVALUE_ADJUST(RCC_OscInitStruct->HSICalibrationValue);
 800342c:	4b40      	ldr	r3, [pc, #256]	; (8003530 <HAL_RCC_OscConfig+0x264>)
 800342e:	685b      	ldr	r3, [r3, #4]
 8003430:	f423 52f8 	bic.w	r2, r3, #7936	; 0x1f00
 8003434:	687b      	ldr	r3, [r7, #4]
 8003436:	691b      	ldr	r3, [r3, #16]
 8003438:	021b      	lsls	r3, r3, #8
 800343a:	493d      	ldr	r1, [pc, #244]	; (8003530 <HAL_RCC_OscConfig+0x264>)
 800343c:	4313      	orrs	r3, r2
 800343e:	604b      	str	r3, [r1, #4]
      if((__HAL_RCC_GET_FLAG(RCC_FLAG_HSIRDY) != 0U) && (RCC_OscInitStruct->HSIState != RCC_HSI_ON))
 8003440:	e03a      	b.n	80034b8 <HAL_RCC_OscConfig+0x1ec>
      }
    }
    else
    {
      /* Check the HSI State */
      if(RCC_OscInitStruct->HSIState != RCC_HSI_OFF)
 8003442:	687b      	ldr	r3, [r7, #4]
 8003444:	68db      	ldr	r3, [r3, #12]
 8003446:	2b00      	cmp	r3, #0
 8003448:	d020      	beq.n	800348c <HAL_RCC_OscConfig+0x1c0>
      {
        /* Enable the Internal High Speed oscillator (HSI). */
        __HAL_RCC_HSI_ENABLE();
 800344a:	4b3a      	ldr	r3, [pc, #232]	; (8003534 <HAL_RCC_OscConfig+0x268>)
 800344c:	2201      	movs	r2, #1
 800344e:	601a      	str	r2, [r3, #0]

        /* Get Start Tick */
        tickstart = HAL_GetTick();
 8003450:	f7ff f842 	bl	80024d8 <HAL_GetTick>
 8003454:	6138      	str	r0, [r7, #16]

        /* Wait till HSI is ready */
        while(__HAL_RCC_GET_FLAG(RCC_FLAG_HSIRDY) == 0U)
 8003456:	e008      	b.n	800346a <HAL_RCC_OscConfig+0x19e>
        {
          if((HAL_GetTick() - tickstart ) > HSI_TIMEOUT_VALUE)
 8003458:	f7ff f83e 	bl	80024d8 <HAL_GetTick>
 800345c:	4602      	mov	r2, r0
 800345e:	693b      	ldr	r3, [r7, #16]
 8003460:	1ad3      	subs	r3, r2, r3
 8003462:	2b02      	cmp	r3, #2
 8003464:	d901      	bls.n	800346a <HAL_RCC_OscConfig+0x19e>
          {
            return HAL_TIMEOUT;
 8003466:	2303      	movs	r3, #3
 8003468:	e257      	b.n	800391a <HAL_RCC_OscConfig+0x64e>
        while(__HAL_RCC_GET_FLAG(RCC_FLAG_HSIRDY) == 0U)
 800346a:	4b31      	ldr	r3, [pc, #196]	; (8003530 <HAL_RCC_OscConfig+0x264>)
 800346c:	681b      	ldr	r3, [r3, #0]
 800346e:	f003 0302 	and.w	r3, r3, #2
 8003472:	2b00      	cmp	r3, #0
 8003474:	d0f0      	beq.n	8003458 <HAL_RCC_OscConfig+0x18c>
          }
        }

        /* Adjusts the Internal High Speed oscillator (HSI) calibration value.*/
        __HAL_RCC_HSI_CALIBRATIONVALUE_ADJUST(RCC_OscInitStruct->HSICalibrationValue);
 8003476:	4b2e      	ldr	r3, [pc, #184]	; (8003530 <HAL_RCC_OscConfig+0x264>)
 8003478:	685b      	ldr	r3, [r3, #4]
 800347a:	f423 52f8 	bic.w	r2, r3, #7936	; 0x1f00
 800347e:	687b      	ldr	r3, [r7, #4]
 8003480:	691b      	ldr	r3, [r3, #16]
 8003482:	021b      	lsls	r3, r3, #8
 8003484:	492a      	ldr	r1, [pc, #168]	; (8003530 <HAL_RCC_OscConfig+0x264>)
 8003486:	4313      	orrs	r3, r2
 8003488:	604b      	str	r3, [r1, #4]
 800348a:	e015      	b.n	80034b8 <HAL_RCC_OscConfig+0x1ec>
      }
      else
      {
        /* Disable the Internal High Speed oscillator (HSI). */
        __HAL_RCC_HSI_DISABLE();
 800348c:	4b29      	ldr	r3, [pc, #164]	; (8003534 <HAL_RCC_OscConfig+0x268>)
 800348e:	2200      	movs	r2, #0
 8003490:	601a      	str	r2, [r3, #0]

        /* Get Start Tick */
        tickstart = HAL_GetTick();
 8003492:	f7ff f821 	bl	80024d8 <HAL_GetTick>
 8003496:	6138      	str	r0, [r7, #16]

        /* Wait till HSI is disabled */
        while(__HAL_RCC_GET_FLAG(RCC_FLAG_HSIRDY) != 0U)
 8003498:	e008      	b.n	80034ac <HAL_RCC_OscConfig+0x1e0>
        {
          if((HAL_GetTick() - tickstart ) > HSI_TIMEOUT_VALUE)
 800349a:	f7ff f81d 	bl	80024d8 <HAL_GetTick>
 800349e:	4602      	mov	r2, r0
 80034a0:	693b      	ldr	r3, [r7, #16]
 80034a2:	1ad3      	subs	r3, r2, r3
 80034a4:	2b02      	cmp	r3, #2
 80034a6:	d901      	bls.n	80034ac <HAL_RCC_OscConfig+0x1e0>
          {
            return HAL_TIMEOUT;
 80034a8:	2303      	movs	r3, #3
 80034aa:	e236      	b.n	800391a <HAL_RCC_OscConfig+0x64e>
        while(__HAL_RCC_GET_FLAG(RCC_FLAG_HSIRDY) != 0U)
 80034ac:	4b20      	ldr	r3, [pc, #128]	; (8003530 <HAL_RCC_OscConfig+0x264>)
 80034ae:	681b      	ldr	r3, [r3, #0]
 80034b0:	f003 0302 	and.w	r3, r3, #2
 80034b4:	2b00      	cmp	r3, #0
 80034b6:	d1f0      	bne.n	800349a <HAL_RCC_OscConfig+0x1ce>
        }
      }
    }
  }
  /*----------------------------- MSI Configuration --------------------------*/
  if(((RCC_OscInitStruct->OscillatorType) & RCC_OSCILLATORTYPE_MSI) == RCC_OSCILLATORTYPE_MSI)
 80034b8:	687b      	ldr	r3, [r7, #4]
 80034ba:	681b      	ldr	r3, [r3, #0]
 80034bc:	f003 0310 	and.w	r3, r3, #16
 80034c0:	2b00      	cmp	r3, #0
 80034c2:	f000 80b8 	beq.w	8003636 <HAL_RCC_OscConfig+0x36a>
  {
    /* When the MSI is used as system clock it will not be disabled */
    if(sysclk_source == RCC_CFGR_SWS_MSI)
 80034c6:	69bb      	ldr	r3, [r7, #24]
 80034c8:	2b00      	cmp	r3, #0
 80034ca:	d170      	bne.n	80035ae <HAL_RCC_OscConfig+0x2e2>
    {
      if((__HAL_RCC_GET_FLAG(RCC_FLAG_MSIRDY) != 0U) && (RCC_OscInitStruct->MSIState == RCC_MSI_OFF))
 80034cc:	4b18      	ldr	r3, [pc, #96]	; (8003530 <HAL_RCC_OscConfig+0x264>)
 80034ce:	681b      	ldr	r3, [r3, #0]
 80034d0:	f403 7300 	and.w	r3, r3, #512	; 0x200
 80034d4:	2b00      	cmp	r3, #0
 80034d6:	d005      	beq.n	80034e4 <HAL_RCC_OscConfig+0x218>
 80034d8:	687b      	ldr	r3, [r7, #4]
 80034da:	699b      	ldr	r3, [r3, #24]
 80034dc:	2b00      	cmp	r3, #0
 80034de:	d101      	bne.n	80034e4 <HAL_RCC_OscConfig+0x218>
      {
        return HAL_ERROR;
 80034e0:	2301      	movs	r3, #1
 80034e2:	e21a      	b.n	800391a <HAL_RCC_OscConfig+0x64e>
        assert_param(IS_RCC_MSI_CLOCK_RANGE(RCC_OscInitStruct->MSIClockRange));

        /* To correctly read data from FLASH memory, the number of wait states (LATENCY)
           must be correctly programmed according to the frequency of the CPU clock
           (HCLK) and the supply voltage of the device. */
        if(RCC_OscInitStruct->MSIClockRange > __HAL_RCC_GET_MSI_RANGE())
 80034e4:	687b      	ldr	r3, [r7, #4]
 80034e6:	6a1a      	ldr	r2, [r3, #32]
 80034e8:	4b11      	ldr	r3, [pc, #68]	; (8003530 <HAL_RCC_OscConfig+0x264>)
 80034ea:	685b      	ldr	r3, [r3, #4]
 80034ec:	f403 4360 	and.w	r3, r3, #57344	; 0xe000
 80034f0:	429a      	cmp	r2, r3
 80034f2:	d921      	bls.n	8003538 <HAL_RCC_OscConfig+0x26c>
        {
          /* First increase number of wait states update if necessary */
          if(RCC_SetFlashLatencyFromMSIRange(RCC_OscInitStruct->MSIClockRange) != HAL_OK)
 80034f4:	687b      	ldr	r3, [r7, #4]
 80034f6:	6a1b      	ldr	r3, [r3, #32]
 80034f8:	4618      	mov	r0, r3
 80034fa:	f000 fc4b 	bl	8003d94 <RCC_SetFlashLatencyFromMSIRange>
 80034fe:	4603      	mov	r3, r0
 8003500:	2b00      	cmp	r3, #0
 8003502:	d001      	beq.n	8003508 <HAL_RCC_OscConfig+0x23c>
          {
            return HAL_ERROR;
 8003504:	2301      	movs	r3, #1
 8003506:	e208      	b.n	800391a <HAL_RCC_OscConfig+0x64e>
          }

          /* Selects the Multiple Speed oscillator (MSI) clock range .*/
          __HAL_RCC_MSI_RANGE_CONFIG(RCC_OscInitStruct->MSIClockRange);
 8003508:	4b09      	ldr	r3, [pc, #36]	; (8003530 <HAL_RCC_OscConfig+0x264>)
 800350a:	685b      	ldr	r3, [r3, #4]
 800350c:	f423 4260 	bic.w	r2, r3, #57344	; 0xe000
 8003510:	687b      	ldr	r3, [r7, #4]
 8003512:	6a1b      	ldr	r3, [r3, #32]
 8003514:	4906      	ldr	r1, [pc, #24]	; (8003530 <HAL_RCC_OscConfig+0x264>)
 8003516:	4313      	orrs	r3, r2
 8003518:	604b      	str	r3, [r1, #4]
          /* Adjusts the Multiple Speed oscillator (MSI) calibration value.*/
          __HAL_RCC_MSI_CALIBRATIONVALUE_ADJUST(RCC_OscInitStruct->MSICalibrationValue);
 800351a:	4b05      	ldr	r3, [pc, #20]	; (8003530 <HAL_RCC_OscConfig+0x264>)
 800351c:	685b      	ldr	r3, [r3, #4]
 800351e:	f023 427f 	bic.w	r2, r3, #4278190080	; 0xff000000
 8003522:	687b      	ldr	r3, [r7, #4]
 8003524:	69db      	ldr	r3, [r3, #28]
 8003526:	061b      	lsls	r3, r3, #24
 8003528:	4901      	ldr	r1, [pc, #4]	; (8003530 <HAL_RCC_OscConfig+0x264>)
 800352a:	4313      	orrs	r3, r2
 800352c:	604b      	str	r3, [r1, #4]
 800352e:	e020      	b.n	8003572 <HAL_RCC_OscConfig+0x2a6>
 8003530:	40023800 	.word	0x40023800
 8003534:	42470000 	.word	0x42470000
        }
        else
        {
          /* Else, keep current flash latency while decreasing applies */
          /* Selects the Multiple Speed oscillator (MSI) clock range .*/
          __HAL_RCC_MSI_RANGE_CONFIG(RCC_OscInitStruct->MSIClockRange);
 8003538:	4b99      	ldr	r3, [pc, #612]	; (80037a0 <HAL_RCC_OscConfig+0x4d4>)
 800353a:	685b      	ldr	r3, [r3, #4]
 800353c:	f423 4260 	bic.w	r2, r3, #57344	; 0xe000
 8003540:	687b      	ldr	r3, [r7, #4]
 8003542:	6a1b      	ldr	r3, [r3, #32]
 8003544:	4996      	ldr	r1, [pc, #600]	; (80037a0 <HAL_RCC_OscConfig+0x4d4>)
 8003546:	4313      	orrs	r3, r2
 8003548:	604b      	str	r3, [r1, #4]
          /* Adjusts the Multiple Speed oscillator (MSI) calibration value.*/
          __HAL_RCC_MSI_CALIBRATIONVALUE_ADJUST(RCC_OscInitStruct->MSICalibrationValue);
 800354a:	4b95      	ldr	r3, [pc, #596]	; (80037a0 <HAL_RCC_OscConfig+0x4d4>)
 800354c:	685b      	ldr	r3, [r3, #4]
 800354e:	f023 427f 	bic.w	r2, r3, #4278190080	; 0xff000000
 8003552:	687b      	ldr	r3, [r7, #4]
 8003554:	69db      	ldr	r3, [r3, #28]
 8003556:	061b      	lsls	r3, r3, #24
 8003558:	4991      	ldr	r1, [pc, #580]	; (80037a0 <HAL_RCC_OscConfig+0x4d4>)
 800355a:	4313      	orrs	r3, r2
 800355c:	604b      	str	r3, [r1, #4]

          /* Decrease number of wait states update if necessary */
          if(RCC_SetFlashLatencyFromMSIRange(RCC_OscInitStruct->MSIClockRange) != HAL_OK)
 800355e:	687b      	ldr	r3, [r7, #4]
 8003560:	6a1b      	ldr	r3, [r3, #32]
 8003562:	4618      	mov	r0, r3
 8003564:	f000 fc16 	bl	8003d94 <RCC_SetFlashLatencyFromMSIRange>
 8003568:	4603      	mov	r3, r0
 800356a:	2b00      	cmp	r3, #0
 800356c:	d001      	beq.n	8003572 <HAL_RCC_OscConfig+0x2a6>
          {
            return HAL_ERROR;
 800356e:	2301      	movs	r3, #1
 8003570:	e1d3      	b.n	800391a <HAL_RCC_OscConfig+0x64e>
          }
        }

        /* Update the SystemCoreClock global variable */
        SystemCoreClock =  (32768U * (1UL << ((RCC_OscInitStruct->MSIClockRange >> RCC_ICSCR_MSIRANGE_Pos) + 1U)))
 8003572:	687b      	ldr	r3, [r7, #4]
 8003574:	6a1b      	ldr	r3, [r3, #32]
 8003576:	0b5b      	lsrs	r3, r3, #13
 8003578:	3301      	adds	r3, #1
 800357a:	f44f 4200 	mov.w	r2, #32768	; 0x8000
 800357e:	fa02 f303 	lsl.w	r3, r2, r3
                           >> AHBPrescTable[((RCC->CFGR & RCC_CFGR_HPRE) >> RCC_CFGR_HPRE_Pos)];
 8003582:	4a87      	ldr	r2, [pc, #540]	; (80037a0 <HAL_RCC_OscConfig+0x4d4>)
 8003584:	6892      	ldr	r2, [r2, #8]
 8003586:	0912      	lsrs	r2, r2, #4
 8003588:	f002 020f 	and.w	r2, r2, #15
 800358c:	4985      	ldr	r1, [pc, #532]	; (80037a4 <HAL_RCC_OscConfig+0x4d8>)
 800358e:	5c8a      	ldrb	r2, [r1, r2]
 8003590:	40d3      	lsrs	r3, r2
        SystemCoreClock =  (32768U * (1UL << ((RCC_OscInitStruct->MSIClockRange >> RCC_ICSCR_MSIRANGE_Pos) + 1U)))
 8003592:	4a85      	ldr	r2, [pc, #532]	; (80037a8 <HAL_RCC_OscConfig+0x4dc>)
 8003594:	6013      	str	r3, [r2, #0]

        /* Configure the source of time base considering new system clocks settings*/
        status = HAL_InitTick(uwTickPrio);
 8003596:	4b85      	ldr	r3, [pc, #532]	; (80037ac <HAL_RCC_OscConfig+0x4e0>)
 8003598:	681b      	ldr	r3, [r3, #0]
 800359a:	4618      	mov	r0, r3
 800359c:	f7fe ff50 	bl	8002440 <HAL_InitTick>
 80035a0:	4603      	mov	r3, r0
 80035a2:	73fb      	strb	r3, [r7, #15]
        if(status != HAL_OK)
 80035a4:	7bfb      	ldrb	r3, [r7, #15]
 80035a6:	2b00      	cmp	r3, #0
 80035a8:	d045      	beq.n	8003636 <HAL_RCC_OscConfig+0x36a>
        {
          return status;
 80035aa:	7bfb      	ldrb	r3, [r7, #15]
 80035ac:	e1b5      	b.n	800391a <HAL_RCC_OscConfig+0x64e>
    {
      /* Check MSI State */
      assert_param(IS_RCC_MSI(RCC_OscInitStruct->MSIState));

      /* Check the MSI State */
      if(RCC_OscInitStruct->MSIState != RCC_MSI_OFF)
 80035ae:	687b      	ldr	r3, [r7, #4]
 80035b0:	699b      	ldr	r3, [r3, #24]
 80035b2:	2b00      	cmp	r3, #0
 80035b4:	d029      	beq.n	800360a <HAL_RCC_OscConfig+0x33e>
      {
        /* Enable the Multi Speed oscillator (MSI). */
        __HAL_RCC_MSI_ENABLE();
 80035b6:	4b7e      	ldr	r3, [pc, #504]	; (80037b0 <HAL_RCC_OscConfig+0x4e4>)
 80035b8:	2201      	movs	r2, #1
 80035ba:	601a      	str	r2, [r3, #0]

        /* Get Start Tick */
        tickstart = HAL_GetTick();
 80035bc:	f7fe ff8c 	bl	80024d8 <HAL_GetTick>
 80035c0:	6138      	str	r0, [r7, #16]

        /* Wait till MSI is ready */
        while(__HAL_RCC_GET_FLAG(RCC_FLAG_MSIRDY) == 0U)
 80035c2:	e008      	b.n	80035d6 <HAL_RCC_OscConfig+0x30a>
        {
          if((HAL_GetTick() - tickstart) > MSI_TIMEOUT_VALUE)
 80035c4:	f7fe ff88 	bl	80024d8 <HAL_GetTick>
 80035c8:	4602      	mov	r2, r0
 80035ca:	693b      	ldr	r3, [r7, #16]
 80035cc:	1ad3      	subs	r3, r2, r3
 80035ce:	2b02      	cmp	r3, #2
 80035d0:	d901      	bls.n	80035d6 <HAL_RCC_OscConfig+0x30a>
          {
            return HAL_TIMEOUT;
 80035d2:	2303      	movs	r3, #3
 80035d4:	e1a1      	b.n	800391a <HAL_RCC_OscConfig+0x64e>
        while(__HAL_RCC_GET_FLAG(RCC_FLAG_MSIRDY) == 0U)
 80035d6:	4b72      	ldr	r3, [pc, #456]	; (80037a0 <HAL_RCC_OscConfig+0x4d4>)
 80035d8:	681b      	ldr	r3, [r3, #0]
 80035da:	f403 7300 	and.w	r3, r3, #512	; 0x200
 80035de:	2b00      	cmp	r3, #0
 80035e0:	d0f0      	beq.n	80035c4 <HAL_RCC_OscConfig+0x2f8>
        /* Check MSICalibrationValue and MSIClockRange input parameters */
        assert_param(IS_RCC_MSICALIBRATION_VALUE(RCC_OscInitStruct->MSICalibrationValue));
        assert_param(IS_RCC_MSI_CLOCK_RANGE(RCC_OscInitStruct->MSIClockRange));

        /* Selects the Multiple Speed oscillator (MSI) clock range .*/
        __HAL_RCC_MSI_RANGE_CONFIG(RCC_OscInitStruct->MSIClockRange);
 80035e2:	4b6f      	ldr	r3, [pc, #444]	; (80037a0 <HAL_RCC_OscConfig+0x4d4>)
 80035e4:	685b      	ldr	r3, [r3, #4]
 80035e6:	f423 4260 	bic.w	r2, r3, #57344	; 0xe000
 80035ea:	687b      	ldr	r3, [r7, #4]
 80035ec:	6a1b      	ldr	r3, [r3, #32]
 80035ee:	496c      	ldr	r1, [pc, #432]	; (80037a0 <HAL_RCC_OscConfig+0x4d4>)
 80035f0:	4313      	orrs	r3, r2
 80035f2:	604b      	str	r3, [r1, #4]
         /* Adjusts the Multiple Speed oscillator (MSI) calibration value.*/
        __HAL_RCC_MSI_CALIBRATIONVALUE_ADJUST(RCC_OscInitStruct->MSICalibrationValue);
 80035f4:	4b6a      	ldr	r3, [pc, #424]	; (80037a0 <HAL_RCC_OscConfig+0x4d4>)
 80035f6:	685b      	ldr	r3, [r3, #4]
 80035f8:	f023 427f 	bic.w	r2, r3, #4278190080	; 0xff000000
 80035fc:	687b      	ldr	r3, [r7, #4]
 80035fe:	69db      	ldr	r3, [r3, #28]
 8003600:	061b      	lsls	r3, r3, #24
 8003602:	4967      	ldr	r1, [pc, #412]	; (80037a0 <HAL_RCC_OscConfig+0x4d4>)
 8003604:	4313      	orrs	r3, r2
 8003606:	604b      	str	r3, [r1, #4]
 8003608:	e015      	b.n	8003636 <HAL_RCC_OscConfig+0x36a>

      }
      else
      {
        /* Disable the Multi Speed oscillator (MSI). */
        __HAL_RCC_MSI_DISABLE();
 800360a:	4b69      	ldr	r3, [pc, #420]	; (80037b0 <HAL_RCC_OscConfig+0x4e4>)
 800360c:	2200      	movs	r2, #0
 800360e:	601a      	str	r2, [r3, #0]

        /* Get Start Tick */
        tickstart = HAL_GetTick();
 8003610:	f7fe ff62 	bl	80024d8 <HAL_GetTick>
 8003614:	6138      	str	r0, [r7, #16]

        /* Wait till MSI is ready */
        while(__HAL_RCC_GET_FLAG(RCC_FLAG_MSIRDY) != 0U)
 8003616:	e008      	b.n	800362a <HAL_RCC_OscConfig+0x35e>
        {
          if((HAL_GetTick() - tickstart) > MSI_TIMEOUT_VALUE)
 8003618:	f7fe ff5e 	bl	80024d8 <HAL_GetTick>
 800361c:	4602      	mov	r2, r0
 800361e:	693b      	ldr	r3, [r7, #16]
 8003620:	1ad3      	subs	r3, r2, r3
 8003622:	2b02      	cmp	r3, #2
 8003624:	d901      	bls.n	800362a <HAL_RCC_OscConfig+0x35e>
          {
            return HAL_TIMEOUT;
 8003626:	2303      	movs	r3, #3
 8003628:	e177      	b.n	800391a <HAL_RCC_OscConfig+0x64e>
        while(__HAL_RCC_GET_FLAG(RCC_FLAG_MSIRDY) != 0U)
 800362a:	4b5d      	ldr	r3, [pc, #372]	; (80037a0 <HAL_RCC_OscConfig+0x4d4>)
 800362c:	681b      	ldr	r3, [r3, #0]
 800362e:	f403 7300 	and.w	r3, r3, #512	; 0x200
 8003632:	2b00      	cmp	r3, #0
 8003634:	d1f0      	bne.n	8003618 <HAL_RCC_OscConfig+0x34c>
        }
      }
    }
  }
  /*------------------------------ LSI Configuration -------------------------*/
  if(((RCC_OscInitStruct->OscillatorType) & RCC_OSCILLATORTYPE_LSI) == RCC_OSCILLATORTYPE_LSI)
 8003636:	687b      	ldr	r3, [r7, #4]
 8003638:	681b      	ldr	r3, [r3, #0]
 800363a:	f003 0308 	and.w	r3, r3, #8
 800363e:	2b00      	cmp	r3, #0
 8003640:	d030      	beq.n	80036a4 <HAL_RCC_OscConfig+0x3d8>
  {
    /* Check the parameters */
    assert_param(IS_RCC_LSI(RCC_OscInitStruct->LSIState));

    /* Check the LSI State */
    if(RCC_OscInitStruct->LSIState != RCC_LSI_OFF)
 8003642:	687b      	ldr	r3, [r7, #4]
 8003644:	695b      	ldr	r3, [r3, #20]
 8003646:	2b00      	cmp	r3, #0
 8003648:	d016      	beq.n	8003678 <HAL_RCC_OscConfig+0x3ac>
    {
      /* Enable the Internal Low Speed oscillator (LSI). */
      __HAL_RCC_LSI_ENABLE();
 800364a:	4b5a      	ldr	r3, [pc, #360]	; (80037b4 <HAL_RCC_OscConfig+0x4e8>)
 800364c:	2201      	movs	r2, #1
 800364e:	601a      	str	r2, [r3, #0]

      /* Get Start Tick */
      tickstart = HAL_GetTick();
 8003650:	f7fe ff42 	bl	80024d8 <HAL_GetTick>
 8003654:	6138      	str	r0, [r7, #16]

      /* Wait till LSI is ready */
      while(__HAL_RCC_GET_FLAG(RCC_FLAG_LSIRDY) == 0U)
 8003656:	e008      	b.n	800366a <HAL_RCC_OscConfig+0x39e>
      {
        if((HAL_GetTick() - tickstart ) > LSI_TIMEOUT_VALUE)
 8003658:	f7fe ff3e 	bl	80024d8 <HAL_GetTick>
 800365c:	4602      	mov	r2, r0
 800365e:	693b      	ldr	r3, [r7, #16]
 8003660:	1ad3      	subs	r3, r2, r3
 8003662:	2b02      	cmp	r3, #2
 8003664:	d901      	bls.n	800366a <HAL_RCC_OscConfig+0x39e>
        {
          return HAL_TIMEOUT;
 8003666:	2303      	movs	r3, #3
 8003668:	e157      	b.n	800391a <HAL_RCC_OscConfig+0x64e>
      while(__HAL_RCC_GET_FLAG(RCC_FLAG_LSIRDY) == 0U)
 800366a:	4b4d      	ldr	r3, [pc, #308]	; (80037a0 <HAL_RCC_OscConfig+0x4d4>)
 800366c:	6b5b      	ldr	r3, [r3, #52]	; 0x34
 800366e:	f003 0302 	and.w	r3, r3, #2
 8003672:	2b00      	cmp	r3, #0
 8003674:	d0f0      	beq.n	8003658 <HAL_RCC_OscConfig+0x38c>
 8003676:	e015      	b.n	80036a4 <HAL_RCC_OscConfig+0x3d8>
      }
    }
    else
    {
      /* Disable the Internal Low Speed oscillator (LSI). */
      __HAL_RCC_LSI_DISABLE();
 8003678:	4b4e      	ldr	r3, [pc, #312]	; (80037b4 <HAL_RCC_OscConfig+0x4e8>)
 800367a:	2200      	movs	r2, #0
 800367c:	601a      	str	r2, [r3, #0]

      /* Get Start Tick */
      tickstart = HAL_GetTick();
 800367e:	f7fe ff2b 	bl	80024d8 <HAL_GetTick>
 8003682:	6138      	str	r0, [r7, #16]

      /* Wait till LSI is disabled */
      while(__HAL_RCC_GET_FLAG(RCC_FLAG_LSIRDY) != 0U)
 8003684:	e008      	b.n	8003698 <HAL_RCC_OscConfig+0x3cc>
      {
        if((HAL_GetTick() - tickstart ) > LSI_TIMEOUT_VALUE)
 8003686:	f7fe ff27 	bl	80024d8 <HAL_GetTick>
 800368a:	4602      	mov	r2, r0
 800368c:	693b      	ldr	r3, [r7, #16]
 800368e:	1ad3      	subs	r3, r2, r3
 8003690:	2b02      	cmp	r3, #2
 8003692:	d901      	bls.n	8003698 <HAL_RCC_OscConfig+0x3cc>
        {
          return HAL_TIMEOUT;
 8003694:	2303      	movs	r3, #3
 8003696:	e140      	b.n	800391a <HAL_RCC_OscConfig+0x64e>
      while(__HAL_RCC_GET_FLAG(RCC_FLAG_LSIRDY) != 0U)
 8003698:	4b41      	ldr	r3, [pc, #260]	; (80037a0 <HAL_RCC_OscConfig+0x4d4>)
 800369a:	6b5b      	ldr	r3, [r3, #52]	; 0x34
 800369c:	f003 0302 	and.w	r3, r3, #2
 80036a0:	2b00      	cmp	r3, #0
 80036a2:	d1f0      	bne.n	8003686 <HAL_RCC_OscConfig+0x3ba>
        }
      }
    }
  }
  /*------------------------------ LSE Configuration -------------------------*/
  if(((RCC_OscInitStruct->OscillatorType) & RCC_OSCILLATORTYPE_LSE) == RCC_OSCILLATORTYPE_LSE)
 80036a4:	687b      	ldr	r3, [r7, #4]
 80036a6:	681b      	ldr	r3, [r3, #0]
 80036a8:	f003 0304 	and.w	r3, r3, #4
 80036ac:	2b00      	cmp	r3, #0
 80036ae:	f000 80b5 	beq.w	800381c <HAL_RCC_OscConfig+0x550>
  {
    FlagStatus       pwrclkchanged = RESET;
 80036b2:	2300      	movs	r3, #0
 80036b4:	77fb      	strb	r3, [r7, #31]
    /* Check the parameters */
    assert_param(IS_RCC_LSE(RCC_OscInitStruct->LSEState));

    /* Update LSE configuration in Backup Domain control register    */
    /* Requires to enable write access to Backup Domain of necessary */
    if(__HAL_RCC_PWR_IS_CLK_DISABLED())
 80036b6:	4b3a      	ldr	r3, [pc, #232]	; (80037a0 <HAL_RCC_OscConfig+0x4d4>)
 80036b8:	6a5b      	ldr	r3, [r3, #36]	; 0x24
 80036ba:	f003 5380 	and.w	r3, r3, #268435456	; 0x10000000
 80036be:	2b00      	cmp	r3, #0
 80036c0:	d10d      	bne.n	80036de <HAL_RCC_OscConfig+0x412>
    {
      __HAL_RCC_PWR_CLK_ENABLE();
 80036c2:	4b37      	ldr	r3, [pc, #220]	; (80037a0 <HAL_RCC_OscConfig+0x4d4>)
 80036c4:	6a5b      	ldr	r3, [r3, #36]	; 0x24
 80036c6:	4a36      	ldr	r2, [pc, #216]	; (80037a0 <HAL_RCC_OscConfig+0x4d4>)
 80036c8:	f043 5380 	orr.w	r3, r3, #268435456	; 0x10000000
 80036cc:	6253      	str	r3, [r2, #36]	; 0x24
 80036ce:	4b34      	ldr	r3, [pc, #208]	; (80037a0 <HAL_RCC_OscConfig+0x4d4>)
 80036d0:	6a5b      	ldr	r3, [r3, #36]	; 0x24
 80036d2:	f003 5380 	and.w	r3, r3, #268435456	; 0x10000000
 80036d6:	60bb      	str	r3, [r7, #8]
 80036d8:	68bb      	ldr	r3, [r7, #8]
      pwrclkchanged = SET;
 80036da:	2301      	movs	r3, #1
 80036dc:	77fb      	strb	r3, [r7, #31]
    }

    if(HAL_IS_BIT_CLR(PWR->CR, PWR_CR_DBP))
 80036de:	4b36      	ldr	r3, [pc, #216]	; (80037b8 <HAL_RCC_OscConfig+0x4ec>)
 80036e0:	681b      	ldr	r3, [r3, #0]
 80036e2:	f403 7380 	and.w	r3, r3, #256	; 0x100
 80036e6:	2b00      	cmp	r3, #0
 80036e8:	d118      	bne.n	800371c <HAL_RCC_OscConfig+0x450>
    {
      /* Enable write access to Backup domain */
      SET_BIT(PWR->CR, PWR_CR_DBP);
 80036ea:	4b33      	ldr	r3, [pc, #204]	; (80037b8 <HAL_RCC_OscConfig+0x4ec>)
 80036ec:	681b      	ldr	r3, [r3, #0]
 80036ee:	4a32      	ldr	r2, [pc, #200]	; (80037b8 <HAL_RCC_OscConfig+0x4ec>)
 80036f0:	f443 7380 	orr.w	r3, r3, #256	; 0x100
 80036f4:	6013      	str	r3, [r2, #0]

      /* Wait for Backup domain Write protection disable */
      tickstart = HAL_GetTick();
 80036f6:	f7fe feef 	bl	80024d8 <HAL_GetTick>
 80036fa:	6138      	str	r0, [r7, #16]

      while(HAL_IS_BIT_CLR(PWR->CR, PWR_CR_DBP))
 80036fc:	e008      	b.n	8003710 <HAL_RCC_OscConfig+0x444>
      {
        if((HAL_GetTick() - tickstart) > RCC_DBP_TIMEOUT_VALUE)
 80036fe:	f7fe feeb 	bl	80024d8 <HAL_GetTick>
 8003702:	4602      	mov	r2, r0
 8003704:	693b      	ldr	r3, [r7, #16]
 8003706:	1ad3      	subs	r3, r2, r3
 8003708:	2b64      	cmp	r3, #100	; 0x64
 800370a:	d901      	bls.n	8003710 <HAL_RCC_OscConfig+0x444>
        {
          return HAL_TIMEOUT;
 800370c:	2303      	movs	r3, #3
 800370e:	e104      	b.n	800391a <HAL_RCC_OscConfig+0x64e>
      while(HAL_IS_BIT_CLR(PWR->CR, PWR_CR_DBP))
 8003710:	4b29      	ldr	r3, [pc, #164]	; (80037b8 <HAL_RCC_OscConfig+0x4ec>)
 8003712:	681b      	ldr	r3, [r3, #0]
 8003714:	f403 7380 	and.w	r3, r3, #256	; 0x100
 8003718:	2b00      	cmp	r3, #0
 800371a:	d0f0      	beq.n	80036fe <HAL_RCC_OscConfig+0x432>
        }
      }
    }

    /* Set the new LSE configuration -----------------------------------------*/
    __HAL_RCC_LSE_CONFIG(RCC_OscInitStruct->LSEState);
 800371c:	687b      	ldr	r3, [r7, #4]
 800371e:	689b      	ldr	r3, [r3, #8]
 8003720:	2b01      	cmp	r3, #1
 8003722:	d106      	bne.n	8003732 <HAL_RCC_OscConfig+0x466>
 8003724:	4b1e      	ldr	r3, [pc, #120]	; (80037a0 <HAL_RCC_OscConfig+0x4d4>)
 8003726:	6b5b      	ldr	r3, [r3, #52]	; 0x34
 8003728:	4a1d      	ldr	r2, [pc, #116]	; (80037a0 <HAL_RCC_OscConfig+0x4d4>)
 800372a:	f443 7380 	orr.w	r3, r3, #256	; 0x100
 800372e:	6353      	str	r3, [r2, #52]	; 0x34
 8003730:	e02d      	b.n	800378e <HAL_RCC_OscConfig+0x4c2>
 8003732:	687b      	ldr	r3, [r7, #4]
 8003734:	689b      	ldr	r3, [r3, #8]
 8003736:	2b00      	cmp	r3, #0
 8003738:	d10c      	bne.n	8003754 <HAL_RCC_OscConfig+0x488>
 800373a:	4b19      	ldr	r3, [pc, #100]	; (80037a0 <HAL_RCC_OscConfig+0x4d4>)
 800373c:	6b5b      	ldr	r3, [r3, #52]	; 0x34
 800373e:	4a18      	ldr	r2, [pc, #96]	; (80037a0 <HAL_RCC_OscConfig+0x4d4>)
 8003740:	f423 7380 	bic.w	r3, r3, #256	; 0x100
 8003744:	6353      	str	r3, [r2, #52]	; 0x34
 8003746:	4b16      	ldr	r3, [pc, #88]	; (80037a0 <HAL_RCC_OscConfig+0x4d4>)
 8003748:	6b5b      	ldr	r3, [r3, #52]	; 0x34
 800374a:	4a15      	ldr	r2, [pc, #84]	; (80037a0 <HAL_RCC_OscConfig+0x4d4>)
 800374c:	f423 6380 	bic.w	r3, r3, #1024	; 0x400
 8003750:	6353      	str	r3, [r2, #52]	; 0x34
 8003752:	e01c      	b.n	800378e <HAL_RCC_OscConfig+0x4c2>
 8003754:	687b      	ldr	r3, [r7, #4]
 8003756:	689b      	ldr	r3, [r3, #8]
 8003758:	2b05      	cmp	r3, #5
 800375a:	d10c      	bne.n	8003776 <HAL_RCC_OscConfig+0x4aa>
 800375c:	4b10      	ldr	r3, [pc, #64]	; (80037a0 <HAL_RCC_OscConfig+0x4d4>)
 800375e:	6b5b      	ldr	r3, [r3, #52]	; 0x34
 8003760:	4a0f      	ldr	r2, [pc, #60]	; (80037a0 <HAL_RCC_OscConfig+0x4d4>)
 8003762:	f443 6380 	orr.w	r3, r3, #1024	; 0x400
 8003766:	6353      	str	r3, [r2, #52]	; 0x34
 8003768:	4b0d      	ldr	r3, [pc, #52]	; (80037a0 <HAL_RCC_OscConfig+0x4d4>)
 800376a:	6b5b      	ldr	r3, [r3, #52]	; 0x34
 800376c:	4a0c      	ldr	r2, [pc, #48]	; (80037a0 <HAL_RCC_OscConfig+0x4d4>)
 800376e:	f443 7380 	orr.w	r3, r3, #256	; 0x100
 8003772:	6353      	str	r3, [r2, #52]	; 0x34
 8003774:	e00b      	b.n	800378e <HAL_RCC_OscConfig+0x4c2>
 8003776:	4b0a      	ldr	r3, [pc, #40]	; (80037a0 <HAL_RCC_OscConfig+0x4d4>)
 8003778:	6b5b      	ldr	r3, [r3, #52]	; 0x34
 800377a:	4a09      	ldr	r2, [pc, #36]	; (80037a0 <HAL_RCC_OscConfig+0x4d4>)
 800377c:	f423 7380 	bic.w	r3, r3, #256	; 0x100
 8003780:	6353      	str	r3, [r2, #52]	; 0x34
 8003782:	4b07      	ldr	r3, [pc, #28]	; (80037a0 <HAL_RCC_OscConfig+0x4d4>)
 8003784:	6b5b      	ldr	r3, [r3, #52]	; 0x34
 8003786:	4a06      	ldr	r2, [pc, #24]	; (80037a0 <HAL_RCC_OscConfig+0x4d4>)
 8003788:	f423 6380 	bic.w	r3, r3, #1024	; 0x400
 800378c:	6353      	str	r3, [r2, #52]	; 0x34
    /* Check the LSE State */
    if(RCC_OscInitStruct->LSEState != RCC_LSE_OFF)
 800378e:	687b      	ldr	r3, [r7, #4]
 8003790:	689b      	ldr	r3, [r3, #8]
 8003792:	2b00      	cmp	r3, #0
 8003794:	d024      	beq.n	80037e0 <HAL_RCC_OscConfig+0x514>
    {
      /* Get Start Tick */
      tickstart = HAL_GetTick();
 8003796:	f7fe fe9f 	bl	80024d8 <HAL_GetTick>
 800379a:	6138      	str	r0, [r7, #16]

      /* Wait till LSE is ready */
      while(__HAL_RCC_GET_FLAG(RCC_FLAG_LSERDY) == 0U)
 800379c:	e019      	b.n	80037d2 <HAL_RCC_OscConfig+0x506>
 800379e:	bf00      	nop
 80037a0:	40023800 	.word	0x40023800
 80037a4:	0800569c 	.word	0x0800569c
 80037a8:	20000008 	.word	0x20000008
 80037ac:	2000000c 	.word	0x2000000c
 80037b0:	42470020 	.word	0x42470020
 80037b4:	42470680 	.word	0x42470680
 80037b8:	40007000 	.word	0x40007000
      {
        if((HAL_GetTick() - tickstart ) > RCC_LSE_TIMEOUT_VALUE)
 80037bc:	f7fe fe8c 	bl	80024d8 <HAL_GetTick>
 80037c0:	4602      	mov	r2, r0
 80037c2:	693b      	ldr	r3, [r7, #16]
 80037c4:	1ad3      	subs	r3, r2, r3
 80037c6:	f241 3288 	movw	r2, #5000	; 0x1388
 80037ca:	4293      	cmp	r3, r2
 80037cc:	d901      	bls.n	80037d2 <HAL_RCC_OscConfig+0x506>
        {
          return HAL_TIMEOUT;
 80037ce:	2303      	movs	r3, #3
 80037d0:	e0a3      	b.n	800391a <HAL_RCC_OscConfig+0x64e>
      while(__HAL_RCC_GET_FLAG(RCC_FLAG_LSERDY) == 0U)
 80037d2:	4b54      	ldr	r3, [pc, #336]	; (8003924 <HAL_RCC_OscConfig+0x658>)
 80037d4:	6b5b      	ldr	r3, [r3, #52]	; 0x34
 80037d6:	f403 7300 	and.w	r3, r3, #512	; 0x200
 80037da:	2b00      	cmp	r3, #0
 80037dc:	d0ee      	beq.n	80037bc <HAL_RCC_OscConfig+0x4f0>
 80037de:	e014      	b.n	800380a <HAL_RCC_OscConfig+0x53e>
      }
    }
    else
    {
      /* Get Start Tick */
      tickstart = HAL_GetTick();
 80037e0:	f7fe fe7a 	bl	80024d8 <HAL_GetTick>
 80037e4:	6138      	str	r0, [r7, #16]

      /* Wait till LSE is disabled */
      while(__HAL_RCC_GET_FLAG(RCC_FLAG_LSERDY) != 0U)
 80037e6:	e00a      	b.n	80037fe <HAL_RCC_OscConfig+0x532>
      {
        if((HAL_GetTick() - tickstart ) > RCC_LSE_TIMEOUT_VALUE)
 80037e8:	f7fe fe76 	bl	80024d8 <HAL_GetTick>
 80037ec:	4602      	mov	r2, r0
 80037ee:	693b      	ldr	r3, [r7, #16]
 80037f0:	1ad3      	subs	r3, r2, r3
 80037f2:	f241 3288 	movw	r2, #5000	; 0x1388
 80037f6:	4293      	cmp	r3, r2
 80037f8:	d901      	bls.n	80037fe <HAL_RCC_OscConfig+0x532>
        {
          return HAL_TIMEOUT;
 80037fa:	2303      	movs	r3, #3
 80037fc:	e08d      	b.n	800391a <HAL_RCC_OscConfig+0x64e>
      while(__HAL_RCC_GET_FLAG(RCC_FLAG_LSERDY) != 0U)
 80037fe:	4b49      	ldr	r3, [pc, #292]	; (8003924 <HAL_RCC_OscConfig+0x658>)
 8003800:	6b5b      	ldr	r3, [r3, #52]	; 0x34
 8003802:	f403 7300 	and.w	r3, r3, #512	; 0x200
 8003806:	2b00      	cmp	r3, #0
 8003808:	d1ee      	bne.n	80037e8 <HAL_RCC_OscConfig+0x51c>
        }
      }
    }

    /* Require to disable power clock if necessary */
    if(pwrclkchanged == SET)
 800380a:	7ffb      	ldrb	r3, [r7, #31]
 800380c:	2b01      	cmp	r3, #1
 800380e:	d105      	bne.n	800381c <HAL_RCC_OscConfig+0x550>
    {
      __HAL_RCC_PWR_CLK_DISABLE();
 8003810:	4b44      	ldr	r3, [pc, #272]	; (8003924 <HAL_RCC_OscConfig+0x658>)
 8003812:	6a5b      	ldr	r3, [r3, #36]	; 0x24
 8003814:	4a43      	ldr	r2, [pc, #268]	; (8003924 <HAL_RCC_OscConfig+0x658>)
 8003816:	f023 5380 	bic.w	r3, r3, #268435456	; 0x10000000
 800381a:	6253      	str	r3, [r2, #36]	; 0x24
  }

  /*-------------------------------- PLL Configuration -----------------------*/
  /* Check the parameters */
  assert_param(IS_RCC_PLL(RCC_OscInitStruct->PLL.PLLState));
  if ((RCC_OscInitStruct->PLL.PLLState) != RCC_PLL_NONE)
 800381c:	687b      	ldr	r3, [r7, #4]
 800381e:	6a5b      	ldr	r3, [r3, #36]	; 0x24
 8003820:	2b00      	cmp	r3, #0
 8003822:	d079      	beq.n	8003918 <HAL_RCC_OscConfig+0x64c>
  {
    /* Check if the PLL is used as system clock or not */
    if(sysclk_source != RCC_SYSCLKSOURCE_STATUS_PLLCLK)
 8003824:	69bb      	ldr	r3, [r7, #24]
 8003826:	2b0c      	cmp	r3, #12
 8003828:	d056      	beq.n	80038d8 <HAL_RCC_OscConfig+0x60c>
    {
      if((RCC_OscInitStruct->PLL.PLLState) == RCC_PLL_ON)
 800382a:	687b      	ldr	r3, [r7, #4]
 800382c:	6a5b      	ldr	r3, [r3, #36]	; 0x24
 800382e:	2b02      	cmp	r3, #2
 8003830:	d13b      	bne.n	80038aa <HAL_RCC_OscConfig+0x5de>
        assert_param(IS_RCC_PLLSOURCE(RCC_OscInitStruct->PLL.PLLSource));
        assert_param(IS_RCC_PLL_MUL(RCC_OscInitStruct->PLL.PLLMUL));
        assert_param(IS_RCC_PLL_DIV(RCC_OscInitStruct->PLL.PLLDIV));

        /* Disable the main PLL. */
        __HAL_RCC_PLL_DISABLE();
 8003832:	4b3d      	ldr	r3, [pc, #244]	; (8003928 <HAL_RCC_OscConfig+0x65c>)
 8003834:	2200      	movs	r2, #0
 8003836:	601a      	str	r2, [r3, #0]

        /* Get Start Tick */
        tickstart = HAL_GetTick();
 8003838:	f7fe fe4e 	bl	80024d8 <HAL_GetTick>
 800383c:	6138      	str	r0, [r7, #16]

        /* Wait till PLL is disabled */
        while(__HAL_RCC_GET_FLAG(RCC_FLAG_PLLRDY) != 0U)
 800383e:	e008      	b.n	8003852 <HAL_RCC_OscConfig+0x586>
        {
          if((HAL_GetTick() - tickstart ) > PLL_TIMEOUT_VALUE)
 8003840:	f7fe fe4a 	bl	80024d8 <HAL_GetTick>
 8003844:	4602      	mov	r2, r0
 8003846:	693b      	ldr	r3, [r7, #16]
 8003848:	1ad3      	subs	r3, r2, r3
 800384a:	2b02      	cmp	r3, #2
 800384c:	d901      	bls.n	8003852 <HAL_RCC_OscConfig+0x586>
          {
            return HAL_TIMEOUT;
 800384e:	2303      	movs	r3, #3
 8003850:	e063      	b.n	800391a <HAL_RCC_OscConfig+0x64e>
        while(__HAL_RCC_GET_FLAG(RCC_FLAG_PLLRDY) != 0U)
 8003852:	4b34      	ldr	r3, [pc, #208]	; (8003924 <HAL_RCC_OscConfig+0x658>)
 8003854:	681b      	ldr	r3, [r3, #0]
 8003856:	f003 7300 	and.w	r3, r3, #33554432	; 0x2000000
 800385a:	2b00      	cmp	r3, #0
 800385c:	d1f0      	bne.n	8003840 <HAL_RCC_OscConfig+0x574>
          }
        }

        /* Configure the main PLL clock source, multiplication and division factors. */
        __HAL_RCC_PLL_CONFIG(RCC_OscInitStruct->PLL.PLLSource,
 800385e:	4b31      	ldr	r3, [pc, #196]	; (8003924 <HAL_RCC_OscConfig+0x658>)
 8003860:	689b      	ldr	r3, [r3, #8]
 8003862:	f423 027d 	bic.w	r2, r3, #16580608	; 0xfd0000
 8003866:	687b      	ldr	r3, [r7, #4]
 8003868:	6a99      	ldr	r1, [r3, #40]	; 0x28
 800386a:	687b      	ldr	r3, [r7, #4]
 800386c:	6adb      	ldr	r3, [r3, #44]	; 0x2c
 800386e:	4319      	orrs	r1, r3
 8003870:	687b      	ldr	r3, [r7, #4]
 8003872:	6b1b      	ldr	r3, [r3, #48]	; 0x30
 8003874:	430b      	orrs	r3, r1
 8003876:	492b      	ldr	r1, [pc, #172]	; (8003924 <HAL_RCC_OscConfig+0x658>)
 8003878:	4313      	orrs	r3, r2
 800387a:	608b      	str	r3, [r1, #8]
                             RCC_OscInitStruct->PLL.PLLMUL,
                             RCC_OscInitStruct->PLL.PLLDIV);
        /* Enable the main PLL. */
        __HAL_RCC_PLL_ENABLE();
 800387c:	4b2a      	ldr	r3, [pc, #168]	; (8003928 <HAL_RCC_OscConfig+0x65c>)
 800387e:	2201      	movs	r2, #1
 8003880:	601a      	str	r2, [r3, #0]

        /* Get Start Tick */
        tickstart = HAL_GetTick();
 8003882:	f7fe fe29 	bl	80024d8 <HAL_GetTick>
 8003886:	6138      	str	r0, [r7, #16]

        /* Wait till PLL is ready */
        while(__HAL_RCC_GET_FLAG(RCC_FLAG_PLLRDY) == 0U)
 8003888:	e008      	b.n	800389c <HAL_RCC_OscConfig+0x5d0>
        {
          if((HAL_GetTick() - tickstart ) > PLL_TIMEOUT_VALUE)
 800388a:	f7fe fe25 	bl	80024d8 <HAL_GetTick>
 800388e:	4602      	mov	r2, r0
 8003890:	693b      	ldr	r3, [r7, #16]
 8003892:	1ad3      	subs	r3, r2, r3
 8003894:	2b02      	cmp	r3, #2
 8003896:	d901      	bls.n	800389c <HAL_RCC_OscConfig+0x5d0>
          {
            return HAL_TIMEOUT;
 8003898:	2303      	movs	r3, #3
 800389a:	e03e      	b.n	800391a <HAL_RCC_OscConfig+0x64e>
        while(__HAL_RCC_GET_FLAG(RCC_FLAG_PLLRDY) == 0U)
 800389c:	4b21      	ldr	r3, [pc, #132]	; (8003924 <HAL_RCC_OscConfig+0x658>)
 800389e:	681b      	ldr	r3, [r3, #0]
 80038a0:	f003 7300 	and.w	r3, r3, #33554432	; 0x2000000
 80038a4:	2b00      	cmp	r3, #0
 80038a6:	d0f0      	beq.n	800388a <HAL_RCC_OscConfig+0x5be>
 80038a8:	e036      	b.n	8003918 <HAL_RCC_OscConfig+0x64c>
        }
      }
      else
      {
        /* Disable the main PLL. */
        __HAL_RCC_PLL_DISABLE();
 80038aa:	4b1f      	ldr	r3, [pc, #124]	; (8003928 <HAL_RCC_OscConfig+0x65c>)
 80038ac:	2200      	movs	r2, #0
 80038ae:	601a      	str	r2, [r3, #0]

        /* Get Start Tick */
        tickstart = HAL_GetTick();
 80038b0:	f7fe fe12 	bl	80024d8 <HAL_GetTick>
 80038b4:	6138      	str	r0, [r7, #16]

        /* Wait till PLL is disabled */
        while(__HAL_RCC_GET_FLAG(RCC_FLAG_PLLRDY) != 0U)
 80038b6:	e008      	b.n	80038ca <HAL_RCC_OscConfig+0x5fe>
        {
          if((HAL_GetTick() - tickstart ) > PLL_TIMEOUT_VALUE)
 80038b8:	f7fe fe0e 	bl	80024d8 <HAL_GetTick>
 80038bc:	4602      	mov	r2, r0
 80038be:	693b      	ldr	r3, [r7, #16]
 80038c0:	1ad3      	subs	r3, r2, r3
 80038c2:	2b02      	cmp	r3, #2
 80038c4:	d901      	bls.n	80038ca <HAL_RCC_OscConfig+0x5fe>
          {
            return HAL_TIMEOUT;
 80038c6:	2303      	movs	r3, #3
 80038c8:	e027      	b.n	800391a <HAL_RCC_OscConfig+0x64e>
        while(__HAL_RCC_GET_FLAG(RCC_FLAG_PLLRDY) != 0U)
 80038ca:	4b16      	ldr	r3, [pc, #88]	; (8003924 <HAL_RCC_OscConfig+0x658>)
 80038cc:	681b      	ldr	r3, [r3, #0]
 80038ce:	f003 7300 	and.w	r3, r3, #33554432	; 0x2000000
 80038d2:	2b00      	cmp	r3, #0
 80038d4:	d1f0      	bne.n	80038b8 <HAL_RCC_OscConfig+0x5ec>
 80038d6:	e01f      	b.n	8003918 <HAL_RCC_OscConfig+0x64c>
      }
    }
    else
    {
      /* Check if there is a request to disable the PLL used as System clock source */
      if((RCC_OscInitStruct->PLL.PLLState) == RCC_PLL_OFF)
 80038d8:	687b      	ldr	r3, [r7, #4]
 80038da:	6a5b      	ldr	r3, [r3, #36]	; 0x24
 80038dc:	2b01      	cmp	r3, #1
 80038de:	d101      	bne.n	80038e4 <HAL_RCC_OscConfig+0x618>
      {
        return HAL_ERROR;
 80038e0:	2301      	movs	r3, #1
 80038e2:	e01a      	b.n	800391a <HAL_RCC_OscConfig+0x64e>
      }
      else
      {
        /* Do not return HAL_ERROR if request repeats the current configuration */
        pll_config = RCC->CFGR;
 80038e4:	4b0f      	ldr	r3, [pc, #60]	; (8003924 <HAL_RCC_OscConfig+0x658>)
 80038e6:	689b      	ldr	r3, [r3, #8]
 80038e8:	617b      	str	r3, [r7, #20]
        if((READ_BIT(pll_config, RCC_CFGR_PLLSRC) != RCC_OscInitStruct->PLL.PLLSource) ||
 80038ea:	697b      	ldr	r3, [r7, #20]
 80038ec:	f403 3280 	and.w	r2, r3, #65536	; 0x10000
 80038f0:	687b      	ldr	r3, [r7, #4]
 80038f2:	6a9b      	ldr	r3, [r3, #40]	; 0x28
 80038f4:	429a      	cmp	r2, r3
 80038f6:	d10d      	bne.n	8003914 <HAL_RCC_OscConfig+0x648>
           (READ_BIT(pll_config, RCC_CFGR_PLLMUL) != RCC_OscInitStruct->PLL.PLLMUL) ||
 80038f8:	697b      	ldr	r3, [r7, #20]
 80038fa:	f403 1270 	and.w	r2, r3, #3932160	; 0x3c0000
 80038fe:	687b      	ldr	r3, [r7, #4]
 8003900:	6adb      	ldr	r3, [r3, #44]	; 0x2c
        if((READ_BIT(pll_config, RCC_CFGR_PLLSRC) != RCC_OscInitStruct->PLL.PLLSource) ||
 8003902:	429a      	cmp	r2, r3
 8003904:	d106      	bne.n	8003914 <HAL_RCC_OscConfig+0x648>
           (READ_BIT(pll_config, RCC_CFGR_PLLDIV) != RCC_OscInitStruct->PLL.PLLDIV))
 8003906:	697b      	ldr	r3, [r7, #20]
 8003908:	f403 0240 	and.w	r2, r3, #12582912	; 0xc00000
 800390c:	687b      	ldr	r3, [r7, #4]
 800390e:	6b1b      	ldr	r3, [r3, #48]	; 0x30
           (READ_BIT(pll_config, RCC_CFGR_PLLMUL) != RCC_OscInitStruct->PLL.PLLMUL) ||
 8003910:	429a      	cmp	r2, r3
 8003912:	d001      	beq.n	8003918 <HAL_RCC_OscConfig+0x64c>
        {
          return HAL_ERROR;
 8003914:	2301      	movs	r3, #1
 8003916:	e000      	b.n	800391a <HAL_RCC_OscConfig+0x64e>
        }
      }
    }
  }

  return HAL_OK;
 8003918:	2300      	movs	r3, #0
}
 800391a:	4618      	mov	r0, r3
 800391c:	3720      	adds	r7, #32
 800391e:	46bd      	mov	sp, r7
 8003920:	bd80      	pop	{r7, pc}
 8003922:	bf00      	nop
 8003924:	40023800 	.word	0x40023800
 8003928:	42470060 	.word	0x42470060

0800392c <HAL_RCC_ClockConfig>:
  *         HPRE[3:0] bits to ensure that HCLK not exceed the maximum allowed frequency
  *         (for more details refer to section above "Initialization/de-initialization functions")
  * @retval HAL status
  */
HAL_StatusTypeDef HAL_RCC_ClockConfig(RCC_ClkInitTypeDef  *RCC_ClkInitStruct, uint32_t FLatency)
{
 800392c:	b580      	push	{r7, lr}
 800392e:	b084      	sub	sp, #16
 8003930:	af00      	add	r7, sp, #0
 8003932:	6078      	str	r0, [r7, #4]
 8003934:	6039      	str	r1, [r7, #0]
  uint32_t tickstart;
  HAL_StatusTypeDef status;

  /* Check the parameters */
  if(RCC_ClkInitStruct == NULL)
 8003936:	687b      	ldr	r3, [r7, #4]
 8003938:	2b00      	cmp	r3, #0
 800393a:	d101      	bne.n	8003940 <HAL_RCC_ClockConfig+0x14>
  {
    return HAL_ERROR;
 800393c:	2301      	movs	r3, #1
 800393e:	e11a      	b.n	8003b76 <HAL_RCC_ClockConfig+0x24a>
  /* To correctly read data from FLASH memory, the number of wait states (LATENCY)
  must be correctly programmed according to the frequency of the CPU clock
  (HCLK) and the supply voltage of the device. */

  /* Increasing the number of wait states because of higher CPU frequency */
  if(FLatency > __HAL_FLASH_GET_LATENCY())
 8003940:	4b8f      	ldr	r3, [pc, #572]	; (8003b80 <HAL_RCC_ClockConfig+0x254>)
 8003942:	681b      	ldr	r3, [r3, #0]
 8003944:	f003 0301 	and.w	r3, r3, #1
 8003948:	683a      	ldr	r2, [r7, #0]
 800394a:	429a      	cmp	r2, r3
 800394c:	d919      	bls.n	8003982 <HAL_RCC_ClockConfig+0x56>
  {
    /* Program the new number of wait states to the LATENCY bits in the FLASH_ACR register */
    __HAL_FLASH_SET_LATENCY(FLatency);
 800394e:	683b      	ldr	r3, [r7, #0]
 8003950:	2b01      	cmp	r3, #1
 8003952:	d105      	bne.n	8003960 <HAL_RCC_ClockConfig+0x34>
 8003954:	4b8a      	ldr	r3, [pc, #552]	; (8003b80 <HAL_RCC_ClockConfig+0x254>)
 8003956:	681b      	ldr	r3, [r3, #0]
 8003958:	4a89      	ldr	r2, [pc, #548]	; (8003b80 <HAL_RCC_ClockConfig+0x254>)
 800395a:	f043 0304 	orr.w	r3, r3, #4
 800395e:	6013      	str	r3, [r2, #0]
 8003960:	4b87      	ldr	r3, [pc, #540]	; (8003b80 <HAL_RCC_ClockConfig+0x254>)
 8003962:	681b      	ldr	r3, [r3, #0]
 8003964:	f023 0201 	bic.w	r2, r3, #1
 8003968:	4985      	ldr	r1, [pc, #532]	; (8003b80 <HAL_RCC_ClockConfig+0x254>)
 800396a:	683b      	ldr	r3, [r7, #0]
 800396c:	4313      	orrs	r3, r2
 800396e:	600b      	str	r3, [r1, #0]

    /* Check that the new number of wait states is taken into account to access the Flash
    memory by reading the FLASH_ACR register */
    if(__HAL_FLASH_GET_LATENCY() != FLatency)
 8003970:	4b83      	ldr	r3, [pc, #524]	; (8003b80 <HAL_RCC_ClockConfig+0x254>)
 8003972:	681b      	ldr	r3, [r3, #0]
 8003974:	f003 0301 	and.w	r3, r3, #1
 8003978:	683a      	ldr	r2, [r7, #0]
 800397a:	429a      	cmp	r2, r3
 800397c:	d001      	beq.n	8003982 <HAL_RCC_ClockConfig+0x56>
    {
      return HAL_ERROR;
 800397e:	2301      	movs	r3, #1
 8003980:	e0f9      	b.n	8003b76 <HAL_RCC_ClockConfig+0x24a>
    }
  }

  /*-------------------------- HCLK Configuration --------------------------*/
  if(((RCC_ClkInitStruct->ClockType) & RCC_CLOCKTYPE_HCLK) == RCC_CLOCKTYPE_HCLK)
 8003982:	687b      	ldr	r3, [r7, #4]
 8003984:	681b      	ldr	r3, [r3, #0]
 8003986:	f003 0302 	and.w	r3, r3, #2
 800398a:	2b00      	cmp	r3, #0
 800398c:	d008      	beq.n	80039a0 <HAL_RCC_ClockConfig+0x74>
  {
    assert_param(IS_RCC_HCLK(RCC_ClkInitStruct->AHBCLKDivider));
    MODIFY_REG(RCC->CFGR, RCC_CFGR_HPRE, RCC_ClkInitStruct->AHBCLKDivider);
 800398e:	4b7d      	ldr	r3, [pc, #500]	; (8003b84 <HAL_RCC_ClockConfig+0x258>)
 8003990:	689b      	ldr	r3, [r3, #8]
 8003992:	f023 02f0 	bic.w	r2, r3, #240	; 0xf0
 8003996:	687b      	ldr	r3, [r7, #4]
 8003998:	689b      	ldr	r3, [r3, #8]
 800399a:	497a      	ldr	r1, [pc, #488]	; (8003b84 <HAL_RCC_ClockConfig+0x258>)
 800399c:	4313      	orrs	r3, r2
 800399e:	608b      	str	r3, [r1, #8]
  }

  /*------------------------- SYSCLK Configuration ---------------------------*/
  if(((RCC_ClkInitStruct->ClockType) & RCC_CLOCKTYPE_SYSCLK) == RCC_CLOCKTYPE_SYSCLK)
 80039a0:	687b      	ldr	r3, [r7, #4]
 80039a2:	681b      	ldr	r3, [r3, #0]
 80039a4:	f003 0301 	and.w	r3, r3, #1
 80039a8:	2b00      	cmp	r3, #0
 80039aa:	f000 808e 	beq.w	8003aca <HAL_RCC_ClockConfig+0x19e>
  {
    assert_param(IS_RCC_SYSCLKSOURCE(RCC_ClkInitStruct->SYSCLKSource));

    /* HSE is selected as System Clock Source */
    if(RCC_ClkInitStruct->SYSCLKSource == RCC_SYSCLKSOURCE_HSE)
 80039ae:	687b      	ldr	r3, [r7, #4]
 80039b0:	685b      	ldr	r3, [r3, #4]
 80039b2:	2b02      	cmp	r3, #2
 80039b4:	d107      	bne.n	80039c6 <HAL_RCC_ClockConfig+0x9a>
    {
      /* Check the HSE ready flag */
      if(__HAL_RCC_GET_FLAG(RCC_FLAG_HSERDY) == 0U)
 80039b6:	4b73      	ldr	r3, [pc, #460]	; (8003b84 <HAL_RCC_ClockConfig+0x258>)
 80039b8:	681b      	ldr	r3, [r3, #0]
 80039ba:	f403 3300 	and.w	r3, r3, #131072	; 0x20000
 80039be:	2b00      	cmp	r3, #0
 80039c0:	d121      	bne.n	8003a06 <HAL_RCC_ClockConfig+0xda>
      {
        return HAL_ERROR;
 80039c2:	2301      	movs	r3, #1
 80039c4:	e0d7      	b.n	8003b76 <HAL_RCC_ClockConfig+0x24a>
      }
    }
    /* PLL is selected as System Clock Source */
    else if(RCC_ClkInitStruct->SYSCLKSource == RCC_SYSCLKSOURCE_PLLCLK)
 80039c6:	687b      	ldr	r3, [r7, #4]
 80039c8:	685b      	ldr	r3, [r3, #4]
 80039ca:	2b03      	cmp	r3, #3
 80039cc:	d107      	bne.n	80039de <HAL_RCC_ClockConfig+0xb2>
    {
      /* Check the PLL ready flag */
      if(__HAL_RCC_GET_FLAG(RCC_FLAG_PLLRDY) == 0U)
 80039ce:	4b6d      	ldr	r3, [pc, #436]	; (8003b84 <HAL_RCC_ClockConfig+0x258>)
 80039d0:	681b      	ldr	r3, [r3, #0]
 80039d2:	f003 7300 	and.w	r3, r3, #33554432	; 0x2000000
 80039d6:	2b00      	cmp	r3, #0
 80039d8:	d115      	bne.n	8003a06 <HAL_RCC_ClockConfig+0xda>
      {
        return HAL_ERROR;
 80039da:	2301      	movs	r3, #1
 80039dc:	e0cb      	b.n	8003b76 <HAL_RCC_ClockConfig+0x24a>
      }
    }
    /* HSI is selected as System Clock Source */
    else if(RCC_ClkInitStruct->SYSCLKSource == RCC_SYSCLKSOURCE_HSI)
 80039de:	687b      	ldr	r3, [r7, #4]
 80039e0:	685b      	ldr	r3, [r3, #4]
 80039e2:	2b01      	cmp	r3, #1
 80039e4:	d107      	bne.n	80039f6 <HAL_RCC_ClockConfig+0xca>
    {
      /* Check the HSI ready flag */
      if(__HAL_RCC_GET_FLAG(RCC_FLAG_HSIRDY) == 0U)
 80039e6:	4b67      	ldr	r3, [pc, #412]	; (8003b84 <HAL_RCC_ClockConfig+0x258>)
 80039e8:	681b      	ldr	r3, [r3, #0]
 80039ea:	f003 0302 	and.w	r3, r3, #2
 80039ee:	2b00      	cmp	r3, #0
 80039f0:	d109      	bne.n	8003a06 <HAL_RCC_ClockConfig+0xda>
      {
        return HAL_ERROR;
 80039f2:	2301      	movs	r3, #1
 80039f4:	e0bf      	b.n	8003b76 <HAL_RCC_ClockConfig+0x24a>
    }
    /* MSI is selected as System Clock Source */
    else
    {
      /* Check the MSI ready flag */
      if(__HAL_RCC_GET_FLAG(RCC_FLAG_MSIRDY) == 0U)
 80039f6:	4b63      	ldr	r3, [pc, #396]	; (8003b84 <HAL_RCC_ClockConfig+0x258>)
 80039f8:	681b      	ldr	r3, [r3, #0]
 80039fa:	f403 7300 	and.w	r3, r3, #512	; 0x200
 80039fe:	2b00      	cmp	r3, #0
 8003a00:	d101      	bne.n	8003a06 <HAL_RCC_ClockConfig+0xda>
      {
        return HAL_ERROR;
 8003a02:	2301      	movs	r3, #1
 8003a04:	e0b7      	b.n	8003b76 <HAL_RCC_ClockConfig+0x24a>
      }
    }
    __HAL_RCC_SYSCLK_CONFIG(RCC_ClkInitStruct->SYSCLKSource);
 8003a06:	4b5f      	ldr	r3, [pc, #380]	; (8003b84 <HAL_RCC_ClockConfig+0x258>)
 8003a08:	689b      	ldr	r3, [r3, #8]
 8003a0a:	f023 0203 	bic.w	r2, r3, #3
 8003a0e:	687b      	ldr	r3, [r7, #4]
 8003a10:	685b      	ldr	r3, [r3, #4]
 8003a12:	495c      	ldr	r1, [pc, #368]	; (8003b84 <HAL_RCC_ClockConfig+0x258>)
 8003a14:	4313      	orrs	r3, r2
 8003a16:	608b      	str	r3, [r1, #8]

    /* Get Start Tick */
    tickstart = HAL_GetTick();
 8003a18:	f7fe fd5e 	bl	80024d8 <HAL_GetTick>
 8003a1c:	60f8      	str	r0, [r7, #12]

    if(RCC_ClkInitStruct->SYSCLKSource == RCC_SYSCLKSOURCE_HSE)
 8003a1e:	687b      	ldr	r3, [r7, #4]
 8003a20:	685b      	ldr	r3, [r3, #4]
 8003a22:	2b02      	cmp	r3, #2
 8003a24:	d112      	bne.n	8003a4c <HAL_RCC_ClockConfig+0x120>
    {
      while (__HAL_RCC_GET_SYSCLK_SOURCE() != RCC_SYSCLKSOURCE_STATUS_HSE)
 8003a26:	e00a      	b.n	8003a3e <HAL_RCC_ClockConfig+0x112>
      {
        if((HAL_GetTick() - tickstart ) > CLOCKSWITCH_TIMEOUT_VALUE)
 8003a28:	f7fe fd56 	bl	80024d8 <HAL_GetTick>
 8003a2c:	4602      	mov	r2, r0
 8003a2e:	68fb      	ldr	r3, [r7, #12]
 8003a30:	1ad3      	subs	r3, r2, r3
 8003a32:	f241 3288 	movw	r2, #5000	; 0x1388
 8003a36:	4293      	cmp	r3, r2
 8003a38:	d901      	bls.n	8003a3e <HAL_RCC_ClockConfig+0x112>
        {
          return HAL_TIMEOUT;
 8003a3a:	2303      	movs	r3, #3
 8003a3c:	e09b      	b.n	8003b76 <HAL_RCC_ClockConfig+0x24a>
      while (__HAL_RCC_GET_SYSCLK_SOURCE() != RCC_SYSCLKSOURCE_STATUS_HSE)
 8003a3e:	4b51      	ldr	r3, [pc, #324]	; (8003b84 <HAL_RCC_ClockConfig+0x258>)
 8003a40:	689b      	ldr	r3, [r3, #8]
 8003a42:	f003 030c 	and.w	r3, r3, #12
 8003a46:	2b08      	cmp	r3, #8
 8003a48:	d1ee      	bne.n	8003a28 <HAL_RCC_ClockConfig+0xfc>
 8003a4a:	e03e      	b.n	8003aca <HAL_RCC_ClockConfig+0x19e>
        }
      }
    }
    else if(RCC_ClkInitStruct->SYSCLKSource == RCC_SYSCLKSOURCE_PLLCLK)
 8003a4c:	687b      	ldr	r3, [r7, #4]
 8003a4e:	685b      	ldr	r3, [r3, #4]
 8003a50:	2b03      	cmp	r3, #3
 8003a52:	d112      	bne.n	8003a7a <HAL_RCC_ClockConfig+0x14e>
    {
      while (__HAL_RCC_GET_SYSCLK_SOURCE() != RCC_SYSCLKSOURCE_STATUS_PLLCLK)
 8003a54:	e00a      	b.n	8003a6c <HAL_RCC_ClockConfig+0x140>
      {
        if((HAL_GetTick() - tickstart ) > CLOCKSWITCH_TIMEOUT_VALUE)
 8003a56:	f7fe fd3f 	bl	80024d8 <HAL_GetTick>
 8003a5a:	4602      	mov	r2, r0
 8003a5c:	68fb      	ldr	r3, [r7, #12]
 8003a5e:	1ad3      	subs	r3, r2, r3
 8003a60:	f241 3288 	movw	r2, #5000	; 0x1388
 8003a64:	4293      	cmp	r3, r2
 8003a66:	d901      	bls.n	8003a6c <HAL_RCC_ClockConfig+0x140>
        {
          return HAL_TIMEOUT;
 8003a68:	2303      	movs	r3, #3
 8003a6a:	e084      	b.n	8003b76 <HAL_RCC_ClockConfig+0x24a>
      while (__HAL_RCC_GET_SYSCLK_SOURCE() != RCC_SYSCLKSOURCE_STATUS_PLLCLK)
 8003a6c:	4b45      	ldr	r3, [pc, #276]	; (8003b84 <HAL_RCC_ClockConfig+0x258>)
 8003a6e:	689b      	ldr	r3, [r3, #8]
 8003a70:	f003 030c 	and.w	r3, r3, #12
 8003a74:	2b0c      	cmp	r3, #12
 8003a76:	d1ee      	bne.n	8003a56 <HAL_RCC_ClockConfig+0x12a>
 8003a78:	e027      	b.n	8003aca <HAL_RCC_ClockConfig+0x19e>
        }
      }
    }
    else if(RCC_ClkInitStruct->SYSCLKSource == RCC_SYSCLKSOURCE_HSI)
 8003a7a:	687b      	ldr	r3, [r7, #4]
 8003a7c:	685b      	ldr	r3, [r3, #4]
 8003a7e:	2b01      	cmp	r3, #1
 8003a80:	d11d      	bne.n	8003abe <HAL_RCC_ClockConfig+0x192>
    {
      while (__HAL_RCC_GET_SYSCLK_SOURCE() != RCC_SYSCLKSOURCE_STATUS_HSI)
 8003a82:	e00a      	b.n	8003a9a <HAL_RCC_ClockConfig+0x16e>
      {
        if((HAL_GetTick() - tickstart ) > CLOCKSWITCH_TIMEOUT_VALUE)
 8003a84:	f7fe fd28 	bl	80024d8 <HAL_GetTick>
 8003a88:	4602      	mov	r2, r0
 8003a8a:	68fb      	ldr	r3, [r7, #12]
 8003a8c:	1ad3      	subs	r3, r2, r3
 8003a8e:	f241 3288 	movw	r2, #5000	; 0x1388
 8003a92:	4293      	cmp	r3, r2
 8003a94:	d901      	bls.n	8003a9a <HAL_RCC_ClockConfig+0x16e>
        {
          return HAL_TIMEOUT;
 8003a96:	2303      	movs	r3, #3
 8003a98:	e06d      	b.n	8003b76 <HAL_RCC_ClockConfig+0x24a>
      while (__HAL_RCC_GET_SYSCLK_SOURCE() != RCC_SYSCLKSOURCE_STATUS_HSI)
 8003a9a:	4b3a      	ldr	r3, [pc, #232]	; (8003b84 <HAL_RCC_ClockConfig+0x258>)
 8003a9c:	689b      	ldr	r3, [r3, #8]
 8003a9e:	f003 030c 	and.w	r3, r3, #12
 8003aa2:	2b04      	cmp	r3, #4
 8003aa4:	d1ee      	bne.n	8003a84 <HAL_RCC_ClockConfig+0x158>
 8003aa6:	e010      	b.n	8003aca <HAL_RCC_ClockConfig+0x19e>
    }
    else
    {
      while(__HAL_RCC_GET_SYSCLK_SOURCE() != RCC_SYSCLKSOURCE_STATUS_MSI)
      {
        if((HAL_GetTick() - tickstart ) > CLOCKSWITCH_TIMEOUT_VALUE)
 8003aa8:	f7fe fd16 	bl	80024d8 <HAL_GetTick>
 8003aac:	4602      	mov	r2, r0
 8003aae:	68fb      	ldr	r3, [r7, #12]
 8003ab0:	1ad3      	subs	r3, r2, r3
 8003ab2:	f241 3288 	movw	r2, #5000	; 0x1388
 8003ab6:	4293      	cmp	r3, r2
 8003ab8:	d901      	bls.n	8003abe <HAL_RCC_ClockConfig+0x192>
        {
          return HAL_TIMEOUT;
 8003aba:	2303      	movs	r3, #3
 8003abc:	e05b      	b.n	8003b76 <HAL_RCC_ClockConfig+0x24a>
      while(__HAL_RCC_GET_SYSCLK_SOURCE() != RCC_SYSCLKSOURCE_STATUS_MSI)
 8003abe:	4b31      	ldr	r3, [pc, #196]	; (8003b84 <HAL_RCC_ClockConfig+0x258>)
 8003ac0:	689b      	ldr	r3, [r3, #8]
 8003ac2:	f003 030c 	and.w	r3, r3, #12
 8003ac6:	2b00      	cmp	r3, #0
 8003ac8:	d1ee      	bne.n	8003aa8 <HAL_RCC_ClockConfig+0x17c>
        }
      }
    }
  }
  /* Decreasing the number of wait states because of lower CPU frequency */
  if(FLatency < __HAL_FLASH_GET_LATENCY())
 8003aca:	4b2d      	ldr	r3, [pc, #180]	; (8003b80 <HAL_RCC_ClockConfig+0x254>)
 8003acc:	681b      	ldr	r3, [r3, #0]
 8003ace:	f003 0301 	and.w	r3, r3, #1
 8003ad2:	683a      	ldr	r2, [r7, #0]
 8003ad4:	429a      	cmp	r2, r3
 8003ad6:	d219      	bcs.n	8003b0c <HAL_RCC_ClockConfig+0x1e0>
  {
    /* Program the new number of wait states to the LATENCY bits in the FLASH_ACR register */
    __HAL_FLASH_SET_LATENCY(FLatency);
 8003ad8:	683b      	ldr	r3, [r7, #0]
 8003ada:	2b01      	cmp	r3, #1
 8003adc:	d105      	bne.n	8003aea <HAL_RCC_ClockConfig+0x1be>
 8003ade:	4b28      	ldr	r3, [pc, #160]	; (8003b80 <HAL_RCC_ClockConfig+0x254>)
 8003ae0:	681b      	ldr	r3, [r3, #0]
 8003ae2:	4a27      	ldr	r2, [pc, #156]	; (8003b80 <HAL_RCC_ClockConfig+0x254>)
 8003ae4:	f043 0304 	orr.w	r3, r3, #4
 8003ae8:	6013      	str	r3, [r2, #0]
 8003aea:	4b25      	ldr	r3, [pc, #148]	; (8003b80 <HAL_RCC_ClockConfig+0x254>)
 8003aec:	681b      	ldr	r3, [r3, #0]
 8003aee:	f023 0201 	bic.w	r2, r3, #1
 8003af2:	4923      	ldr	r1, [pc, #140]	; (8003b80 <HAL_RCC_ClockConfig+0x254>)
 8003af4:	683b      	ldr	r3, [r7, #0]
 8003af6:	4313      	orrs	r3, r2
 8003af8:	600b      	str	r3, [r1, #0]

    /* Check that the new number of wait states is taken into account to access the Flash
    memory by reading the FLASH_ACR register */
    if(__HAL_FLASH_GET_LATENCY() != FLatency)
 8003afa:	4b21      	ldr	r3, [pc, #132]	; (8003b80 <HAL_RCC_ClockConfig+0x254>)
 8003afc:	681b      	ldr	r3, [r3, #0]
 8003afe:	f003 0301 	and.w	r3, r3, #1
 8003b02:	683a      	ldr	r2, [r7, #0]
 8003b04:	429a      	cmp	r2, r3
 8003b06:	d001      	beq.n	8003b0c <HAL_RCC_ClockConfig+0x1e0>
    {
      return HAL_ERROR;
 8003b08:	2301      	movs	r3, #1
 8003b0a:	e034      	b.n	8003b76 <HAL_RCC_ClockConfig+0x24a>
    }
  }

  /*-------------------------- PCLK1 Configuration ---------------------------*/
  if(((RCC_ClkInitStruct->ClockType) & RCC_CLOCKTYPE_PCLK1) == RCC_CLOCKTYPE_PCLK1)
 8003b0c:	687b      	ldr	r3, [r7, #4]
 8003b0e:	681b      	ldr	r3, [r3, #0]
 8003b10:	f003 0304 	and.w	r3, r3, #4
 8003b14:	2b00      	cmp	r3, #0
 8003b16:	d008      	beq.n	8003b2a <HAL_RCC_ClockConfig+0x1fe>
  {
    assert_param(IS_RCC_PCLK(RCC_ClkInitStruct->APB1CLKDivider));
    MODIFY_REG(RCC->CFGR, RCC_CFGR_PPRE1, RCC_ClkInitStruct->APB1CLKDivider);
 8003b18:	4b1a      	ldr	r3, [pc, #104]	; (8003b84 <HAL_RCC_ClockConfig+0x258>)
 8003b1a:	689b      	ldr	r3, [r3, #8]
 8003b1c:	f423 62e0 	bic.w	r2, r3, #1792	; 0x700
 8003b20:	687b      	ldr	r3, [r7, #4]
 8003b22:	68db      	ldr	r3, [r3, #12]
 8003b24:	4917      	ldr	r1, [pc, #92]	; (8003b84 <HAL_RCC_ClockConfig+0x258>)
 8003b26:	4313      	orrs	r3, r2
 8003b28:	608b      	str	r3, [r1, #8]
  }

  /*-------------------------- PCLK2 Configuration ---------------------------*/
  if(((RCC_ClkInitStruct->ClockType) & RCC_CLOCKTYPE_PCLK2) == RCC_CLOCKTYPE_PCLK2)
 8003b2a:	687b      	ldr	r3, [r7, #4]
 8003b2c:	681b      	ldr	r3, [r3, #0]
 8003b2e:	f003 0308 	and.w	r3, r3, #8
 8003b32:	2b00      	cmp	r3, #0
 8003b34:	d009      	beq.n	8003b4a <HAL_RCC_ClockConfig+0x21e>
  {
    assert_param(IS_RCC_PCLK(RCC_ClkInitStruct->APB2CLKDivider));
    MODIFY_REG(RCC->CFGR, RCC_CFGR_PPRE2, ((RCC_ClkInitStruct->APB2CLKDivider) << 3U));
 8003b36:	4b13      	ldr	r3, [pc, #76]	; (8003b84 <HAL_RCC_ClockConfig+0x258>)
 8003b38:	689b      	ldr	r3, [r3, #8]
 8003b3a:	f423 5260 	bic.w	r2, r3, #14336	; 0x3800
 8003b3e:	687b      	ldr	r3, [r7, #4]
 8003b40:	691b      	ldr	r3, [r3, #16]
 8003b42:	00db      	lsls	r3, r3, #3
 8003b44:	490f      	ldr	r1, [pc, #60]	; (8003b84 <HAL_RCC_ClockConfig+0x258>)
 8003b46:	4313      	orrs	r3, r2
 8003b48:	608b      	str	r3, [r1, #8]
  }

  /* Update the SystemCoreClock global variable */
  SystemCoreClock = HAL_RCC_GetSysClockFreq() >> AHBPrescTable[(RCC->CFGR & RCC_CFGR_HPRE)>> RCC_CFGR_HPRE_Pos];
 8003b4a:	f000 f823 	bl	8003b94 <HAL_RCC_GetSysClockFreq>
 8003b4e:	4602      	mov	r2, r0
 8003b50:	4b0c      	ldr	r3, [pc, #48]	; (8003b84 <HAL_RCC_ClockConfig+0x258>)
 8003b52:	689b      	ldr	r3, [r3, #8]
 8003b54:	091b      	lsrs	r3, r3, #4
 8003b56:	f003 030f 	and.w	r3, r3, #15
 8003b5a:	490b      	ldr	r1, [pc, #44]	; (8003b88 <HAL_RCC_ClockConfig+0x25c>)
 8003b5c:	5ccb      	ldrb	r3, [r1, r3]
 8003b5e:	fa22 f303 	lsr.w	r3, r2, r3
 8003b62:	4a0a      	ldr	r2, [pc, #40]	; (8003b8c <HAL_RCC_ClockConfig+0x260>)
 8003b64:	6013      	str	r3, [r2, #0]

  /* Configure the source of time base considering new system clocks settings*/
  status = HAL_InitTick(uwTickPrio);
 8003b66:	4b0a      	ldr	r3, [pc, #40]	; (8003b90 <HAL_RCC_ClockConfig+0x264>)
 8003b68:	681b      	ldr	r3, [r3, #0]
 8003b6a:	4618      	mov	r0, r3
 8003b6c:	f7fe fc68 	bl	8002440 <HAL_InitTick>
 8003b70:	4603      	mov	r3, r0
 8003b72:	72fb      	strb	r3, [r7, #11]

  return status;
 8003b74:	7afb      	ldrb	r3, [r7, #11]
}
 8003b76:	4618      	mov	r0, r3
 8003b78:	3710      	adds	r7, #16
 8003b7a:	46bd      	mov	sp, r7
 8003b7c:	bd80      	pop	{r7, pc}
 8003b7e:	bf00      	nop
 8003b80:	40023c00 	.word	0x40023c00
 8003b84:	40023800 	.word	0x40023800
 8003b88:	0800569c 	.word	0x0800569c
 8003b8c:	20000008 	.word	0x20000008
 8003b90:	2000000c 	.word	0x2000000c

08003b94 <HAL_RCC_GetSysClockFreq>:
  *         right SYSCLK value. Otherwise, any configuration based on this function will be incorrect.
  *
  * @retval SYSCLK frequency
  */
uint32_t HAL_RCC_GetSysClockFreq(void)
{
 8003b94:	e92d 4fb0 	stmdb	sp!, {r4, r5, r7, r8, r9, sl, fp, lr}
 8003b98:	b092      	sub	sp, #72	; 0x48
 8003b9a:	af00      	add	r7, sp, #0
  uint32_t tmpreg, pllm, plld, pllvco, msiclkrange, sysclockfreq;

  tmpreg = RCC->CFGR;
 8003b9c:	4b79      	ldr	r3, [pc, #484]	; (8003d84 <HAL_RCC_GetSysClockFreq+0x1f0>)
 8003b9e:	689b      	ldr	r3, [r3, #8]
 8003ba0:	63fb      	str	r3, [r7, #60]	; 0x3c

  /* Get SYSCLK source -------------------------------------------------------*/
  switch (tmpreg & RCC_CFGR_SWS)
 8003ba2:	6bfb      	ldr	r3, [r7, #60]	; 0x3c
 8003ba4:	f003 030c 	and.w	r3, r3, #12
 8003ba8:	2b0c      	cmp	r3, #12
 8003baa:	d00d      	beq.n	8003bc8 <HAL_RCC_GetSysClockFreq+0x34>
 8003bac:	2b0c      	cmp	r3, #12
 8003bae:	f200 80d5 	bhi.w	8003d5c <HAL_RCC_GetSysClockFreq+0x1c8>
 8003bb2:	2b04      	cmp	r3, #4
 8003bb4:	d002      	beq.n	8003bbc <HAL_RCC_GetSysClockFreq+0x28>
 8003bb6:	2b08      	cmp	r3, #8
 8003bb8:	d003      	beq.n	8003bc2 <HAL_RCC_GetSysClockFreq+0x2e>
 8003bba:	e0cf      	b.n	8003d5c <HAL_RCC_GetSysClockFreq+0x1c8>
  {
    case RCC_SYSCLKSOURCE_STATUS_HSI:  /* HSI used as system clock source */
    {
      sysclockfreq = HSI_VALUE;
 8003bbc:	4b72      	ldr	r3, [pc, #456]	; (8003d88 <HAL_RCC_GetSysClockFreq+0x1f4>)
 8003bbe:	643b      	str	r3, [r7, #64]	; 0x40
      break;
 8003bc0:	e0da      	b.n	8003d78 <HAL_RCC_GetSysClockFreq+0x1e4>
    }
    case RCC_SYSCLKSOURCE_STATUS_HSE:  /* HSE used as system clock */
    {
      sysclockfreq = HSE_VALUE;
 8003bc2:	4b72      	ldr	r3, [pc, #456]	; (8003d8c <HAL_RCC_GetSysClockFreq+0x1f8>)
 8003bc4:	643b      	str	r3, [r7, #64]	; 0x40
      break;
 8003bc6:	e0d7      	b.n	8003d78 <HAL_RCC_GetSysClockFreq+0x1e4>
    }
    case RCC_SYSCLKSOURCE_STATUS_PLLCLK:  /* PLL used as system clock */
    {
      pllm = PLLMulTable[(uint32_t)(tmpreg & RCC_CFGR_PLLMUL) >> RCC_CFGR_PLLMUL_Pos];
 8003bc8:	6bfb      	ldr	r3, [r7, #60]	; 0x3c
 8003bca:	0c9b      	lsrs	r3, r3, #18
 8003bcc:	f003 020f 	and.w	r2, r3, #15
 8003bd0:	4b6f      	ldr	r3, [pc, #444]	; (8003d90 <HAL_RCC_GetSysClockFreq+0x1fc>)
 8003bd2:	5c9b      	ldrb	r3, [r3, r2]
 8003bd4:	63bb      	str	r3, [r7, #56]	; 0x38
      plld = ((uint32_t)(tmpreg & RCC_CFGR_PLLDIV) >> RCC_CFGR_PLLDIV_Pos) + 1U;
 8003bd6:	6bfb      	ldr	r3, [r7, #60]	; 0x3c
 8003bd8:	0d9b      	lsrs	r3, r3, #22
 8003bda:	f003 0303 	and.w	r3, r3, #3
 8003bde:	3301      	adds	r3, #1
 8003be0:	637b      	str	r3, [r7, #52]	; 0x34
      if (__HAL_RCC_GET_PLL_OSCSOURCE() != RCC_PLLSOURCE_HSI)
 8003be2:	4b68      	ldr	r3, [pc, #416]	; (8003d84 <HAL_RCC_GetSysClockFreq+0x1f0>)
 8003be4:	689b      	ldr	r3, [r3, #8]
 8003be6:	f403 3380 	and.w	r3, r3, #65536	; 0x10000
 8003bea:	2b00      	cmp	r3, #0
 8003bec:	d05d      	beq.n	8003caa <HAL_RCC_GetSysClockFreq+0x116>
      {
        /* HSE used as PLL clock source */
        pllvco = (uint32_t)(((uint64_t)HSE_VALUE * (uint64_t)pllm) / (uint64_t)plld);
 8003bee:	6bbb      	ldr	r3, [r7, #56]	; 0x38
 8003bf0:	2200      	movs	r2, #0
 8003bf2:	4618      	mov	r0, r3
 8003bf4:	4611      	mov	r1, r2
 8003bf6:	4604      	mov	r4, r0
 8003bf8:	460d      	mov	r5, r1
 8003bfa:	4622      	mov	r2, r4
 8003bfc:	462b      	mov	r3, r5
 8003bfe:	f04f 0000 	mov.w	r0, #0
 8003c02:	f04f 0100 	mov.w	r1, #0
 8003c06:	0159      	lsls	r1, r3, #5
 8003c08:	ea41 61d2 	orr.w	r1, r1, r2, lsr #27
 8003c0c:	0150      	lsls	r0, r2, #5
 8003c0e:	4602      	mov	r2, r0
 8003c10:	460b      	mov	r3, r1
 8003c12:	4621      	mov	r1, r4
 8003c14:	1a51      	subs	r1, r2, r1
 8003c16:	6139      	str	r1, [r7, #16]
 8003c18:	4629      	mov	r1, r5
 8003c1a:	eb63 0301 	sbc.w	r3, r3, r1
 8003c1e:	617b      	str	r3, [r7, #20]
 8003c20:	f04f 0200 	mov.w	r2, #0
 8003c24:	f04f 0300 	mov.w	r3, #0
 8003c28:	e9d7 ab04 	ldrd	sl, fp, [r7, #16]
 8003c2c:	4659      	mov	r1, fp
 8003c2e:	018b      	lsls	r3, r1, #6
 8003c30:	4651      	mov	r1, sl
 8003c32:	ea43 6391 	orr.w	r3, r3, r1, lsr #26
 8003c36:	4651      	mov	r1, sl
 8003c38:	018a      	lsls	r2, r1, #6
 8003c3a:	46d4      	mov	ip, sl
 8003c3c:	ebb2 080c 	subs.w	r8, r2, ip
 8003c40:	4659      	mov	r1, fp
 8003c42:	eb63 0901 	sbc.w	r9, r3, r1
 8003c46:	f04f 0200 	mov.w	r2, #0
 8003c4a:	f04f 0300 	mov.w	r3, #0
 8003c4e:	ea4f 03c9 	mov.w	r3, r9, lsl #3
 8003c52:	ea43 7358 	orr.w	r3, r3, r8, lsr #29
 8003c56:	ea4f 02c8 	mov.w	r2, r8, lsl #3
 8003c5a:	4690      	mov	r8, r2
 8003c5c:	4699      	mov	r9, r3
 8003c5e:	4623      	mov	r3, r4
 8003c60:	eb18 0303 	adds.w	r3, r8, r3
 8003c64:	60bb      	str	r3, [r7, #8]
 8003c66:	462b      	mov	r3, r5
 8003c68:	eb49 0303 	adc.w	r3, r9, r3
 8003c6c:	60fb      	str	r3, [r7, #12]
 8003c6e:	f04f 0200 	mov.w	r2, #0
 8003c72:	f04f 0300 	mov.w	r3, #0
 8003c76:	e9d7 4502 	ldrd	r4, r5, [r7, #8]
 8003c7a:	4629      	mov	r1, r5
 8003c7c:	024b      	lsls	r3, r1, #9
 8003c7e:	4620      	mov	r0, r4
 8003c80:	4629      	mov	r1, r5
 8003c82:	4604      	mov	r4, r0
 8003c84:	ea43 53d4 	orr.w	r3, r3, r4, lsr #23
 8003c88:	4601      	mov	r1, r0
 8003c8a:	024a      	lsls	r2, r1, #9
 8003c8c:	4610      	mov	r0, r2
 8003c8e:	4619      	mov	r1, r3
 8003c90:	6b7b      	ldr	r3, [r7, #52]	; 0x34
 8003c92:	2200      	movs	r2, #0
 8003c94:	62bb      	str	r3, [r7, #40]	; 0x28
 8003c96:	62fa      	str	r2, [r7, #44]	; 0x2c
 8003c98:	e9d7 230a 	ldrd	r2, r3, [r7, #40]	; 0x28
 8003c9c:	f7fc fa6e 	bl	800017c <__aeabi_uldivmod>
 8003ca0:	4602      	mov	r2, r0
 8003ca2:	460b      	mov	r3, r1
 8003ca4:	4613      	mov	r3, r2
 8003ca6:	647b      	str	r3, [r7, #68]	; 0x44
 8003ca8:	e055      	b.n	8003d56 <HAL_RCC_GetSysClockFreq+0x1c2>
      }
      else
      {
        /* HSI used as PLL clock source */
        pllvco = (uint32_t)(((uint64_t)HSI_VALUE * (uint64_t)pllm) / (uint64_t)plld);
 8003caa:	6bbb      	ldr	r3, [r7, #56]	; 0x38
 8003cac:	2200      	movs	r2, #0
 8003cae:	623b      	str	r3, [r7, #32]
 8003cb0:	627a      	str	r2, [r7, #36]	; 0x24
 8003cb2:	e9d7 8908 	ldrd	r8, r9, [r7, #32]
 8003cb6:	4642      	mov	r2, r8
 8003cb8:	464b      	mov	r3, r9
 8003cba:	f04f 0000 	mov.w	r0, #0
 8003cbe:	f04f 0100 	mov.w	r1, #0
 8003cc2:	0159      	lsls	r1, r3, #5
 8003cc4:	ea41 61d2 	orr.w	r1, r1, r2, lsr #27
 8003cc8:	0150      	lsls	r0, r2, #5
 8003cca:	4602      	mov	r2, r0
 8003ccc:	460b      	mov	r3, r1
 8003cce:	46c4      	mov	ip, r8
 8003cd0:	ebb2 0a0c 	subs.w	sl, r2, ip
 8003cd4:	4640      	mov	r0, r8
 8003cd6:	4649      	mov	r1, r9
 8003cd8:	468c      	mov	ip, r1
 8003cda:	eb63 0b0c 	sbc.w	fp, r3, ip
 8003cde:	f04f 0200 	mov.w	r2, #0
 8003ce2:	f04f 0300 	mov.w	r3, #0
 8003ce6:	ea4f 138b 	mov.w	r3, fp, lsl #6
 8003cea:	ea43 639a 	orr.w	r3, r3, sl, lsr #26
 8003cee:	ea4f 128a 	mov.w	r2, sl, lsl #6
 8003cf2:	ebb2 040a 	subs.w	r4, r2, sl
 8003cf6:	eb63 050b 	sbc.w	r5, r3, fp
 8003cfa:	f04f 0200 	mov.w	r2, #0
 8003cfe:	f04f 0300 	mov.w	r3, #0
 8003d02:	00eb      	lsls	r3, r5, #3
 8003d04:	ea43 7354 	orr.w	r3, r3, r4, lsr #29
 8003d08:	00e2      	lsls	r2, r4, #3
 8003d0a:	4614      	mov	r4, r2
 8003d0c:	461d      	mov	r5, r3
 8003d0e:	4603      	mov	r3, r0
 8003d10:	18e3      	adds	r3, r4, r3
 8003d12:	603b      	str	r3, [r7, #0]
 8003d14:	460b      	mov	r3, r1
 8003d16:	eb45 0303 	adc.w	r3, r5, r3
 8003d1a:	607b      	str	r3, [r7, #4]
 8003d1c:	f04f 0200 	mov.w	r2, #0
 8003d20:	f04f 0300 	mov.w	r3, #0
 8003d24:	e9d7 4500 	ldrd	r4, r5, [r7]
 8003d28:	4629      	mov	r1, r5
 8003d2a:	028b      	lsls	r3, r1, #10
 8003d2c:	4620      	mov	r0, r4
 8003d2e:	4629      	mov	r1, r5
 8003d30:	4604      	mov	r4, r0
 8003d32:	ea43 5394 	orr.w	r3, r3, r4, lsr #22
 8003d36:	4601      	mov	r1, r0
 8003d38:	028a      	lsls	r2, r1, #10
 8003d3a:	4610      	mov	r0, r2
 8003d3c:	4619      	mov	r1, r3
 8003d3e:	6b7b      	ldr	r3, [r7, #52]	; 0x34
 8003d40:	2200      	movs	r2, #0
 8003d42:	61bb      	str	r3, [r7, #24]
 8003d44:	61fa      	str	r2, [r7, #28]
 8003d46:	e9d7 2306 	ldrd	r2, r3, [r7, #24]
 8003d4a:	f7fc fa17 	bl	800017c <__aeabi_uldivmod>
 8003d4e:	4602      	mov	r2, r0
 8003d50:	460b      	mov	r3, r1
 8003d52:	4613      	mov	r3, r2
 8003d54:	647b      	str	r3, [r7, #68]	; 0x44
      }
      sysclockfreq = pllvco;
 8003d56:	6c7b      	ldr	r3, [r7, #68]	; 0x44
 8003d58:	643b      	str	r3, [r7, #64]	; 0x40
      break;
 8003d5a:	e00d      	b.n	8003d78 <HAL_RCC_GetSysClockFreq+0x1e4>
    }
    case RCC_SYSCLKSOURCE_STATUS_MSI:  /* MSI used as system clock source */
    default: /* MSI used as system clock */
    {
      msiclkrange = (RCC->ICSCR & RCC_ICSCR_MSIRANGE ) >> RCC_ICSCR_MSIRANGE_Pos;
 8003d5c:	4b09      	ldr	r3, [pc, #36]	; (8003d84 <HAL_RCC_GetSysClockFreq+0x1f0>)
 8003d5e:	685b      	ldr	r3, [r3, #4]
 8003d60:	0b5b      	lsrs	r3, r3, #13
 8003d62:	f003 0307 	and.w	r3, r3, #7
 8003d66:	633b      	str	r3, [r7, #48]	; 0x30
      sysclockfreq = (32768U * (1UL << (msiclkrange + 1U)));
 8003d68:	6b3b      	ldr	r3, [r7, #48]	; 0x30
 8003d6a:	3301      	adds	r3, #1
 8003d6c:	f44f 4200 	mov.w	r2, #32768	; 0x8000
 8003d70:	fa02 f303 	lsl.w	r3, r2, r3
 8003d74:	643b      	str	r3, [r7, #64]	; 0x40
      break;
 8003d76:	bf00      	nop
    }
  }
  return sysclockfreq;
 8003d78:	6c3b      	ldr	r3, [r7, #64]	; 0x40
}
 8003d7a:	4618      	mov	r0, r3
 8003d7c:	3748      	adds	r7, #72	; 0x48
 8003d7e:	46bd      	mov	sp, r7
 8003d80:	e8bd 8fb0 	ldmia.w	sp!, {r4, r5, r7, r8, r9, sl, fp, pc}
 8003d84:	40023800 	.word	0x40023800
 8003d88:	00f42400 	.word	0x00f42400
 8003d8c:	007a1200 	.word	0x007a1200
 8003d90:	08005690 	.word	0x08005690

08003d94 <RCC_SetFlashLatencyFromMSIRange>:
            voltage range
  * @param  MSIrange  MSI range value from RCC_MSIRANGE_0 to RCC_MSIRANGE_6
  * @retval HAL status
  */
static HAL_StatusTypeDef RCC_SetFlashLatencyFromMSIRange(uint32_t MSIrange)
{
 8003d94:	b480      	push	{r7}
 8003d96:	b087      	sub	sp, #28
 8003d98:	af00      	add	r7, sp, #0
 8003d9a:	6078      	str	r0, [r7, #4]
  uint32_t vos;
  uint32_t latency = FLASH_LATENCY_0;  /* default value 0WS */
 8003d9c:	2300      	movs	r3, #0
 8003d9e:	613b      	str	r3, [r7, #16]

  /* HCLK can reach 4 MHz only if AHB prescaler = 1 */
  if (READ_BIT(RCC->CFGR, RCC_CFGR_HPRE) == RCC_SYSCLK_DIV1)
 8003da0:	4b29      	ldr	r3, [pc, #164]	; (8003e48 <RCC_SetFlashLatencyFromMSIRange+0xb4>)
 8003da2:	689b      	ldr	r3, [r3, #8]
 8003da4:	f003 03f0 	and.w	r3, r3, #240	; 0xf0
 8003da8:	2b00      	cmp	r3, #0
 8003daa:	d12c      	bne.n	8003e06 <RCC_SetFlashLatencyFromMSIRange+0x72>
  {
    if(__HAL_RCC_PWR_IS_CLK_ENABLED())
 8003dac:	4b26      	ldr	r3, [pc, #152]	; (8003e48 <RCC_SetFlashLatencyFromMSIRange+0xb4>)
 8003dae:	6a5b      	ldr	r3, [r3, #36]	; 0x24
 8003db0:	f003 5380 	and.w	r3, r3, #268435456	; 0x10000000
 8003db4:	2b00      	cmp	r3, #0
 8003db6:	d005      	beq.n	8003dc4 <RCC_SetFlashLatencyFromMSIRange+0x30>
    {
      vos = READ_BIT(PWR->CR, PWR_CR_VOS);
 8003db8:	4b24      	ldr	r3, [pc, #144]	; (8003e4c <RCC_SetFlashLatencyFromMSIRange+0xb8>)
 8003dba:	681b      	ldr	r3, [r3, #0]
 8003dbc:	f403 53c0 	and.w	r3, r3, #6144	; 0x1800
 8003dc0:	617b      	str	r3, [r7, #20]
 8003dc2:	e016      	b.n	8003df2 <RCC_SetFlashLatencyFromMSIRange+0x5e>
    }
    else
    {
      __HAL_RCC_PWR_CLK_ENABLE();
 8003dc4:	4b20      	ldr	r3, [pc, #128]	; (8003e48 <RCC_SetFlashLatencyFromMSIRange+0xb4>)
 8003dc6:	6a5b      	ldr	r3, [r3, #36]	; 0x24
 8003dc8:	4a1f      	ldr	r2, [pc, #124]	; (8003e48 <RCC_SetFlashLatencyFromMSIRange+0xb4>)
 8003dca:	f043 5380 	orr.w	r3, r3, #268435456	; 0x10000000
 8003dce:	6253      	str	r3, [r2, #36]	; 0x24
 8003dd0:	4b1d      	ldr	r3, [pc, #116]	; (8003e48 <RCC_SetFlashLatencyFromMSIRange+0xb4>)
 8003dd2:	6a5b      	ldr	r3, [r3, #36]	; 0x24
 8003dd4:	f003 5380 	and.w	r3, r3, #268435456	; 0x10000000
 8003dd8:	60fb      	str	r3, [r7, #12]
 8003dda:	68fb      	ldr	r3, [r7, #12]
      vos = READ_BIT(PWR->CR, PWR_CR_VOS);
 8003ddc:	4b1b      	ldr	r3, [pc, #108]	; (8003e4c <RCC_SetFlashLatencyFromMSIRange+0xb8>)
 8003dde:	681b      	ldr	r3, [r3, #0]
 8003de0:	f403 53c0 	and.w	r3, r3, #6144	; 0x1800
 8003de4:	617b      	str	r3, [r7, #20]
      __HAL_RCC_PWR_CLK_DISABLE();
 8003de6:	4b18      	ldr	r3, [pc, #96]	; (8003e48 <RCC_SetFlashLatencyFromMSIRange+0xb4>)
 8003de8:	6a5b      	ldr	r3, [r3, #36]	; 0x24
 8003dea:	4a17      	ldr	r2, [pc, #92]	; (8003e48 <RCC_SetFlashLatencyFromMSIRange+0xb4>)
 8003dec:	f023 5380 	bic.w	r3, r3, #268435456	; 0x10000000
 8003df0:	6253      	str	r3, [r2, #36]	; 0x24
    }

    /* Check if need to set latency 1 only for Range 3 & HCLK = 4MHz */
    if((vos == PWR_REGULATOR_VOLTAGE_SCALE3) && (MSIrange == RCC_MSIRANGE_6))
 8003df2:	697b      	ldr	r3, [r7, #20]
 8003df4:	f5b3 5fc0 	cmp.w	r3, #6144	; 0x1800
 8003df8:	d105      	bne.n	8003e06 <RCC_SetFlashLatencyFromMSIRange+0x72>
 8003dfa:	687b      	ldr	r3, [r7, #4]
 8003dfc:	f5b3 4f40 	cmp.w	r3, #49152	; 0xc000
 8003e00:	d101      	bne.n	8003e06 <RCC_SetFlashLatencyFromMSIRange+0x72>
    {
      latency = FLASH_LATENCY_1; /* 1WS */
 8003e02:	2301      	movs	r3, #1
 8003e04:	613b      	str	r3, [r7, #16]
    }
  }

  __HAL_FLASH_SET_LATENCY(latency);
 8003e06:	693b      	ldr	r3, [r7, #16]
 8003e08:	2b01      	cmp	r3, #1
 8003e0a:	d105      	bne.n	8003e18 <RCC_SetFlashLatencyFromMSIRange+0x84>
 8003e0c:	4b10      	ldr	r3, [pc, #64]	; (8003e50 <RCC_SetFlashLatencyFromMSIRange+0xbc>)
 8003e0e:	681b      	ldr	r3, [r3, #0]
 8003e10:	4a0f      	ldr	r2, [pc, #60]	; (8003e50 <RCC_SetFlashLatencyFromMSIRange+0xbc>)
 8003e12:	f043 0304 	orr.w	r3, r3, #4
 8003e16:	6013      	str	r3, [r2, #0]
 8003e18:	4b0d      	ldr	r3, [pc, #52]	; (8003e50 <RCC_SetFlashLatencyFromMSIRange+0xbc>)
 8003e1a:	681b      	ldr	r3, [r3, #0]
 8003e1c:	f023 0201 	bic.w	r2, r3, #1
 8003e20:	490b      	ldr	r1, [pc, #44]	; (8003e50 <RCC_SetFlashLatencyFromMSIRange+0xbc>)
 8003e22:	693b      	ldr	r3, [r7, #16]
 8003e24:	4313      	orrs	r3, r2
 8003e26:	600b      	str	r3, [r1, #0]

  /* Check that the new number of wait states is taken into account to access the Flash
     memory by reading the FLASH_ACR register */
  if(__HAL_FLASH_GET_LATENCY() != latency)
 8003e28:	4b09      	ldr	r3, [pc, #36]	; (8003e50 <RCC_SetFlashLatencyFromMSIRange+0xbc>)
 8003e2a:	681b      	ldr	r3, [r3, #0]
 8003e2c:	f003 0301 	and.w	r3, r3, #1
 8003e30:	693a      	ldr	r2, [r7, #16]
 8003e32:	429a      	cmp	r2, r3
 8003e34:	d001      	beq.n	8003e3a <RCC_SetFlashLatencyFromMSIRange+0xa6>
  {
    return HAL_ERROR;
 8003e36:	2301      	movs	r3, #1
 8003e38:	e000      	b.n	8003e3c <RCC_SetFlashLatencyFromMSIRange+0xa8>
  }

  return HAL_OK;
 8003e3a:	2300      	movs	r3, #0
}
 8003e3c:	4618      	mov	r0, r3
 8003e3e:	371c      	adds	r7, #28
 8003e40:	46bd      	mov	sp, r7
 8003e42:	bc80      	pop	{r7}
 8003e44:	4770      	bx	lr
 8003e46:	bf00      	nop
 8003e48:	40023800 	.word	0x40023800
 8003e4c:	40007000 	.word	0x40007000
 8003e50:	40023c00 	.word	0x40023c00

08003e54 <HAL_RCCEx_PeriphCLKConfig>:
  * @retval HAL status
  * @note   If HAL_ERROR returned, first switch-OFF HSE clock oscillator with @ref HAL_RCC_OscConfig()
  *         to possibly update HSE divider.
  */
HAL_StatusTypeDef HAL_RCCEx_PeriphCLKConfig(RCC_PeriphCLKInitTypeDef  *PeriphClkInit)
{
 8003e54:	b580      	push	{r7, lr}
 8003e56:	b086      	sub	sp, #24
 8003e58:	af00      	add	r7, sp, #0
 8003e5a:	6078      	str	r0, [r7, #4]

  /* Check the parameters */
  assert_param(IS_RCC_PERIPHCLOCK(PeriphClkInit->PeriphClockSelection));

  /*------------------------------- RTC/LCD Configuration ------------------------*/
  if ((((PeriphClkInit->PeriphClockSelection) & RCC_PERIPHCLK_RTC) == RCC_PERIPHCLK_RTC)
 8003e5c:	687b      	ldr	r3, [r7, #4]
 8003e5e:	681b      	ldr	r3, [r3, #0]
 8003e60:	f003 0301 	and.w	r3, r3, #1
 8003e64:	2b00      	cmp	r3, #0
 8003e66:	d106      	bne.n	8003e76 <HAL_RCCEx_PeriphCLKConfig+0x22>
#if defined(LCD)
   || (((PeriphClkInit->PeriphClockSelection) & RCC_PERIPHCLK_LCD) == RCC_PERIPHCLK_LCD)
 8003e68:	687b      	ldr	r3, [r7, #4]
 8003e6a:	681b      	ldr	r3, [r3, #0]
 8003e6c:	f003 0302 	and.w	r3, r3, #2
 8003e70:	2b00      	cmp	r3, #0
 8003e72:	f000 80ed 	beq.w	8004050 <HAL_RCCEx_PeriphCLKConfig+0x1fc>
    {
      assert_param(IS_RCC_RTCCLKSOURCE(PeriphClkInit->LCDClockSelection));
    }
#endif /* LCD */

    FlagStatus       pwrclkchanged = RESET;
 8003e76:	2300      	movs	r3, #0
 8003e78:	75fb      	strb	r3, [r7, #23]

    /* As soon as function is called to change RTC clock source, activation of the
       power domain is done. */
    /* Requires to enable write access to Backup Domain of necessary */
    if(__HAL_RCC_PWR_IS_CLK_DISABLED())
 8003e7a:	4b78      	ldr	r3, [pc, #480]	; (800405c <HAL_RCCEx_PeriphCLKConfig+0x208>)
 8003e7c:	6a5b      	ldr	r3, [r3, #36]	; 0x24
 8003e7e:	f003 5380 	and.w	r3, r3, #268435456	; 0x10000000
 8003e82:	2b00      	cmp	r3, #0
 8003e84:	d10d      	bne.n	8003ea2 <HAL_RCCEx_PeriphCLKConfig+0x4e>
    {
      __HAL_RCC_PWR_CLK_ENABLE();
 8003e86:	4b75      	ldr	r3, [pc, #468]	; (800405c <HAL_RCCEx_PeriphCLKConfig+0x208>)
 8003e88:	6a5b      	ldr	r3, [r3, #36]	; 0x24
 8003e8a:	4a74      	ldr	r2, [pc, #464]	; (800405c <HAL_RCCEx_PeriphCLKConfig+0x208>)
 8003e8c:	f043 5380 	orr.w	r3, r3, #268435456	; 0x10000000
 8003e90:	6253      	str	r3, [r2, #36]	; 0x24
 8003e92:	4b72      	ldr	r3, [pc, #456]	; (800405c <HAL_RCCEx_PeriphCLKConfig+0x208>)
 8003e94:	6a5b      	ldr	r3, [r3, #36]	; 0x24
 8003e96:	f003 5380 	and.w	r3, r3, #268435456	; 0x10000000
 8003e9a:	60bb      	str	r3, [r7, #8]
 8003e9c:	68bb      	ldr	r3, [r7, #8]
      pwrclkchanged = SET;
 8003e9e:	2301      	movs	r3, #1
 8003ea0:	75fb      	strb	r3, [r7, #23]
    }

    if(HAL_IS_BIT_CLR(PWR->CR, PWR_CR_DBP))
 8003ea2:	4b6f      	ldr	r3, [pc, #444]	; (8004060 <HAL_RCCEx_PeriphCLKConfig+0x20c>)
 8003ea4:	681b      	ldr	r3, [r3, #0]
 8003ea6:	f403 7380 	and.w	r3, r3, #256	; 0x100
 8003eaa:	2b00      	cmp	r3, #0
 8003eac:	d118      	bne.n	8003ee0 <HAL_RCCEx_PeriphCLKConfig+0x8c>
    {
      /* Enable write access to Backup domain */
      SET_BIT(PWR->CR, PWR_CR_DBP);
 8003eae:	4b6c      	ldr	r3, [pc, #432]	; (8004060 <HAL_RCCEx_PeriphCLKConfig+0x20c>)
 8003eb0:	681b      	ldr	r3, [r3, #0]
 8003eb2:	4a6b      	ldr	r2, [pc, #428]	; (8004060 <HAL_RCCEx_PeriphCLKConfig+0x20c>)
 8003eb4:	f443 7380 	orr.w	r3, r3, #256	; 0x100
 8003eb8:	6013      	str	r3, [r2, #0]

      /* Wait for Backup domain Write protection disable */
      tickstart = HAL_GetTick();
 8003eba:	f7fe fb0d 	bl	80024d8 <HAL_GetTick>
 8003ebe:	6138      	str	r0, [r7, #16]

      while(HAL_IS_BIT_CLR(PWR->CR, PWR_CR_DBP))
 8003ec0:	e008      	b.n	8003ed4 <HAL_RCCEx_PeriphCLKConfig+0x80>
      {
        if((HAL_GetTick() - tickstart) > RCC_DBP_TIMEOUT_VALUE)
 8003ec2:	f7fe fb09 	bl	80024d8 <HAL_GetTick>
 8003ec6:	4602      	mov	r2, r0
 8003ec8:	693b      	ldr	r3, [r7, #16]
 8003eca:	1ad3      	subs	r3, r2, r3
 8003ecc:	2b64      	cmp	r3, #100	; 0x64
 8003ece:	d901      	bls.n	8003ed4 <HAL_RCCEx_PeriphCLKConfig+0x80>
        {
          return HAL_TIMEOUT;
 8003ed0:	2303      	movs	r3, #3
 8003ed2:	e0be      	b.n	8004052 <HAL_RCCEx_PeriphCLKConfig+0x1fe>
      while(HAL_IS_BIT_CLR(PWR->CR, PWR_CR_DBP))
 8003ed4:	4b62      	ldr	r3, [pc, #392]	; (8004060 <HAL_RCCEx_PeriphCLKConfig+0x20c>)
 8003ed6:	681b      	ldr	r3, [r3, #0]
 8003ed8:	f403 7380 	and.w	r3, r3, #256	; 0x100
 8003edc:	2b00      	cmp	r3, #0
 8003ede:	d0f0      	beq.n	8003ec2 <HAL_RCCEx_PeriphCLKConfig+0x6e>
        }
      }
    }

    /* Check if user wants to change HSE RTC prescaler whereas HSE is enabled */
    temp_reg = (RCC->CR & RCC_CR_RTCPRE);
 8003ee0:	4b5e      	ldr	r3, [pc, #376]	; (800405c <HAL_RCCEx_PeriphCLKConfig+0x208>)
 8003ee2:	681b      	ldr	r3, [r3, #0]
 8003ee4:	f003 43c0 	and.w	r3, r3, #1610612736	; 0x60000000
 8003ee8:	60fb      	str	r3, [r7, #12]
    if ((temp_reg != (PeriphClkInit->RTCClockSelection & RCC_CR_RTCPRE))
 8003eea:	687b      	ldr	r3, [r7, #4]
 8003eec:	685b      	ldr	r3, [r3, #4]
 8003eee:	f003 43c0 	and.w	r3, r3, #1610612736	; 0x60000000
 8003ef2:	68fa      	ldr	r2, [r7, #12]
 8003ef4:	429a      	cmp	r2, r3
 8003ef6:	d106      	bne.n	8003f06 <HAL_RCCEx_PeriphCLKConfig+0xb2>
#if defined (LCD)
     || (temp_reg != (PeriphClkInit->LCDClockSelection & RCC_CR_RTCPRE))
 8003ef8:	687b      	ldr	r3, [r7, #4]
 8003efa:	689b      	ldr	r3, [r3, #8]
 8003efc:	f003 43c0 	and.w	r3, r3, #1610612736	; 0x60000000
 8003f00:	68fa      	ldr	r2, [r7, #12]
 8003f02:	429a      	cmp	r2, r3
 8003f04:	d00f      	beq.n	8003f26 <HAL_RCCEx_PeriphCLKConfig+0xd2>
#endif /* LCD */
       )
    { /* Check HSE State */
      if ((PeriphClkInit->RTCClockSelection & RCC_CSR_RTCSEL) == RCC_CSR_RTCSEL_HSE)
 8003f06:	687b      	ldr	r3, [r7, #4]
 8003f08:	685b      	ldr	r3, [r3, #4]
 8003f0a:	f403 3340 	and.w	r3, r3, #196608	; 0x30000
 8003f0e:	f5b3 3f40 	cmp.w	r3, #196608	; 0x30000
 8003f12:	d108      	bne.n	8003f26 <HAL_RCCEx_PeriphCLKConfig+0xd2>
      {
        if (HAL_IS_BIT_SET(RCC->CR, RCC_CR_HSERDY))
 8003f14:	4b51      	ldr	r3, [pc, #324]	; (800405c <HAL_RCCEx_PeriphCLKConfig+0x208>)
 8003f16:	681b      	ldr	r3, [r3, #0]
 8003f18:	f403 3300 	and.w	r3, r3, #131072	; 0x20000
 8003f1c:	f5b3 3f00 	cmp.w	r3, #131072	; 0x20000
 8003f20:	d101      	bne.n	8003f26 <HAL_RCCEx_PeriphCLKConfig+0xd2>
        {
          /* To update HSE divider, first switch-OFF HSE clock oscillator*/
          return HAL_ERROR;
 8003f22:	2301      	movs	r3, #1
 8003f24:	e095      	b.n	8004052 <HAL_RCCEx_PeriphCLKConfig+0x1fe>
        }
      }
    }

    /* Reset the Backup domain only if the RTC Clock source selection is modified from reset value */
    temp_reg = (RCC->CSR & RCC_CSR_RTCSEL);
 8003f26:	4b4d      	ldr	r3, [pc, #308]	; (800405c <HAL_RCCEx_PeriphCLKConfig+0x208>)
 8003f28:	6b5b      	ldr	r3, [r3, #52]	; 0x34
 8003f2a:	f403 3340 	and.w	r3, r3, #196608	; 0x30000
 8003f2e:	60fb      	str	r3, [r7, #12]

    if((temp_reg != 0x00000000U) && (((temp_reg != (PeriphClkInit->RTCClockSelection & RCC_CSR_RTCSEL)) \
 8003f30:	68fb      	ldr	r3, [r7, #12]
 8003f32:	2b00      	cmp	r3, #0
 8003f34:	d041      	beq.n	8003fba <HAL_RCCEx_PeriphCLKConfig+0x166>
 8003f36:	687b      	ldr	r3, [r7, #4]
 8003f38:	685b      	ldr	r3, [r3, #4]
 8003f3a:	f403 3340 	and.w	r3, r3, #196608	; 0x30000
 8003f3e:	68fa      	ldr	r2, [r7, #12]
 8003f40:	429a      	cmp	r2, r3
 8003f42:	d005      	beq.n	8003f50 <HAL_RCCEx_PeriphCLKConfig+0xfc>
      && (((PeriphClkInit->PeriphClockSelection) & RCC_PERIPHCLK_RTC) == RCC_PERIPHCLK_RTC))
 8003f44:	687b      	ldr	r3, [r7, #4]
 8003f46:	681b      	ldr	r3, [r3, #0]
 8003f48:	f003 0301 	and.w	r3, r3, #1
 8003f4c:	2b00      	cmp	r3, #0
 8003f4e:	d10c      	bne.n	8003f6a <HAL_RCCEx_PeriphCLKConfig+0x116>
#if defined(LCD)
      || ((temp_reg != (PeriphClkInit->LCDClockSelection & RCC_CSR_RTCSEL)) \
 8003f50:	687b      	ldr	r3, [r7, #4]
 8003f52:	689b      	ldr	r3, [r3, #8]
 8003f54:	f403 3340 	and.w	r3, r3, #196608	; 0x30000
 8003f58:	68fa      	ldr	r2, [r7, #12]
 8003f5a:	429a      	cmp	r2, r3
 8003f5c:	d02d      	beq.n	8003fba <HAL_RCCEx_PeriphCLKConfig+0x166>
       && (((PeriphClkInit->PeriphClockSelection) & RCC_PERIPHCLK_LCD) == RCC_PERIPHCLK_LCD))
 8003f5e:	687b      	ldr	r3, [r7, #4]
 8003f60:	681b      	ldr	r3, [r3, #0]
 8003f62:	f003 0302 	and.w	r3, r3, #2
 8003f66:	2b00      	cmp	r3, #0
 8003f68:	d027      	beq.n	8003fba <HAL_RCCEx_PeriphCLKConfig+0x166>
#endif /* LCD */
     ))
    {
      /* Store the content of CSR register before the reset of Backup Domain */
      temp_reg = (RCC->CSR & ~(RCC_CSR_RTCSEL));
 8003f6a:	4b3c      	ldr	r3, [pc, #240]	; (800405c <HAL_RCCEx_PeriphCLKConfig+0x208>)
 8003f6c:	6b5b      	ldr	r3, [r3, #52]	; 0x34
 8003f6e:	f423 3340 	bic.w	r3, r3, #196608	; 0x30000
 8003f72:	60fb      	str	r3, [r7, #12]

      /* RTC Clock selection can be changed only if the Backup Domain is reset */
      __HAL_RCC_BACKUPRESET_FORCE();
 8003f74:	4b3b      	ldr	r3, [pc, #236]	; (8004064 <HAL_RCCEx_PeriphCLKConfig+0x210>)
 8003f76:	2201      	movs	r2, #1
 8003f78:	601a      	str	r2, [r3, #0]
      __HAL_RCC_BACKUPRESET_RELEASE();
 8003f7a:	4b3a      	ldr	r3, [pc, #232]	; (8004064 <HAL_RCCEx_PeriphCLKConfig+0x210>)
 8003f7c:	2200      	movs	r2, #0
 8003f7e:	601a      	str	r2, [r3, #0]

      /* Restore the Content of CSR register */
      RCC->CSR = temp_reg;
 8003f80:	4a36      	ldr	r2, [pc, #216]	; (800405c <HAL_RCCEx_PeriphCLKConfig+0x208>)
 8003f82:	68fb      	ldr	r3, [r7, #12]
 8003f84:	6353      	str	r3, [r2, #52]	; 0x34

       /* Wait for LSERDY if LSE was enabled */
      if (HAL_IS_BIT_SET(temp_reg, RCC_CSR_LSEON))
 8003f86:	68fb      	ldr	r3, [r7, #12]
 8003f88:	f403 7380 	and.w	r3, r3, #256	; 0x100
 8003f8c:	2b00      	cmp	r3, #0
 8003f8e:	d014      	beq.n	8003fba <HAL_RCCEx_PeriphCLKConfig+0x166>
      {
        /* Get Start Tick */
        tickstart = HAL_GetTick();
 8003f90:	f7fe faa2 	bl	80024d8 <HAL_GetTick>
 8003f94:	6138      	str	r0, [r7, #16]

        /* Wait till LSE is ready */
        while(__HAL_RCC_GET_FLAG(RCC_FLAG_LSERDY) == 0U)
 8003f96:	e00a      	b.n	8003fae <HAL_RCCEx_PeriphCLKConfig+0x15a>
        {
          if((HAL_GetTick() - tickstart ) > RCC_LSE_TIMEOUT_VALUE)
 8003f98:	f7fe fa9e 	bl	80024d8 <HAL_GetTick>
 8003f9c:	4602      	mov	r2, r0
 8003f9e:	693b      	ldr	r3, [r7, #16]
 8003fa0:	1ad3      	subs	r3, r2, r3
 8003fa2:	f241 3288 	movw	r2, #5000	; 0x1388
 8003fa6:	4293      	cmp	r3, r2
 8003fa8:	d901      	bls.n	8003fae <HAL_RCCEx_PeriphCLKConfig+0x15a>
          {
            return HAL_TIMEOUT;
 8003faa:	2303      	movs	r3, #3
 8003fac:	e051      	b.n	8004052 <HAL_RCCEx_PeriphCLKConfig+0x1fe>
        while(__HAL_RCC_GET_FLAG(RCC_FLAG_LSERDY) == 0U)
 8003fae:	4b2b      	ldr	r3, [pc, #172]	; (800405c <HAL_RCCEx_PeriphCLKConfig+0x208>)
 8003fb0:	6b5b      	ldr	r3, [r3, #52]	; 0x34
 8003fb2:	f403 7300 	and.w	r3, r3, #512	; 0x200
 8003fb6:	2b00      	cmp	r3, #0
 8003fb8:	d0ee      	beq.n	8003f98 <HAL_RCCEx_PeriphCLKConfig+0x144>
          }
        }
      }
    }
#if defined(LCD)
    if(((PeriphClkInit->PeriphClockSelection) & RCC_PERIPHCLK_LCD) == RCC_PERIPHCLK_LCD)
 8003fba:	687b      	ldr	r3, [r7, #4]
 8003fbc:	681b      	ldr	r3, [r3, #0]
 8003fbe:	f003 0302 	and.w	r3, r3, #2
 8003fc2:	2b00      	cmp	r3, #0
 8003fc4:	d01a      	beq.n	8003ffc <HAL_RCCEx_PeriphCLKConfig+0x1a8>
    {
      __HAL_RCC_LCD_CONFIG(PeriphClkInit->LCDClockSelection);
 8003fc6:	687b      	ldr	r3, [r7, #4]
 8003fc8:	689b      	ldr	r3, [r3, #8]
 8003fca:	f403 3340 	and.w	r3, r3, #196608	; 0x30000
 8003fce:	f5b3 3f40 	cmp.w	r3, #196608	; 0x30000
 8003fd2:	d10a      	bne.n	8003fea <HAL_RCCEx_PeriphCLKConfig+0x196>
 8003fd4:	4b21      	ldr	r3, [pc, #132]	; (800405c <HAL_RCCEx_PeriphCLKConfig+0x208>)
 8003fd6:	681b      	ldr	r3, [r3, #0]
 8003fd8:	f023 42c0 	bic.w	r2, r3, #1610612736	; 0x60000000
 8003fdc:	687b      	ldr	r3, [r7, #4]
 8003fde:	689b      	ldr	r3, [r3, #8]
 8003fe0:	f003 43c0 	and.w	r3, r3, #1610612736	; 0x60000000
 8003fe4:	491d      	ldr	r1, [pc, #116]	; (800405c <HAL_RCCEx_PeriphCLKConfig+0x208>)
 8003fe6:	4313      	orrs	r3, r2
 8003fe8:	600b      	str	r3, [r1, #0]
 8003fea:	4b1c      	ldr	r3, [pc, #112]	; (800405c <HAL_RCCEx_PeriphCLKConfig+0x208>)
 8003fec:	6b5a      	ldr	r2, [r3, #52]	; 0x34
 8003fee:	687b      	ldr	r3, [r7, #4]
 8003ff0:	689b      	ldr	r3, [r3, #8]
 8003ff2:	f403 3340 	and.w	r3, r3, #196608	; 0x30000
 8003ff6:	4919      	ldr	r1, [pc, #100]	; (800405c <HAL_RCCEx_PeriphCLKConfig+0x208>)
 8003ff8:	4313      	orrs	r3, r2
 8003ffa:	634b      	str	r3, [r1, #52]	; 0x34
    } 
#endif /* LCD */

    if(((PeriphClkInit->PeriphClockSelection) & RCC_PERIPHCLK_RTC) == RCC_PERIPHCLK_RTC)
 8003ffc:	687b      	ldr	r3, [r7, #4]
 8003ffe:	681b      	ldr	r3, [r3, #0]
 8004000:	f003 0301 	and.w	r3, r3, #1
 8004004:	2b00      	cmp	r3, #0
 8004006:	d01a      	beq.n	800403e <HAL_RCCEx_PeriphCLKConfig+0x1ea>
    {
      __HAL_RCC_RTC_CONFIG(PeriphClkInit->RTCClockSelection);
 8004008:	687b      	ldr	r3, [r7, #4]
 800400a:	685b      	ldr	r3, [r3, #4]
 800400c:	f403 3340 	and.w	r3, r3, #196608	; 0x30000
 8004010:	f5b3 3f40 	cmp.w	r3, #196608	; 0x30000
 8004014:	d10a      	bne.n	800402c <HAL_RCCEx_PeriphCLKConfig+0x1d8>
 8004016:	4b11      	ldr	r3, [pc, #68]	; (800405c <HAL_RCCEx_PeriphCLKConfig+0x208>)
 8004018:	681b      	ldr	r3, [r3, #0]
 800401a:	f023 42c0 	bic.w	r2, r3, #1610612736	; 0x60000000
 800401e:	687b      	ldr	r3, [r7, #4]
 8004020:	685b      	ldr	r3, [r3, #4]
 8004022:	f003 43c0 	and.w	r3, r3, #1610612736	; 0x60000000
 8004026:	490d      	ldr	r1, [pc, #52]	; (800405c <HAL_RCCEx_PeriphCLKConfig+0x208>)
 8004028:	4313      	orrs	r3, r2
 800402a:	600b      	str	r3, [r1, #0]
 800402c:	4b0b      	ldr	r3, [pc, #44]	; (800405c <HAL_RCCEx_PeriphCLKConfig+0x208>)
 800402e:	6b5a      	ldr	r2, [r3, #52]	; 0x34
 8004030:	687b      	ldr	r3, [r7, #4]
 8004032:	685b      	ldr	r3, [r3, #4]
 8004034:	f403 3340 	and.w	r3, r3, #196608	; 0x30000
 8004038:	4908      	ldr	r1, [pc, #32]	; (800405c <HAL_RCCEx_PeriphCLKConfig+0x208>)
 800403a:	4313      	orrs	r3, r2
 800403c:	634b      	str	r3, [r1, #52]	; 0x34
    }

    /* Require to disable power clock if necessary */
    if(pwrclkchanged == SET)
 800403e:	7dfb      	ldrb	r3, [r7, #23]
 8004040:	2b01      	cmp	r3, #1
 8004042:	d105      	bne.n	8004050 <HAL_RCCEx_PeriphCLKConfig+0x1fc>
    {
      __HAL_RCC_PWR_CLK_DISABLE();
 8004044:	4b05      	ldr	r3, [pc, #20]	; (800405c <HAL_RCCEx_PeriphCLKConfig+0x208>)
 8004046:	6a5b      	ldr	r3, [r3, #36]	; 0x24
 8004048:	4a04      	ldr	r2, [pc, #16]	; (800405c <HAL_RCCEx_PeriphCLKConfig+0x208>)
 800404a:	f023 5380 	bic.w	r3, r3, #268435456	; 0x10000000
 800404e:	6253      	str	r3, [r2, #36]	; 0x24
    }
  }

  return HAL_OK;
 8004050:	2300      	movs	r3, #0
}
 8004052:	4618      	mov	r0, r3
 8004054:	3718      	adds	r7, #24
 8004056:	46bd      	mov	sp, r7
 8004058:	bd80      	pop	{r7, pc}
 800405a:	bf00      	nop
 800405c:	40023800 	.word	0x40023800
 8004060:	40007000 	.word	0x40007000
 8004064:	424706dc 	.word	0x424706dc

08004068 <HAL_TIM_Base_Init>:
  *         Ex: call @ref HAL_TIM_Base_DeInit() before HAL_TIM_Base_Init()
  * @param  htim TIM Base handle
  * @retval HAL status
  */
HAL_StatusTypeDef HAL_TIM_Base_Init(TIM_HandleTypeDef *htim)
{
 8004068:	b580      	push	{r7, lr}
 800406a:	b082      	sub	sp, #8
 800406c:	af00      	add	r7, sp, #0
 800406e:	6078      	str	r0, [r7, #4]
  /* Check the TIM handle allocation */
  if (htim == NULL)
 8004070:	687b      	ldr	r3, [r7, #4]
 8004072:	2b00      	cmp	r3, #0
 8004074:	d101      	bne.n	800407a <HAL_TIM_Base_Init+0x12>
  {
    return HAL_ERROR;
 8004076:	2301      	movs	r3, #1
 8004078:	e031      	b.n	80040de <HAL_TIM_Base_Init+0x76>
  assert_param(IS_TIM_INSTANCE(htim->Instance));
  assert_param(IS_TIM_COUNTER_MODE(htim->Init.CounterMode));
  assert_param(IS_TIM_CLOCKDIVISION_DIV(htim->Init.ClockDivision));
  assert_param(IS_TIM_AUTORELOAD_PRELOAD(htim->Init.AutoReloadPreload));

  if (htim->State == HAL_TIM_STATE_RESET)
 800407a:	687b      	ldr	r3, [r7, #4]
 800407c:	f893 3039 	ldrb.w	r3, [r3, #57]	; 0x39
 8004080:	b2db      	uxtb	r3, r3
 8004082:	2b00      	cmp	r3, #0
 8004084:	d106      	bne.n	8004094 <HAL_TIM_Base_Init+0x2c>
  {
    /* Allocate lock resource and initialize it */
    htim->Lock = HAL_UNLOCKED;
 8004086:	687b      	ldr	r3, [r7, #4]
 8004088:	2200      	movs	r2, #0
 800408a:	f883 2038 	strb.w	r2, [r3, #56]	; 0x38
    }
    /* Init the low level hardware : GPIO, CLOCK, NVIC */
    htim->Base_MspInitCallback(htim);
#else
    /* Init the low level hardware : GPIO, CLOCK, NVIC */
    HAL_TIM_Base_MspInit(htim);
 800408e:	6878      	ldr	r0, [r7, #4]
 8004090:	f7fe f822 	bl	80020d8 <HAL_TIM_Base_MspInit>
#endif /* USE_HAL_TIM_REGISTER_CALLBACKS */
  }

  /* Set the TIM state */
  htim->State = HAL_TIM_STATE_BUSY;
 8004094:	687b      	ldr	r3, [r7, #4]
 8004096:	2202      	movs	r2, #2
 8004098:	f883 2039 	strb.w	r2, [r3, #57]	; 0x39

  /* Set the Time Base configuration */
  TIM_Base_SetConfig(htim->Instance, &htim->Init);
 800409c:	687b      	ldr	r3, [r7, #4]
 800409e:	681a      	ldr	r2, [r3, #0]
 80040a0:	687b      	ldr	r3, [r7, #4]
 80040a2:	3304      	adds	r3, #4
 80040a4:	4619      	mov	r1, r3
 80040a6:	4610      	mov	r0, r2
 80040a8:	f000 f8e2 	bl	8004270 <TIM_Base_SetConfig>

  /* Initialize the DMA burst operation state */
  htim->DMABurstState = HAL_DMA_BURST_STATE_READY;
 80040ac:	687b      	ldr	r3, [r7, #4]
 80040ae:	2201      	movs	r2, #1
 80040b0:	f883 203e 	strb.w	r2, [r3, #62]	; 0x3e

  /* Initialize the TIM channels state */
  TIM_CHANNEL_STATE_SET_ALL(htim, HAL_TIM_CHANNEL_STATE_READY);
 80040b4:	687b      	ldr	r3, [r7, #4]
 80040b6:	2201      	movs	r2, #1
 80040b8:	f883 203a 	strb.w	r2, [r3, #58]	; 0x3a
 80040bc:	687b      	ldr	r3, [r7, #4]
 80040be:	2201      	movs	r2, #1
 80040c0:	f883 203b 	strb.w	r2, [r3, #59]	; 0x3b
 80040c4:	687b      	ldr	r3, [r7, #4]
 80040c6:	2201      	movs	r2, #1
 80040c8:	f883 203c 	strb.w	r2, [r3, #60]	; 0x3c
 80040cc:	687b      	ldr	r3, [r7, #4]
 80040ce:	2201      	movs	r2, #1
 80040d0:	f883 203d 	strb.w	r2, [r3, #61]	; 0x3d

  /* Initialize the TIM state*/
  htim->State = HAL_TIM_STATE_READY;
 80040d4:	687b      	ldr	r3, [r7, #4]
 80040d6:	2201      	movs	r2, #1
 80040d8:	f883 2039 	strb.w	r2, [r3, #57]	; 0x39

  return HAL_OK;
 80040dc:	2300      	movs	r3, #0
}
 80040de:	4618      	mov	r0, r3
 80040e0:	3708      	adds	r7, #8
 80040e2:	46bd      	mov	sp, r7
 80040e4:	bd80      	pop	{r7, pc}

080040e6 <HAL_TIM_ConfigClockSource>:
  * @param  sClockSourceConfig pointer to a TIM_ClockConfigTypeDef structure that
  *         contains the clock source information for the TIM peripheral.
  * @retval HAL status
  */
HAL_StatusTypeDef HAL_TIM_ConfigClockSource(TIM_HandleTypeDef *htim, TIM_ClockConfigTypeDef *sClockSourceConfig)
{
 80040e6:	b580      	push	{r7, lr}
 80040e8:	b084      	sub	sp, #16
 80040ea:	af00      	add	r7, sp, #0
 80040ec:	6078      	str	r0, [r7, #4]
 80040ee:	6039      	str	r1, [r7, #0]
  uint32_t tmpsmcr;

  /* Process Locked */
  __HAL_LOCK(htim);
 80040f0:	687b      	ldr	r3, [r7, #4]
 80040f2:	f893 3038 	ldrb.w	r3, [r3, #56]	; 0x38
 80040f6:	2b01      	cmp	r3, #1
 80040f8:	d101      	bne.n	80040fe <HAL_TIM_ConfigClockSource+0x18>
 80040fa:	2302      	movs	r3, #2
 80040fc:	e0b3      	b.n	8004266 <HAL_TIM_ConfigClockSource+0x180>
 80040fe:	687b      	ldr	r3, [r7, #4]
 8004100:	2201      	movs	r2, #1
 8004102:	f883 2038 	strb.w	r2, [r3, #56]	; 0x38

  htim->State = HAL_TIM_STATE_BUSY;
 8004106:	687b      	ldr	r3, [r7, #4]
 8004108:	2202      	movs	r2, #2
 800410a:	f883 2039 	strb.w	r2, [r3, #57]	; 0x39

  /* Check the parameters */
  assert_param(IS_TIM_CLOCKSOURCE(sClockSourceConfig->ClockSource));

  /* Reset the SMS, TS, ECE, ETPS and ETRF bits */
  tmpsmcr = htim->Instance->SMCR;
 800410e:	687b      	ldr	r3, [r7, #4]
 8004110:	681b      	ldr	r3, [r3, #0]
 8004112:	689b      	ldr	r3, [r3, #8]
 8004114:	60fb      	str	r3, [r7, #12]
  tmpsmcr &= ~(TIM_SMCR_SMS | TIM_SMCR_TS);
 8004116:	68fb      	ldr	r3, [r7, #12]
 8004118:	f023 0377 	bic.w	r3, r3, #119	; 0x77
 800411c:	60fb      	str	r3, [r7, #12]
  tmpsmcr &= ~(TIM_SMCR_ETF | TIM_SMCR_ETPS | TIM_SMCR_ECE | TIM_SMCR_ETP);
 800411e:	68fb      	ldr	r3, [r7, #12]
 8004120:	f423 437f 	bic.w	r3, r3, #65280	; 0xff00
 8004124:	60fb      	str	r3, [r7, #12]
  htim->Instance->SMCR = tmpsmcr;
 8004126:	687b      	ldr	r3, [r7, #4]
 8004128:	681b      	ldr	r3, [r3, #0]
 800412a:	68fa      	ldr	r2, [r7, #12]
 800412c:	609a      	str	r2, [r3, #8]

  switch (sClockSourceConfig->ClockSource)
 800412e:	683b      	ldr	r3, [r7, #0]
 8004130:	681b      	ldr	r3, [r3, #0]
 8004132:	f5b3 5f00 	cmp.w	r3, #8192	; 0x2000
 8004136:	d03e      	beq.n	80041b6 <HAL_TIM_ConfigClockSource+0xd0>
 8004138:	f5b3 5f00 	cmp.w	r3, #8192	; 0x2000
 800413c:	f200 8087 	bhi.w	800424e <HAL_TIM_ConfigClockSource+0x168>
 8004140:	f5b3 5f80 	cmp.w	r3, #4096	; 0x1000
 8004144:	f000 8085 	beq.w	8004252 <HAL_TIM_ConfigClockSource+0x16c>
 8004148:	f5b3 5f80 	cmp.w	r3, #4096	; 0x1000
 800414c:	d87f      	bhi.n	800424e <HAL_TIM_ConfigClockSource+0x168>
 800414e:	2b70      	cmp	r3, #112	; 0x70
 8004150:	d01a      	beq.n	8004188 <HAL_TIM_ConfigClockSource+0xa2>
 8004152:	2b70      	cmp	r3, #112	; 0x70
 8004154:	d87b      	bhi.n	800424e <HAL_TIM_ConfigClockSource+0x168>
 8004156:	2b60      	cmp	r3, #96	; 0x60
 8004158:	d050      	beq.n	80041fc <HAL_TIM_ConfigClockSource+0x116>
 800415a:	2b60      	cmp	r3, #96	; 0x60
 800415c:	d877      	bhi.n	800424e <HAL_TIM_ConfigClockSource+0x168>
 800415e:	2b50      	cmp	r3, #80	; 0x50
 8004160:	d03c      	beq.n	80041dc <HAL_TIM_ConfigClockSource+0xf6>
 8004162:	2b50      	cmp	r3, #80	; 0x50
 8004164:	d873      	bhi.n	800424e <HAL_TIM_ConfigClockSource+0x168>
 8004166:	2b40      	cmp	r3, #64	; 0x40
 8004168:	d058      	beq.n	800421c <HAL_TIM_ConfigClockSource+0x136>
 800416a:	2b40      	cmp	r3, #64	; 0x40
 800416c:	d86f      	bhi.n	800424e <HAL_TIM_ConfigClockSource+0x168>
 800416e:	2b30      	cmp	r3, #48	; 0x30
 8004170:	d064      	beq.n	800423c <HAL_TIM_ConfigClockSource+0x156>
 8004172:	2b30      	cmp	r3, #48	; 0x30
 8004174:	d86b      	bhi.n	800424e <HAL_TIM_ConfigClockSource+0x168>
 8004176:	2b20      	cmp	r3, #32
 8004178:	d060      	beq.n	800423c <HAL_TIM_ConfigClockSource+0x156>
 800417a:	2b20      	cmp	r3, #32
 800417c:	d867      	bhi.n	800424e <HAL_TIM_ConfigClockSource+0x168>
 800417e:	2b00      	cmp	r3, #0
 8004180:	d05c      	beq.n	800423c <HAL_TIM_ConfigClockSource+0x156>
 8004182:	2b10      	cmp	r3, #16
 8004184:	d05a      	beq.n	800423c <HAL_TIM_ConfigClockSource+0x156>
        TIM_ITRx_SetConfig(htim->Instance, sClockSourceConfig->ClockSource);
        break;
      }

    default:
      break;
 8004186:	e062      	b.n	800424e <HAL_TIM_ConfigClockSource+0x168>
      TIM_ETR_SetConfig(htim->Instance,
 8004188:	687b      	ldr	r3, [r7, #4]
 800418a:	6818      	ldr	r0, [r3, #0]
 800418c:	683b      	ldr	r3, [r7, #0]
 800418e:	6899      	ldr	r1, [r3, #8]
 8004190:	683b      	ldr	r3, [r7, #0]
 8004192:	685a      	ldr	r2, [r3, #4]
 8004194:	683b      	ldr	r3, [r7, #0]
 8004196:	68db      	ldr	r3, [r3, #12]
 8004198:	f000 f943 	bl	8004422 <TIM_ETR_SetConfig>
      tmpsmcr = htim->Instance->SMCR;
 800419c:	687b      	ldr	r3, [r7, #4]
 800419e:	681b      	ldr	r3, [r3, #0]
 80041a0:	689b      	ldr	r3, [r3, #8]
 80041a2:	60fb      	str	r3, [r7, #12]
      tmpsmcr |= (TIM_SLAVEMODE_EXTERNAL1 | TIM_CLOCKSOURCE_ETRMODE1);
 80041a4:	68fb      	ldr	r3, [r7, #12]
 80041a6:	f043 0377 	orr.w	r3, r3, #119	; 0x77
 80041aa:	60fb      	str	r3, [r7, #12]
      htim->Instance->SMCR = tmpsmcr;
 80041ac:	687b      	ldr	r3, [r7, #4]
 80041ae:	681b      	ldr	r3, [r3, #0]
 80041b0:	68fa      	ldr	r2, [r7, #12]
 80041b2:	609a      	str	r2, [r3, #8]
      break;
 80041b4:	e04e      	b.n	8004254 <HAL_TIM_ConfigClockSource+0x16e>
      TIM_ETR_SetConfig(htim->Instance,
 80041b6:	687b      	ldr	r3, [r7, #4]
 80041b8:	6818      	ldr	r0, [r3, #0]
 80041ba:	683b      	ldr	r3, [r7, #0]
 80041bc:	6899      	ldr	r1, [r3, #8]
 80041be:	683b      	ldr	r3, [r7, #0]
 80041c0:	685a      	ldr	r2, [r3, #4]
 80041c2:	683b      	ldr	r3, [r7, #0]
 80041c4:	68db      	ldr	r3, [r3, #12]
 80041c6:	f000 f92c 	bl	8004422 <TIM_ETR_SetConfig>
      htim->Instance->SMCR |= TIM_SMCR_ECE;
 80041ca:	687b      	ldr	r3, [r7, #4]
 80041cc:	681b      	ldr	r3, [r3, #0]
 80041ce:	689a      	ldr	r2, [r3, #8]
 80041d0:	687b      	ldr	r3, [r7, #4]
 80041d2:	681b      	ldr	r3, [r3, #0]
 80041d4:	f442 4280 	orr.w	r2, r2, #16384	; 0x4000
 80041d8:	609a      	str	r2, [r3, #8]
      break;
 80041da:	e03b      	b.n	8004254 <HAL_TIM_ConfigClockSource+0x16e>
      TIM_TI1_ConfigInputStage(htim->Instance,
 80041dc:	687b      	ldr	r3, [r7, #4]
 80041de:	6818      	ldr	r0, [r3, #0]
 80041e0:	683b      	ldr	r3, [r7, #0]
 80041e2:	6859      	ldr	r1, [r3, #4]
 80041e4:	683b      	ldr	r3, [r7, #0]
 80041e6:	68db      	ldr	r3, [r3, #12]
 80041e8:	461a      	mov	r2, r3
 80041ea:	f000 f8a3 	bl	8004334 <TIM_TI1_ConfigInputStage>
      TIM_ITRx_SetConfig(htim->Instance, TIM_CLOCKSOURCE_TI1);
 80041ee:	687b      	ldr	r3, [r7, #4]
 80041f0:	681b      	ldr	r3, [r3, #0]
 80041f2:	2150      	movs	r1, #80	; 0x50
 80041f4:	4618      	mov	r0, r3
 80041f6:	f000 f8fa 	bl	80043ee <TIM_ITRx_SetConfig>
      break;
 80041fa:	e02b      	b.n	8004254 <HAL_TIM_ConfigClockSource+0x16e>
      TIM_TI2_ConfigInputStage(htim->Instance,
 80041fc:	687b      	ldr	r3, [r7, #4]
 80041fe:	6818      	ldr	r0, [r3, #0]
 8004200:	683b      	ldr	r3, [r7, #0]
 8004202:	6859      	ldr	r1, [r3, #4]
 8004204:	683b      	ldr	r3, [r7, #0]
 8004206:	68db      	ldr	r3, [r3, #12]
 8004208:	461a      	mov	r2, r3
 800420a:	f000 f8c1 	bl	8004390 <TIM_TI2_ConfigInputStage>
      TIM_ITRx_SetConfig(htim->Instance, TIM_CLOCKSOURCE_TI2);
 800420e:	687b      	ldr	r3, [r7, #4]
 8004210:	681b      	ldr	r3, [r3, #0]
 8004212:	2160      	movs	r1, #96	; 0x60
 8004214:	4618      	mov	r0, r3
 8004216:	f000 f8ea 	bl	80043ee <TIM_ITRx_SetConfig>
      break;
 800421a:	e01b      	b.n	8004254 <HAL_TIM_ConfigClockSource+0x16e>
      TIM_TI1_ConfigInputStage(htim->Instance,
 800421c:	687b      	ldr	r3, [r7, #4]
 800421e:	6818      	ldr	r0, [r3, #0]
 8004220:	683b      	ldr	r3, [r7, #0]
 8004222:	6859      	ldr	r1, [r3, #4]
 8004224:	683b      	ldr	r3, [r7, #0]
 8004226:	68db      	ldr	r3, [r3, #12]
 8004228:	461a      	mov	r2, r3
 800422a:	f000 f883 	bl	8004334 <TIM_TI1_ConfigInputStage>
      TIM_ITRx_SetConfig(htim->Instance, TIM_CLOCKSOURCE_TI1ED);
 800422e:	687b      	ldr	r3, [r7, #4]
 8004230:	681b      	ldr	r3, [r3, #0]
 8004232:	2140      	movs	r1, #64	; 0x40
 8004234:	4618      	mov	r0, r3
 8004236:	f000 f8da 	bl	80043ee <TIM_ITRx_SetConfig>
      break;
 800423a:	e00b      	b.n	8004254 <HAL_TIM_ConfigClockSource+0x16e>
        TIM_ITRx_SetConfig(htim->Instance, sClockSourceConfig->ClockSource);
 800423c:	687b      	ldr	r3, [r7, #4]
 800423e:	681a      	ldr	r2, [r3, #0]
 8004240:	683b      	ldr	r3, [r7, #0]
 8004242:	681b      	ldr	r3, [r3, #0]
 8004244:	4619      	mov	r1, r3
 8004246:	4610      	mov	r0, r2
 8004248:	f000 f8d1 	bl	80043ee <TIM_ITRx_SetConfig>
        break;
 800424c:	e002      	b.n	8004254 <HAL_TIM_ConfigClockSource+0x16e>
      break;
 800424e:	bf00      	nop
 8004250:	e000      	b.n	8004254 <HAL_TIM_ConfigClockSource+0x16e>
      break;
 8004252:	bf00      	nop
  }
  htim->State = HAL_TIM_STATE_READY;
 8004254:	687b      	ldr	r3, [r7, #4]
 8004256:	2201      	movs	r2, #1
 8004258:	f883 2039 	strb.w	r2, [r3, #57]	; 0x39

  __HAL_UNLOCK(htim);
 800425c:	687b      	ldr	r3, [r7, #4]
 800425e:	2200      	movs	r2, #0
 8004260:	f883 2038 	strb.w	r2, [r3, #56]	; 0x38

  return HAL_OK;
 8004264:	2300      	movs	r3, #0
}
 8004266:	4618      	mov	r0, r3
 8004268:	3710      	adds	r7, #16
 800426a:	46bd      	mov	sp, r7
 800426c:	bd80      	pop	{r7, pc}
	...

08004270 <TIM_Base_SetConfig>:
  * @param  TIMx TIM peripheral
  * @param  Structure TIM Base configuration structure
  * @retval None
  */
static void TIM_Base_SetConfig(TIM_TypeDef *TIMx, TIM_Base_InitTypeDef *Structure)
{
 8004270:	b480      	push	{r7}
 8004272:	b085      	sub	sp, #20
 8004274:	af00      	add	r7, sp, #0
 8004276:	6078      	str	r0, [r7, #4]
 8004278:	6039      	str	r1, [r7, #0]
  uint32_t tmpcr1;
  tmpcr1 = TIMx->CR1;
 800427a:	687b      	ldr	r3, [r7, #4]
 800427c:	681b      	ldr	r3, [r3, #0]
 800427e:	60fb      	str	r3, [r7, #12]

  /* Set TIM Time Base Unit parameters ---------------------------------------*/
  if (IS_TIM_COUNTER_MODE_SELECT_INSTANCE(TIMx))
 8004280:	687b      	ldr	r3, [r7, #4]
 8004282:	f1b3 4f80 	cmp.w	r3, #1073741824	; 0x40000000
 8004286:	d007      	beq.n	8004298 <TIM_Base_SetConfig+0x28>
 8004288:	687b      	ldr	r3, [r7, #4]
 800428a:	4a25      	ldr	r2, [pc, #148]	; (8004320 <TIM_Base_SetConfig+0xb0>)
 800428c:	4293      	cmp	r3, r2
 800428e:	d003      	beq.n	8004298 <TIM_Base_SetConfig+0x28>
 8004290:	687b      	ldr	r3, [r7, #4]
 8004292:	4a24      	ldr	r2, [pc, #144]	; (8004324 <TIM_Base_SetConfig+0xb4>)
 8004294:	4293      	cmp	r3, r2
 8004296:	d108      	bne.n	80042aa <TIM_Base_SetConfig+0x3a>
  {
    /* Select the Counter Mode */
    tmpcr1 &= ~(TIM_CR1_DIR | TIM_CR1_CMS);
 8004298:	68fb      	ldr	r3, [r7, #12]
 800429a:	f023 0370 	bic.w	r3, r3, #112	; 0x70
 800429e:	60fb      	str	r3, [r7, #12]
    tmpcr1 |= Structure->CounterMode;
 80042a0:	683b      	ldr	r3, [r7, #0]
 80042a2:	685b      	ldr	r3, [r3, #4]
 80042a4:	68fa      	ldr	r2, [r7, #12]
 80042a6:	4313      	orrs	r3, r2
 80042a8:	60fb      	str	r3, [r7, #12]
  }

  if (IS_TIM_CLOCK_DIVISION_INSTANCE(TIMx))
 80042aa:	687b      	ldr	r3, [r7, #4]
 80042ac:	f1b3 4f80 	cmp.w	r3, #1073741824	; 0x40000000
 80042b0:	d013      	beq.n	80042da <TIM_Base_SetConfig+0x6a>
 80042b2:	687b      	ldr	r3, [r7, #4]
 80042b4:	4a1a      	ldr	r2, [pc, #104]	; (8004320 <TIM_Base_SetConfig+0xb0>)
 80042b6:	4293      	cmp	r3, r2
 80042b8:	d00f      	beq.n	80042da <TIM_Base_SetConfig+0x6a>
 80042ba:	687b      	ldr	r3, [r7, #4]
 80042bc:	4a19      	ldr	r2, [pc, #100]	; (8004324 <TIM_Base_SetConfig+0xb4>)
 80042be:	4293      	cmp	r3, r2
 80042c0:	d00b      	beq.n	80042da <TIM_Base_SetConfig+0x6a>
 80042c2:	687b      	ldr	r3, [r7, #4]
 80042c4:	4a18      	ldr	r2, [pc, #96]	; (8004328 <TIM_Base_SetConfig+0xb8>)
 80042c6:	4293      	cmp	r3, r2
 80042c8:	d007      	beq.n	80042da <TIM_Base_SetConfig+0x6a>
 80042ca:	687b      	ldr	r3, [r7, #4]
 80042cc:	4a17      	ldr	r2, [pc, #92]	; (800432c <TIM_Base_SetConfig+0xbc>)
 80042ce:	4293      	cmp	r3, r2
 80042d0:	d003      	beq.n	80042da <TIM_Base_SetConfig+0x6a>
 80042d2:	687b      	ldr	r3, [r7, #4]
 80042d4:	4a16      	ldr	r2, [pc, #88]	; (8004330 <TIM_Base_SetConfig+0xc0>)
 80042d6:	4293      	cmp	r3, r2
 80042d8:	d108      	bne.n	80042ec <TIM_Base_SetConfig+0x7c>
  {
    /* Set the clock division */
    tmpcr1 &= ~TIM_CR1_CKD;
 80042da:	68fb      	ldr	r3, [r7, #12]
 80042dc:	f423 7340 	bic.w	r3, r3, #768	; 0x300
 80042e0:	60fb      	str	r3, [r7, #12]
    tmpcr1 |= (uint32_t)Structure->ClockDivision;
 80042e2:	683b      	ldr	r3, [r7, #0]
 80042e4:	68db      	ldr	r3, [r3, #12]
 80042e6:	68fa      	ldr	r2, [r7, #12]
 80042e8:	4313      	orrs	r3, r2
 80042ea:	60fb      	str	r3, [r7, #12]
  }

  /* Set the auto-reload preload */
  MODIFY_REG(tmpcr1, TIM_CR1_ARPE, Structure->AutoReloadPreload);
 80042ec:	68fb      	ldr	r3, [r7, #12]
 80042ee:	f023 0280 	bic.w	r2, r3, #128	; 0x80
 80042f2:	683b      	ldr	r3, [r7, #0]
 80042f4:	691b      	ldr	r3, [r3, #16]
 80042f6:	4313      	orrs	r3, r2
 80042f8:	60fb      	str	r3, [r7, #12]

  TIMx->CR1 = tmpcr1;
 80042fa:	687b      	ldr	r3, [r7, #4]
 80042fc:	68fa      	ldr	r2, [r7, #12]
 80042fe:	601a      	str	r2, [r3, #0]

  /* Set the Autoreload value */
  TIMx->ARR = (uint32_t)Structure->Period ;
 8004300:	683b      	ldr	r3, [r7, #0]
 8004302:	689a      	ldr	r2, [r3, #8]
 8004304:	687b      	ldr	r3, [r7, #4]
 8004306:	62da      	str	r2, [r3, #44]	; 0x2c

  /* Set the Prescaler value */
  TIMx->PSC = Structure->Prescaler;
 8004308:	683b      	ldr	r3, [r7, #0]
 800430a:	681a      	ldr	r2, [r3, #0]
 800430c:	687b      	ldr	r3, [r7, #4]
 800430e:	629a      	str	r2, [r3, #40]	; 0x28

  /* Generate an update event to reload the Prescaler
     and the repetition counter (only for advanced timer) value immediately */
  TIMx->EGR = TIM_EGR_UG;
 8004310:	687b      	ldr	r3, [r7, #4]
 8004312:	2201      	movs	r2, #1
 8004314:	615a      	str	r2, [r3, #20]
}
 8004316:	bf00      	nop
 8004318:	3714      	adds	r7, #20
 800431a:	46bd      	mov	sp, r7
 800431c:	bc80      	pop	{r7}
 800431e:	4770      	bx	lr
 8004320:	40000400 	.word	0x40000400
 8004324:	40000800 	.word	0x40000800
 8004328:	40010800 	.word	0x40010800
 800432c:	40010c00 	.word	0x40010c00
 8004330:	40011000 	.word	0x40011000

08004334 <TIM_TI1_ConfigInputStage>:
  * @param  TIM_ICFilter Specifies the Input Capture Filter.
  *          This parameter must be a value between 0x00 and 0x0F.
  * @retval None
  */
static void TIM_TI1_ConfigInputStage(TIM_TypeDef *TIMx, uint32_t TIM_ICPolarity, uint32_t TIM_ICFilter)
{
 8004334:	b480      	push	{r7}
 8004336:	b087      	sub	sp, #28
 8004338:	af00      	add	r7, sp, #0
 800433a:	60f8      	str	r0, [r7, #12]
 800433c:	60b9      	str	r1, [r7, #8]
 800433e:	607a      	str	r2, [r7, #4]
  uint32_t tmpccmr1;
  uint32_t tmpccer;

  /* Disable the Channel 1: Reset the CC1E Bit */
  tmpccer = TIMx->CCER;
 8004340:	68fb      	ldr	r3, [r7, #12]
 8004342:	6a1b      	ldr	r3, [r3, #32]
 8004344:	617b      	str	r3, [r7, #20]
  TIMx->CCER &= ~TIM_CCER_CC1E;
 8004346:	68fb      	ldr	r3, [r7, #12]
 8004348:	6a1b      	ldr	r3, [r3, #32]
 800434a:	f023 0201 	bic.w	r2, r3, #1
 800434e:	68fb      	ldr	r3, [r7, #12]
 8004350:	621a      	str	r2, [r3, #32]
  tmpccmr1 = TIMx->CCMR1;
 8004352:	68fb      	ldr	r3, [r7, #12]
 8004354:	699b      	ldr	r3, [r3, #24]
 8004356:	613b      	str	r3, [r7, #16]

  /* Set the filter */
  tmpccmr1 &= ~TIM_CCMR1_IC1F;
 8004358:	693b      	ldr	r3, [r7, #16]
 800435a:	f023 03f0 	bic.w	r3, r3, #240	; 0xf0
 800435e:	613b      	str	r3, [r7, #16]
  tmpccmr1 |= (TIM_ICFilter << 4U);
 8004360:	687b      	ldr	r3, [r7, #4]
 8004362:	011b      	lsls	r3, r3, #4
 8004364:	693a      	ldr	r2, [r7, #16]
 8004366:	4313      	orrs	r3, r2
 8004368:	613b      	str	r3, [r7, #16]

  /* Select the Polarity and set the CC1E Bit */
  tmpccer &= ~(TIM_CCER_CC1P | TIM_CCER_CC1NP);
 800436a:	697b      	ldr	r3, [r7, #20]
 800436c:	f023 030a 	bic.w	r3, r3, #10
 8004370:	617b      	str	r3, [r7, #20]
  tmpccer |= TIM_ICPolarity;
 8004372:	697a      	ldr	r2, [r7, #20]
 8004374:	68bb      	ldr	r3, [r7, #8]
 8004376:	4313      	orrs	r3, r2
 8004378:	617b      	str	r3, [r7, #20]

  /* Write to TIMx CCMR1 and CCER registers */
  TIMx->CCMR1 = tmpccmr1;
 800437a:	68fb      	ldr	r3, [r7, #12]
 800437c:	693a      	ldr	r2, [r7, #16]
 800437e:	619a      	str	r2, [r3, #24]
  TIMx->CCER = tmpccer;
 8004380:	68fb      	ldr	r3, [r7, #12]
 8004382:	697a      	ldr	r2, [r7, #20]
 8004384:	621a      	str	r2, [r3, #32]
}
 8004386:	bf00      	nop
 8004388:	371c      	adds	r7, #28
 800438a:	46bd      	mov	sp, r7
 800438c:	bc80      	pop	{r7}
 800438e:	4770      	bx	lr

08004390 <TIM_TI2_ConfigInputStage>:
  * @param  TIM_ICFilter Specifies the Input Capture Filter.
  *          This parameter must be a value between 0x00 and 0x0F.
  * @retval None
  */
static void TIM_TI2_ConfigInputStage(TIM_TypeDef *TIMx, uint32_t TIM_ICPolarity, uint32_t TIM_ICFilter)
{
 8004390:	b480      	push	{r7}
 8004392:	b087      	sub	sp, #28
 8004394:	af00      	add	r7, sp, #0
 8004396:	60f8      	str	r0, [r7, #12]
 8004398:	60b9      	str	r1, [r7, #8]
 800439a:	607a      	str	r2, [r7, #4]
  uint32_t tmpccmr1;
  uint32_t tmpccer;

  /* Disable the Channel 2: Reset the CC2E Bit */
  TIMx->CCER &= ~TIM_CCER_CC2E;
 800439c:	68fb      	ldr	r3, [r7, #12]
 800439e:	6a1b      	ldr	r3, [r3, #32]
 80043a0:	f023 0210 	bic.w	r2, r3, #16
 80043a4:	68fb      	ldr	r3, [r7, #12]
 80043a6:	621a      	str	r2, [r3, #32]
  tmpccmr1 = TIMx->CCMR1;
 80043a8:	68fb      	ldr	r3, [r7, #12]
 80043aa:	699b      	ldr	r3, [r3, #24]
 80043ac:	617b      	str	r3, [r7, #20]
  tmpccer = TIMx->CCER;
 80043ae:	68fb      	ldr	r3, [r7, #12]
 80043b0:	6a1b      	ldr	r3, [r3, #32]
 80043b2:	613b      	str	r3, [r7, #16]

  /* Set the filter */
  tmpccmr1 &= ~TIM_CCMR1_IC2F;
 80043b4:	697b      	ldr	r3, [r7, #20]
 80043b6:	f423 4370 	bic.w	r3, r3, #61440	; 0xf000
 80043ba:	617b      	str	r3, [r7, #20]
  tmpccmr1 |= (TIM_ICFilter << 12U);
 80043bc:	687b      	ldr	r3, [r7, #4]
 80043be:	031b      	lsls	r3, r3, #12
 80043c0:	697a      	ldr	r2, [r7, #20]
 80043c2:	4313      	orrs	r3, r2
 80043c4:	617b      	str	r3, [r7, #20]

  /* Select the Polarity and set the CC2E Bit */
  tmpccer &= ~(TIM_CCER_CC2P | TIM_CCER_CC2NP);
 80043c6:	693b      	ldr	r3, [r7, #16]
 80043c8:	f023 03a0 	bic.w	r3, r3, #160	; 0xa0
 80043cc:	613b      	str	r3, [r7, #16]
  tmpccer |= (TIM_ICPolarity << 4U);
 80043ce:	68bb      	ldr	r3, [r7, #8]
 80043d0:	011b      	lsls	r3, r3, #4
 80043d2:	693a      	ldr	r2, [r7, #16]
 80043d4:	4313      	orrs	r3, r2
 80043d6:	613b      	str	r3, [r7, #16]

  /* Write to TIMx CCMR1 and CCER registers */
  TIMx->CCMR1 = tmpccmr1 ;
 80043d8:	68fb      	ldr	r3, [r7, #12]
 80043da:	697a      	ldr	r2, [r7, #20]
 80043dc:	619a      	str	r2, [r3, #24]
  TIMx->CCER = tmpccer;
 80043de:	68fb      	ldr	r3, [r7, #12]
 80043e0:	693a      	ldr	r2, [r7, #16]
 80043e2:	621a      	str	r2, [r3, #32]
}
 80043e4:	bf00      	nop
 80043e6:	371c      	adds	r7, #28
 80043e8:	46bd      	mov	sp, r7
 80043ea:	bc80      	pop	{r7}
 80043ec:	4770      	bx	lr

080043ee <TIM_ITRx_SetConfig>:
  *            @arg TIM_TS_TI2FP2: Filtered Timer Input 2
  *            @arg TIM_TS_ETRF: External Trigger input
  * @retval None
  */
static void TIM_ITRx_SetConfig(TIM_TypeDef *TIMx, uint32_t InputTriggerSource)
{
 80043ee:	b480      	push	{r7}
 80043f0:	b085      	sub	sp, #20
 80043f2:	af00      	add	r7, sp, #0
 80043f4:	6078      	str	r0, [r7, #4]
 80043f6:	6039      	str	r1, [r7, #0]
  uint32_t tmpsmcr;

  /* Get the TIMx SMCR register value */
  tmpsmcr = TIMx->SMCR;
 80043f8:	687b      	ldr	r3, [r7, #4]
 80043fa:	689b      	ldr	r3, [r3, #8]
 80043fc:	60fb      	str	r3, [r7, #12]
  /* Reset the TS Bits */
  tmpsmcr &= ~TIM_SMCR_TS;
 80043fe:	68fb      	ldr	r3, [r7, #12]
 8004400:	f023 0370 	bic.w	r3, r3, #112	; 0x70
 8004404:	60fb      	str	r3, [r7, #12]
  /* Set the Input Trigger source and the slave mode*/
  tmpsmcr |= (InputTriggerSource | TIM_SLAVEMODE_EXTERNAL1);
 8004406:	683a      	ldr	r2, [r7, #0]
 8004408:	68fb      	ldr	r3, [r7, #12]
 800440a:	4313      	orrs	r3, r2
 800440c:	f043 0307 	orr.w	r3, r3, #7
 8004410:	60fb      	str	r3, [r7, #12]
  /* Write to TIMx SMCR */
  TIMx->SMCR = tmpsmcr;
 8004412:	687b      	ldr	r3, [r7, #4]
 8004414:	68fa      	ldr	r2, [r7, #12]
 8004416:	609a      	str	r2, [r3, #8]
}
 8004418:	bf00      	nop
 800441a:	3714      	adds	r7, #20
 800441c:	46bd      	mov	sp, r7
 800441e:	bc80      	pop	{r7}
 8004420:	4770      	bx	lr

08004422 <TIM_ETR_SetConfig>:
  *          This parameter must be a value between 0x00 and 0x0F
  * @retval None
  */
static void TIM_ETR_SetConfig(TIM_TypeDef *TIMx, uint32_t TIM_ExtTRGPrescaler,
                              uint32_t TIM_ExtTRGPolarity, uint32_t ExtTRGFilter)
{
 8004422:	b480      	push	{r7}
 8004424:	b087      	sub	sp, #28
 8004426:	af00      	add	r7, sp, #0
 8004428:	60f8      	str	r0, [r7, #12]
 800442a:	60b9      	str	r1, [r7, #8]
 800442c:	607a      	str	r2, [r7, #4]
 800442e:	603b      	str	r3, [r7, #0]
  uint32_t tmpsmcr;

  tmpsmcr = TIMx->SMCR;
 8004430:	68fb      	ldr	r3, [r7, #12]
 8004432:	689b      	ldr	r3, [r3, #8]
 8004434:	617b      	str	r3, [r7, #20]

  /* Reset the ETR Bits */
  tmpsmcr &= ~(TIM_SMCR_ETF | TIM_SMCR_ETPS | TIM_SMCR_ECE | TIM_SMCR_ETP);
 8004436:	697b      	ldr	r3, [r7, #20]
 8004438:	f423 437f 	bic.w	r3, r3, #65280	; 0xff00
 800443c:	617b      	str	r3, [r7, #20]

  /* Set the Prescaler, the Filter value and the Polarity */
  tmpsmcr |= (uint32_t)(TIM_ExtTRGPrescaler | (TIM_ExtTRGPolarity | (ExtTRGFilter << 8U)));
 800443e:	683b      	ldr	r3, [r7, #0]
 8004440:	021a      	lsls	r2, r3, #8
 8004442:	687b      	ldr	r3, [r7, #4]
 8004444:	431a      	orrs	r2, r3
 8004446:	68bb      	ldr	r3, [r7, #8]
 8004448:	4313      	orrs	r3, r2
 800444a:	697a      	ldr	r2, [r7, #20]
 800444c:	4313      	orrs	r3, r2
 800444e:	617b      	str	r3, [r7, #20]

  /* Write to TIMx SMCR */
  TIMx->SMCR = tmpsmcr;
 8004450:	68fb      	ldr	r3, [r7, #12]
 8004452:	697a      	ldr	r2, [r7, #20]
 8004454:	609a      	str	r2, [r3, #8]
}
 8004456:	bf00      	nop
 8004458:	371c      	adds	r7, #28
 800445a:	46bd      	mov	sp, r7
 800445c:	bc80      	pop	{r7}
 800445e:	4770      	bx	lr

08004460 <HAL_TIMEx_MasterConfigSynchronization>:
  *         mode.
  * @retval HAL status
  */
HAL_StatusTypeDef HAL_TIMEx_MasterConfigSynchronization(TIM_HandleTypeDef *htim,
                                                        TIM_MasterConfigTypeDef *sMasterConfig)
{
 8004460:	b480      	push	{r7}
 8004462:	b085      	sub	sp, #20
 8004464:	af00      	add	r7, sp, #0
 8004466:	6078      	str	r0, [r7, #4]
 8004468:	6039      	str	r1, [r7, #0]
  assert_param(IS_TIM_MASTER_INSTANCE(htim->Instance));
  assert_param(IS_TIM_TRGO_SOURCE(sMasterConfig->MasterOutputTrigger));
  assert_param(IS_TIM_MSM_STATE(sMasterConfig->MasterSlaveMode));

  /* Check input state */
  __HAL_LOCK(htim);
 800446a:	687b      	ldr	r3, [r7, #4]
 800446c:	f893 3038 	ldrb.w	r3, [r3, #56]	; 0x38
 8004470:	2b01      	cmp	r3, #1
 8004472:	d101      	bne.n	8004478 <HAL_TIMEx_MasterConfigSynchronization+0x18>
 8004474:	2302      	movs	r3, #2
 8004476:	e046      	b.n	8004506 <HAL_TIMEx_MasterConfigSynchronization+0xa6>
 8004478:	687b      	ldr	r3, [r7, #4]
 800447a:	2201      	movs	r2, #1
 800447c:	f883 2038 	strb.w	r2, [r3, #56]	; 0x38

  /* Change the handler state */
  htim->State = HAL_TIM_STATE_BUSY;
 8004480:	687b      	ldr	r3, [r7, #4]
 8004482:	2202      	movs	r2, #2
 8004484:	f883 2039 	strb.w	r2, [r3, #57]	; 0x39

  /* Get the TIMx CR2 register value */
  tmpcr2 = htim->Instance->CR2;
 8004488:	687b      	ldr	r3, [r7, #4]
 800448a:	681b      	ldr	r3, [r3, #0]
 800448c:	685b      	ldr	r3, [r3, #4]
 800448e:	60fb      	str	r3, [r7, #12]

  /* Get the TIMx SMCR register value */
  tmpsmcr = htim->Instance->SMCR;
 8004490:	687b      	ldr	r3, [r7, #4]
 8004492:	681b      	ldr	r3, [r3, #0]
 8004494:	689b      	ldr	r3, [r3, #8]
 8004496:	60bb      	str	r3, [r7, #8]

  /* Reset the MMS Bits */
  tmpcr2 &= ~TIM_CR2_MMS;
 8004498:	68fb      	ldr	r3, [r7, #12]
 800449a:	f023 0370 	bic.w	r3, r3, #112	; 0x70
 800449e:	60fb      	str	r3, [r7, #12]
  /* Select the TRGO source */
  tmpcr2 |=  sMasterConfig->MasterOutputTrigger;
 80044a0:	683b      	ldr	r3, [r7, #0]
 80044a2:	681b      	ldr	r3, [r3, #0]
 80044a4:	68fa      	ldr	r2, [r7, #12]
 80044a6:	4313      	orrs	r3, r2
 80044a8:	60fb      	str	r3, [r7, #12]

  /* Update TIMx CR2 */
  htim->Instance->CR2 = tmpcr2;
 80044aa:	687b      	ldr	r3, [r7, #4]
 80044ac:	681b      	ldr	r3, [r3, #0]
 80044ae:	68fa      	ldr	r2, [r7, #12]
 80044b0:	605a      	str	r2, [r3, #4]

  if (IS_TIM_SLAVE_INSTANCE(htim->Instance))
 80044b2:	687b      	ldr	r3, [r7, #4]
 80044b4:	681b      	ldr	r3, [r3, #0]
 80044b6:	f1b3 4f80 	cmp.w	r3, #1073741824	; 0x40000000
 80044ba:	d00e      	beq.n	80044da <HAL_TIMEx_MasterConfigSynchronization+0x7a>
 80044bc:	687b      	ldr	r3, [r7, #4]
 80044be:	681b      	ldr	r3, [r3, #0]
 80044c0:	4a13      	ldr	r2, [pc, #76]	; (8004510 <HAL_TIMEx_MasterConfigSynchronization+0xb0>)
 80044c2:	4293      	cmp	r3, r2
 80044c4:	d009      	beq.n	80044da <HAL_TIMEx_MasterConfigSynchronization+0x7a>
 80044c6:	687b      	ldr	r3, [r7, #4]
 80044c8:	681b      	ldr	r3, [r3, #0]
 80044ca:	4a12      	ldr	r2, [pc, #72]	; (8004514 <HAL_TIMEx_MasterConfigSynchronization+0xb4>)
 80044cc:	4293      	cmp	r3, r2
 80044ce:	d004      	beq.n	80044da <HAL_TIMEx_MasterConfigSynchronization+0x7a>
 80044d0:	687b      	ldr	r3, [r7, #4]
 80044d2:	681b      	ldr	r3, [r3, #0]
 80044d4:	4a10      	ldr	r2, [pc, #64]	; (8004518 <HAL_TIMEx_MasterConfigSynchronization+0xb8>)
 80044d6:	4293      	cmp	r3, r2
 80044d8:	d10c      	bne.n	80044f4 <HAL_TIMEx_MasterConfigSynchronization+0x94>
  {
    /* Reset the MSM Bit */
    tmpsmcr &= ~TIM_SMCR_MSM;
 80044da:	68bb      	ldr	r3, [r7, #8]
 80044dc:	f023 0380 	bic.w	r3, r3, #128	; 0x80
 80044e0:	60bb      	str	r3, [r7, #8]
    /* Set master mode */
    tmpsmcr |= sMasterConfig->MasterSlaveMode;
 80044e2:	683b      	ldr	r3, [r7, #0]
 80044e4:	685b      	ldr	r3, [r3, #4]
 80044e6:	68ba      	ldr	r2, [r7, #8]
 80044e8:	4313      	orrs	r3, r2
 80044ea:	60bb      	str	r3, [r7, #8]

    /* Update TIMx SMCR */
    htim->Instance->SMCR = tmpsmcr;
 80044ec:	687b      	ldr	r3, [r7, #4]
 80044ee:	681b      	ldr	r3, [r3, #0]
 80044f0:	68ba      	ldr	r2, [r7, #8]
 80044f2:	609a      	str	r2, [r3, #8]
  }

  /* Change the htim state */
  htim->State = HAL_TIM_STATE_READY;
 80044f4:	687b      	ldr	r3, [r7, #4]
 80044f6:	2201      	movs	r2, #1
 80044f8:	f883 2039 	strb.w	r2, [r3, #57]	; 0x39

  __HAL_UNLOCK(htim);
 80044fc:	687b      	ldr	r3, [r7, #4]
 80044fe:	2200      	movs	r2, #0
 8004500:	f883 2038 	strb.w	r2, [r3, #56]	; 0x38

  return HAL_OK;
 8004504:	2300      	movs	r3, #0
}
 8004506:	4618      	mov	r0, r3
 8004508:	3714      	adds	r7, #20
 800450a:	46bd      	mov	sp, r7
 800450c:	bc80      	pop	{r7}
 800450e:	4770      	bx	lr
 8004510:	40000400 	.word	0x40000400
 8004514:	40000800 	.word	0x40000800
 8004518:	40010800 	.word	0x40010800

0800451c <__errno>:
 800451c:	4b01      	ldr	r3, [pc, #4]	; (8004524 <__errno+0x8>)
 800451e:	6818      	ldr	r0, [r3, #0]
 8004520:	4770      	bx	lr
 8004522:	bf00      	nop
 8004524:	20000014 	.word	0x20000014

08004528 <__libc_init_array>:
 8004528:	b570      	push	{r4, r5, r6, lr}
 800452a:	2600      	movs	r6, #0
 800452c:	4d0c      	ldr	r5, [pc, #48]	; (8004560 <__libc_init_array+0x38>)
 800452e:	4c0d      	ldr	r4, [pc, #52]	; (8004564 <__libc_init_array+0x3c>)
 8004530:	1b64      	subs	r4, r4, r5
 8004532:	10a4      	asrs	r4, r4, #2
 8004534:	42a6      	cmp	r6, r4
 8004536:	d109      	bne.n	800454c <__libc_init_array+0x24>
 8004538:	f001 f860 	bl	80055fc <_init>
 800453c:	2600      	movs	r6, #0
 800453e:	4d0a      	ldr	r5, [pc, #40]	; (8004568 <__libc_init_array+0x40>)
 8004540:	4c0a      	ldr	r4, [pc, #40]	; (800456c <__libc_init_array+0x44>)
 8004542:	1b64      	subs	r4, r4, r5
 8004544:	10a4      	asrs	r4, r4, #2
 8004546:	42a6      	cmp	r6, r4
 8004548:	d105      	bne.n	8004556 <__libc_init_array+0x2e>
 800454a:	bd70      	pop	{r4, r5, r6, pc}
 800454c:	f855 3b04 	ldr.w	r3, [r5], #4
 8004550:	4798      	blx	r3
 8004552:	3601      	adds	r6, #1
 8004554:	e7ee      	b.n	8004534 <__libc_init_array+0xc>
 8004556:	f855 3b04 	ldr.w	r3, [r5], #4
 800455a:	4798      	blx	r3
 800455c:	3601      	adds	r6, #1
 800455e:	e7f2      	b.n	8004546 <__libc_init_array+0x1e>
 8004560:	080057fc 	.word	0x080057fc
 8004564:	080057fc 	.word	0x080057fc
 8004568:	080057fc 	.word	0x080057fc
 800456c:	08005800 	.word	0x08005800

08004570 <memset>:
 8004570:	4603      	mov	r3, r0
 8004572:	4402      	add	r2, r0
 8004574:	4293      	cmp	r3, r2
 8004576:	d100      	bne.n	800457a <memset+0xa>
 8004578:	4770      	bx	lr
 800457a:	f803 1b01 	strb.w	r1, [r3], #1
 800457e:	e7f9      	b.n	8004574 <memset+0x4>

08004580 <rand>:
 8004580:	4b16      	ldr	r3, [pc, #88]	; (80045dc <rand+0x5c>)
 8004582:	b510      	push	{r4, lr}
 8004584:	681c      	ldr	r4, [r3, #0]
 8004586:	6ba3      	ldr	r3, [r4, #56]	; 0x38
 8004588:	b9b3      	cbnz	r3, 80045b8 <rand+0x38>
 800458a:	2018      	movs	r0, #24
 800458c:	f000 f866 	bl	800465c <malloc>
 8004590:	4602      	mov	r2, r0
 8004592:	63a0      	str	r0, [r4, #56]	; 0x38
 8004594:	b920      	cbnz	r0, 80045a0 <rand+0x20>
 8004596:	214e      	movs	r1, #78	; 0x4e
 8004598:	4b11      	ldr	r3, [pc, #68]	; (80045e0 <rand+0x60>)
 800459a:	4812      	ldr	r0, [pc, #72]	; (80045e4 <rand+0x64>)
 800459c:	f000 f82e 	bl	80045fc <__assert_func>
 80045a0:	4911      	ldr	r1, [pc, #68]	; (80045e8 <rand+0x68>)
 80045a2:	4b12      	ldr	r3, [pc, #72]	; (80045ec <rand+0x6c>)
 80045a4:	e9c0 1300 	strd	r1, r3, [r0]
 80045a8:	4b11      	ldr	r3, [pc, #68]	; (80045f0 <rand+0x70>)
 80045aa:	2100      	movs	r1, #0
 80045ac:	6083      	str	r3, [r0, #8]
 80045ae:	230b      	movs	r3, #11
 80045b0:	8183      	strh	r3, [r0, #12]
 80045b2:	2001      	movs	r0, #1
 80045b4:	e9c2 0104 	strd	r0, r1, [r2, #16]
 80045b8:	6ba4      	ldr	r4, [r4, #56]	; 0x38
 80045ba:	4a0e      	ldr	r2, [pc, #56]	; (80045f4 <rand+0x74>)
 80045bc:	6920      	ldr	r0, [r4, #16]
 80045be:	6963      	ldr	r3, [r4, #20]
 80045c0:	4342      	muls	r2, r0
 80045c2:	490d      	ldr	r1, [pc, #52]	; (80045f8 <rand+0x78>)
 80045c4:	fb01 2203 	mla	r2, r1, r3, r2
 80045c8:	fba0 0101 	umull	r0, r1, r0, r1
 80045cc:	1c43      	adds	r3, r0, #1
 80045ce:	eb42 0001 	adc.w	r0, r2, r1
 80045d2:	e9c4 3004 	strd	r3, r0, [r4, #16]
 80045d6:	f020 4000 	bic.w	r0, r0, #2147483648	; 0x80000000
 80045da:	bd10      	pop	{r4, pc}
 80045dc:	20000014 	.word	0x20000014
 80045e0:	080056b0 	.word	0x080056b0
 80045e4:	080056c7 	.word	0x080056c7
 80045e8:	abcd330e 	.word	0xabcd330e
 80045ec:	e66d1234 	.word	0xe66d1234
 80045f0:	0005deec 	.word	0x0005deec
 80045f4:	5851f42d 	.word	0x5851f42d
 80045f8:	4c957f2d 	.word	0x4c957f2d

080045fc <__assert_func>:
 80045fc:	b51f      	push	{r0, r1, r2, r3, r4, lr}
 80045fe:	4614      	mov	r4, r2
 8004600:	461a      	mov	r2, r3
 8004602:	4b09      	ldr	r3, [pc, #36]	; (8004628 <__assert_func+0x2c>)
 8004604:	4605      	mov	r5, r0
 8004606:	681b      	ldr	r3, [r3, #0]
 8004608:	68d8      	ldr	r0, [r3, #12]
 800460a:	b14c      	cbz	r4, 8004620 <__assert_func+0x24>
 800460c:	4b07      	ldr	r3, [pc, #28]	; (800462c <__assert_func+0x30>)
 800460e:	e9cd 3401 	strd	r3, r4, [sp, #4]
 8004612:	9100      	str	r1, [sp, #0]
 8004614:	462b      	mov	r3, r5
 8004616:	4906      	ldr	r1, [pc, #24]	; (8004630 <__assert_func+0x34>)
 8004618:	f000 f80e 	bl	8004638 <fiprintf>
 800461c:	f000 fcc0 	bl	8004fa0 <abort>
 8004620:	4b04      	ldr	r3, [pc, #16]	; (8004634 <__assert_func+0x38>)
 8004622:	461c      	mov	r4, r3
 8004624:	e7f3      	b.n	800460e <__assert_func+0x12>
 8004626:	bf00      	nop
 8004628:	20000014 	.word	0x20000014
 800462c:	08005722 	.word	0x08005722
 8004630:	0800572f 	.word	0x0800572f
 8004634:	0800575d 	.word	0x0800575d

08004638 <fiprintf>:
 8004638:	b40e      	push	{r1, r2, r3}
 800463a:	b503      	push	{r0, r1, lr}
 800463c:	4601      	mov	r1, r0
 800463e:	ab03      	add	r3, sp, #12
 8004640:	4805      	ldr	r0, [pc, #20]	; (8004658 <fiprintf+0x20>)
 8004642:	f853 2b04 	ldr.w	r2, [r3], #4
 8004646:	6800      	ldr	r0, [r0, #0]
 8004648:	9301      	str	r3, [sp, #4]
 800464a:	f000 f913 	bl	8004874 <_vfiprintf_r>
 800464e:	b002      	add	sp, #8
 8004650:	f85d eb04 	ldr.w	lr, [sp], #4
 8004654:	b003      	add	sp, #12
 8004656:	4770      	bx	lr
 8004658:	20000014 	.word	0x20000014

0800465c <malloc>:
 800465c:	4b02      	ldr	r3, [pc, #8]	; (8004668 <malloc+0xc>)
 800465e:	4601      	mov	r1, r0
 8004660:	6818      	ldr	r0, [r3, #0]
 8004662:	f000 b86b 	b.w	800473c <_malloc_r>
 8004666:	bf00      	nop
 8004668:	20000014 	.word	0x20000014

0800466c <_free_r>:
 800466c:	b538      	push	{r3, r4, r5, lr}
 800466e:	4605      	mov	r5, r0
 8004670:	2900      	cmp	r1, #0
 8004672:	d040      	beq.n	80046f6 <_free_r+0x8a>
 8004674:	f851 3c04 	ldr.w	r3, [r1, #-4]
 8004678:	1f0c      	subs	r4, r1, #4
 800467a:	2b00      	cmp	r3, #0
 800467c:	bfb8      	it	lt
 800467e:	18e4      	addlt	r4, r4, r3
 8004680:	f000 fec0 	bl	8005404 <__malloc_lock>
 8004684:	4a1c      	ldr	r2, [pc, #112]	; (80046f8 <_free_r+0x8c>)
 8004686:	6813      	ldr	r3, [r2, #0]
 8004688:	b933      	cbnz	r3, 8004698 <_free_r+0x2c>
 800468a:	6063      	str	r3, [r4, #4]
 800468c:	6014      	str	r4, [r2, #0]
 800468e:	4628      	mov	r0, r5
 8004690:	e8bd 4038 	ldmia.w	sp!, {r3, r4, r5, lr}
 8004694:	f000 bebc 	b.w	8005410 <__malloc_unlock>
 8004698:	42a3      	cmp	r3, r4
 800469a:	d908      	bls.n	80046ae <_free_r+0x42>
 800469c:	6820      	ldr	r0, [r4, #0]
 800469e:	1821      	adds	r1, r4, r0
 80046a0:	428b      	cmp	r3, r1
 80046a2:	bf01      	itttt	eq
 80046a4:	6819      	ldreq	r1, [r3, #0]
 80046a6:	685b      	ldreq	r3, [r3, #4]
 80046a8:	1809      	addeq	r1, r1, r0
 80046aa:	6021      	streq	r1, [r4, #0]
 80046ac:	e7ed      	b.n	800468a <_free_r+0x1e>
 80046ae:	461a      	mov	r2, r3
 80046b0:	685b      	ldr	r3, [r3, #4]
 80046b2:	b10b      	cbz	r3, 80046b8 <_free_r+0x4c>
 80046b4:	42a3      	cmp	r3, r4
 80046b6:	d9fa      	bls.n	80046ae <_free_r+0x42>
 80046b8:	6811      	ldr	r1, [r2, #0]
 80046ba:	1850      	adds	r0, r2, r1
 80046bc:	42a0      	cmp	r0, r4
 80046be:	d10b      	bne.n	80046d8 <_free_r+0x6c>
 80046c0:	6820      	ldr	r0, [r4, #0]
 80046c2:	4401      	add	r1, r0
 80046c4:	1850      	adds	r0, r2, r1
 80046c6:	4283      	cmp	r3, r0
 80046c8:	6011      	str	r1, [r2, #0]
 80046ca:	d1e0      	bne.n	800468e <_free_r+0x22>
 80046cc:	6818      	ldr	r0, [r3, #0]
 80046ce:	685b      	ldr	r3, [r3, #4]
 80046d0:	4401      	add	r1, r0
 80046d2:	6011      	str	r1, [r2, #0]
 80046d4:	6053      	str	r3, [r2, #4]
 80046d6:	e7da      	b.n	800468e <_free_r+0x22>
 80046d8:	d902      	bls.n	80046e0 <_free_r+0x74>
 80046da:	230c      	movs	r3, #12
 80046dc:	602b      	str	r3, [r5, #0]
 80046de:	e7d6      	b.n	800468e <_free_r+0x22>
 80046e0:	6820      	ldr	r0, [r4, #0]
 80046e2:	1821      	adds	r1, r4, r0
 80046e4:	428b      	cmp	r3, r1
 80046e6:	bf01      	itttt	eq
 80046e8:	6819      	ldreq	r1, [r3, #0]
 80046ea:	685b      	ldreq	r3, [r3, #4]
 80046ec:	1809      	addeq	r1, r1, r0
 80046ee:	6021      	streq	r1, [r4, #0]
 80046f0:	6063      	str	r3, [r4, #4]
 80046f2:	6054      	str	r4, [r2, #4]
 80046f4:	e7cb      	b.n	800468e <_free_r+0x22>
 80046f6:	bd38      	pop	{r3, r4, r5, pc}
 80046f8:	20000260 	.word	0x20000260

080046fc <sbrk_aligned>:
 80046fc:	b570      	push	{r4, r5, r6, lr}
 80046fe:	4e0e      	ldr	r6, [pc, #56]	; (8004738 <sbrk_aligned+0x3c>)
 8004700:	460c      	mov	r4, r1
 8004702:	6831      	ldr	r1, [r6, #0]
 8004704:	4605      	mov	r5, r0
 8004706:	b911      	cbnz	r1, 800470e <sbrk_aligned+0x12>
 8004708:	f000 fb7a 	bl	8004e00 <_sbrk_r>
 800470c:	6030      	str	r0, [r6, #0]
 800470e:	4621      	mov	r1, r4
 8004710:	4628      	mov	r0, r5
 8004712:	f000 fb75 	bl	8004e00 <_sbrk_r>
 8004716:	1c43      	adds	r3, r0, #1
 8004718:	d00a      	beq.n	8004730 <sbrk_aligned+0x34>
 800471a:	1cc4      	adds	r4, r0, #3
 800471c:	f024 0403 	bic.w	r4, r4, #3
 8004720:	42a0      	cmp	r0, r4
 8004722:	d007      	beq.n	8004734 <sbrk_aligned+0x38>
 8004724:	1a21      	subs	r1, r4, r0
 8004726:	4628      	mov	r0, r5
 8004728:	f000 fb6a 	bl	8004e00 <_sbrk_r>
 800472c:	3001      	adds	r0, #1
 800472e:	d101      	bne.n	8004734 <sbrk_aligned+0x38>
 8004730:	f04f 34ff 	mov.w	r4, #4294967295
 8004734:	4620      	mov	r0, r4
 8004736:	bd70      	pop	{r4, r5, r6, pc}
 8004738:	20000264 	.word	0x20000264

0800473c <_malloc_r>:
 800473c:	e92d 41f0 	stmdb	sp!, {r4, r5, r6, r7, r8, lr}
 8004740:	1ccd      	adds	r5, r1, #3
 8004742:	f025 0503 	bic.w	r5, r5, #3
 8004746:	3508      	adds	r5, #8
 8004748:	2d0c      	cmp	r5, #12
 800474a:	bf38      	it	cc
 800474c:	250c      	movcc	r5, #12
 800474e:	2d00      	cmp	r5, #0
 8004750:	4607      	mov	r7, r0
 8004752:	db01      	blt.n	8004758 <_malloc_r+0x1c>
 8004754:	42a9      	cmp	r1, r5
 8004756:	d905      	bls.n	8004764 <_malloc_r+0x28>
 8004758:	230c      	movs	r3, #12
 800475a:	2600      	movs	r6, #0
 800475c:	603b      	str	r3, [r7, #0]
 800475e:	4630      	mov	r0, r6
 8004760:	e8bd 81f0 	ldmia.w	sp!, {r4, r5, r6, r7, r8, pc}
 8004764:	4e2e      	ldr	r6, [pc, #184]	; (8004820 <_malloc_r+0xe4>)
 8004766:	f000 fe4d 	bl	8005404 <__malloc_lock>
 800476a:	6833      	ldr	r3, [r6, #0]
 800476c:	461c      	mov	r4, r3
 800476e:	bb34      	cbnz	r4, 80047be <_malloc_r+0x82>
 8004770:	4629      	mov	r1, r5
 8004772:	4638      	mov	r0, r7
 8004774:	f7ff ffc2 	bl	80046fc <sbrk_aligned>
 8004778:	1c43      	adds	r3, r0, #1
 800477a:	4604      	mov	r4, r0
 800477c:	d14d      	bne.n	800481a <_malloc_r+0xde>
 800477e:	6834      	ldr	r4, [r6, #0]
 8004780:	4626      	mov	r6, r4
 8004782:	2e00      	cmp	r6, #0
 8004784:	d140      	bne.n	8004808 <_malloc_r+0xcc>
 8004786:	6823      	ldr	r3, [r4, #0]
 8004788:	4631      	mov	r1, r6
 800478a:	4638      	mov	r0, r7
 800478c:	eb04 0803 	add.w	r8, r4, r3
 8004790:	f000 fb36 	bl	8004e00 <_sbrk_r>
 8004794:	4580      	cmp	r8, r0
 8004796:	d13a      	bne.n	800480e <_malloc_r+0xd2>
 8004798:	6821      	ldr	r1, [r4, #0]
 800479a:	3503      	adds	r5, #3
 800479c:	1a6d      	subs	r5, r5, r1
 800479e:	f025 0503 	bic.w	r5, r5, #3
 80047a2:	3508      	adds	r5, #8
 80047a4:	2d0c      	cmp	r5, #12
 80047a6:	bf38      	it	cc
 80047a8:	250c      	movcc	r5, #12
 80047aa:	4638      	mov	r0, r7
 80047ac:	4629      	mov	r1, r5
 80047ae:	f7ff ffa5 	bl	80046fc <sbrk_aligned>
 80047b2:	3001      	adds	r0, #1
 80047b4:	d02b      	beq.n	800480e <_malloc_r+0xd2>
 80047b6:	6823      	ldr	r3, [r4, #0]
 80047b8:	442b      	add	r3, r5
 80047ba:	6023      	str	r3, [r4, #0]
 80047bc:	e00e      	b.n	80047dc <_malloc_r+0xa0>
 80047be:	6822      	ldr	r2, [r4, #0]
 80047c0:	1b52      	subs	r2, r2, r5
 80047c2:	d41e      	bmi.n	8004802 <_malloc_r+0xc6>
 80047c4:	2a0b      	cmp	r2, #11
 80047c6:	d916      	bls.n	80047f6 <_malloc_r+0xba>
 80047c8:	1961      	adds	r1, r4, r5
 80047ca:	42a3      	cmp	r3, r4
 80047cc:	6025      	str	r5, [r4, #0]
 80047ce:	bf18      	it	ne
 80047d0:	6059      	strne	r1, [r3, #4]
 80047d2:	6863      	ldr	r3, [r4, #4]
 80047d4:	bf08      	it	eq
 80047d6:	6031      	streq	r1, [r6, #0]
 80047d8:	5162      	str	r2, [r4, r5]
 80047da:	604b      	str	r3, [r1, #4]
 80047dc:	4638      	mov	r0, r7
 80047de:	f104 060b 	add.w	r6, r4, #11
 80047e2:	f000 fe15 	bl	8005410 <__malloc_unlock>
 80047e6:	f026 0607 	bic.w	r6, r6, #7
 80047ea:	1d23      	adds	r3, r4, #4
 80047ec:	1af2      	subs	r2, r6, r3
 80047ee:	d0b6      	beq.n	800475e <_malloc_r+0x22>
 80047f0:	1b9b      	subs	r3, r3, r6
 80047f2:	50a3      	str	r3, [r4, r2]
 80047f4:	e7b3      	b.n	800475e <_malloc_r+0x22>
 80047f6:	6862      	ldr	r2, [r4, #4]
 80047f8:	42a3      	cmp	r3, r4
 80047fa:	bf0c      	ite	eq
 80047fc:	6032      	streq	r2, [r6, #0]
 80047fe:	605a      	strne	r2, [r3, #4]
 8004800:	e7ec      	b.n	80047dc <_malloc_r+0xa0>
 8004802:	4623      	mov	r3, r4
 8004804:	6864      	ldr	r4, [r4, #4]
 8004806:	e7b2      	b.n	800476e <_malloc_r+0x32>
 8004808:	4634      	mov	r4, r6
 800480a:	6876      	ldr	r6, [r6, #4]
 800480c:	e7b9      	b.n	8004782 <_malloc_r+0x46>
 800480e:	230c      	movs	r3, #12
 8004810:	4638      	mov	r0, r7
 8004812:	603b      	str	r3, [r7, #0]
 8004814:	f000 fdfc 	bl	8005410 <__malloc_unlock>
 8004818:	e7a1      	b.n	800475e <_malloc_r+0x22>
 800481a:	6025      	str	r5, [r4, #0]
 800481c:	e7de      	b.n	80047dc <_malloc_r+0xa0>
 800481e:	bf00      	nop
 8004820:	20000260 	.word	0x20000260

08004824 <__sfputc_r>:
 8004824:	6893      	ldr	r3, [r2, #8]
 8004826:	b410      	push	{r4}
 8004828:	3b01      	subs	r3, #1
 800482a:	2b00      	cmp	r3, #0
 800482c:	6093      	str	r3, [r2, #8]
 800482e:	da07      	bge.n	8004840 <__sfputc_r+0x1c>
 8004830:	6994      	ldr	r4, [r2, #24]
 8004832:	42a3      	cmp	r3, r4
 8004834:	db01      	blt.n	800483a <__sfputc_r+0x16>
 8004836:	290a      	cmp	r1, #10
 8004838:	d102      	bne.n	8004840 <__sfputc_r+0x1c>
 800483a:	bc10      	pop	{r4}
 800483c:	f000 baf0 	b.w	8004e20 <__swbuf_r>
 8004840:	6813      	ldr	r3, [r2, #0]
 8004842:	1c58      	adds	r0, r3, #1
 8004844:	6010      	str	r0, [r2, #0]
 8004846:	7019      	strb	r1, [r3, #0]
 8004848:	4608      	mov	r0, r1
 800484a:	bc10      	pop	{r4}
 800484c:	4770      	bx	lr

0800484e <__sfputs_r>:
 800484e:	b5f8      	push	{r3, r4, r5, r6, r7, lr}
 8004850:	4606      	mov	r6, r0
 8004852:	460f      	mov	r7, r1
 8004854:	4614      	mov	r4, r2
 8004856:	18d5      	adds	r5, r2, r3
 8004858:	42ac      	cmp	r4, r5
 800485a:	d101      	bne.n	8004860 <__sfputs_r+0x12>
 800485c:	2000      	movs	r0, #0
 800485e:	e007      	b.n	8004870 <__sfputs_r+0x22>
 8004860:	463a      	mov	r2, r7
 8004862:	4630      	mov	r0, r6
 8004864:	f814 1b01 	ldrb.w	r1, [r4], #1
 8004868:	f7ff ffdc 	bl	8004824 <__sfputc_r>
 800486c:	1c43      	adds	r3, r0, #1
 800486e:	d1f3      	bne.n	8004858 <__sfputs_r+0xa>
 8004870:	bdf8      	pop	{r3, r4, r5, r6, r7, pc}
	...

08004874 <_vfiprintf_r>:
 8004874:	e92d 4ff0 	stmdb	sp!, {r4, r5, r6, r7, r8, r9, sl, fp, lr}
 8004878:	460d      	mov	r5, r1
 800487a:	4614      	mov	r4, r2
 800487c:	4698      	mov	r8, r3
 800487e:	4606      	mov	r6, r0
 8004880:	b09d      	sub	sp, #116	; 0x74
 8004882:	b118      	cbz	r0, 800488c <_vfiprintf_r+0x18>
 8004884:	6983      	ldr	r3, [r0, #24]
 8004886:	b90b      	cbnz	r3, 800488c <_vfiprintf_r+0x18>
 8004888:	f000 fca8 	bl	80051dc <__sinit>
 800488c:	4b89      	ldr	r3, [pc, #548]	; (8004ab4 <_vfiprintf_r+0x240>)
 800488e:	429d      	cmp	r5, r3
 8004890:	d11b      	bne.n	80048ca <_vfiprintf_r+0x56>
 8004892:	6875      	ldr	r5, [r6, #4]
 8004894:	6e6b      	ldr	r3, [r5, #100]	; 0x64
 8004896:	07d9      	lsls	r1, r3, #31
 8004898:	d405      	bmi.n	80048a6 <_vfiprintf_r+0x32>
 800489a:	89ab      	ldrh	r3, [r5, #12]
 800489c:	059a      	lsls	r2, r3, #22
 800489e:	d402      	bmi.n	80048a6 <_vfiprintf_r+0x32>
 80048a0:	6da8      	ldr	r0, [r5, #88]	; 0x58
 80048a2:	f000 fd39 	bl	8005318 <__retarget_lock_acquire_recursive>
 80048a6:	89ab      	ldrh	r3, [r5, #12]
 80048a8:	071b      	lsls	r3, r3, #28
 80048aa:	d501      	bpl.n	80048b0 <_vfiprintf_r+0x3c>
 80048ac:	692b      	ldr	r3, [r5, #16]
 80048ae:	b9eb      	cbnz	r3, 80048ec <_vfiprintf_r+0x78>
 80048b0:	4629      	mov	r1, r5
 80048b2:	4630      	mov	r0, r6
 80048b4:	f000 fb06 	bl	8004ec4 <__swsetup_r>
 80048b8:	b1c0      	cbz	r0, 80048ec <_vfiprintf_r+0x78>
 80048ba:	6e6b      	ldr	r3, [r5, #100]	; 0x64
 80048bc:	07dc      	lsls	r4, r3, #31
 80048be:	d50e      	bpl.n	80048de <_vfiprintf_r+0x6a>
 80048c0:	f04f 30ff 	mov.w	r0, #4294967295
 80048c4:	b01d      	add	sp, #116	; 0x74
 80048c6:	e8bd 8ff0 	ldmia.w	sp!, {r4, r5, r6, r7, r8, r9, sl, fp, pc}
 80048ca:	4b7b      	ldr	r3, [pc, #492]	; (8004ab8 <_vfiprintf_r+0x244>)
 80048cc:	429d      	cmp	r5, r3
 80048ce:	d101      	bne.n	80048d4 <_vfiprintf_r+0x60>
 80048d0:	68b5      	ldr	r5, [r6, #8]
 80048d2:	e7df      	b.n	8004894 <_vfiprintf_r+0x20>
 80048d4:	4b79      	ldr	r3, [pc, #484]	; (8004abc <_vfiprintf_r+0x248>)
 80048d6:	429d      	cmp	r5, r3
 80048d8:	bf08      	it	eq
 80048da:	68f5      	ldreq	r5, [r6, #12]
 80048dc:	e7da      	b.n	8004894 <_vfiprintf_r+0x20>
 80048de:	89ab      	ldrh	r3, [r5, #12]
 80048e0:	0598      	lsls	r0, r3, #22
 80048e2:	d4ed      	bmi.n	80048c0 <_vfiprintf_r+0x4c>
 80048e4:	6da8      	ldr	r0, [r5, #88]	; 0x58
 80048e6:	f000 fd18 	bl	800531a <__retarget_lock_release_recursive>
 80048ea:	e7e9      	b.n	80048c0 <_vfiprintf_r+0x4c>
 80048ec:	2300      	movs	r3, #0
 80048ee:	9309      	str	r3, [sp, #36]	; 0x24
 80048f0:	2320      	movs	r3, #32
 80048f2:	f88d 3029 	strb.w	r3, [sp, #41]	; 0x29
 80048f6:	2330      	movs	r3, #48	; 0x30
 80048f8:	f04f 0901 	mov.w	r9, #1
 80048fc:	f8cd 800c 	str.w	r8, [sp, #12]
 8004900:	f8df 81bc 	ldr.w	r8, [pc, #444]	; 8004ac0 <_vfiprintf_r+0x24c>
 8004904:	f88d 302a 	strb.w	r3, [sp, #42]	; 0x2a
 8004908:	4623      	mov	r3, r4
 800490a:	469a      	mov	sl, r3
 800490c:	f813 2b01 	ldrb.w	r2, [r3], #1
 8004910:	b10a      	cbz	r2, 8004916 <_vfiprintf_r+0xa2>
 8004912:	2a25      	cmp	r2, #37	; 0x25
 8004914:	d1f9      	bne.n	800490a <_vfiprintf_r+0x96>
 8004916:	ebba 0b04 	subs.w	fp, sl, r4
 800491a:	d00b      	beq.n	8004934 <_vfiprintf_r+0xc0>
 800491c:	465b      	mov	r3, fp
 800491e:	4622      	mov	r2, r4
 8004920:	4629      	mov	r1, r5
 8004922:	4630      	mov	r0, r6
 8004924:	f7ff ff93 	bl	800484e <__sfputs_r>
 8004928:	3001      	adds	r0, #1
 800492a:	f000 80aa 	beq.w	8004a82 <_vfiprintf_r+0x20e>
 800492e:	9a09      	ldr	r2, [sp, #36]	; 0x24
 8004930:	445a      	add	r2, fp
 8004932:	9209      	str	r2, [sp, #36]	; 0x24
 8004934:	f89a 3000 	ldrb.w	r3, [sl]
 8004938:	2b00      	cmp	r3, #0
 800493a:	f000 80a2 	beq.w	8004a82 <_vfiprintf_r+0x20e>
 800493e:	2300      	movs	r3, #0
 8004940:	f04f 32ff 	mov.w	r2, #4294967295
 8004944:	e9cd 2305 	strd	r2, r3, [sp, #20]
 8004948:	f10a 0a01 	add.w	sl, sl, #1
 800494c:	9304      	str	r3, [sp, #16]
 800494e:	9307      	str	r3, [sp, #28]
 8004950:	f88d 3053 	strb.w	r3, [sp, #83]	; 0x53
 8004954:	931a      	str	r3, [sp, #104]	; 0x68
 8004956:	4654      	mov	r4, sl
 8004958:	2205      	movs	r2, #5
 800495a:	f814 1b01 	ldrb.w	r1, [r4], #1
 800495e:	4858      	ldr	r0, [pc, #352]	; (8004ac0 <_vfiprintf_r+0x24c>)
 8004960:	f000 fd42 	bl	80053e8 <memchr>
 8004964:	9a04      	ldr	r2, [sp, #16]
 8004966:	b9d8      	cbnz	r0, 80049a0 <_vfiprintf_r+0x12c>
 8004968:	06d1      	lsls	r1, r2, #27
 800496a:	bf44      	itt	mi
 800496c:	2320      	movmi	r3, #32
 800496e:	f88d 3053 	strbmi.w	r3, [sp, #83]	; 0x53
 8004972:	0713      	lsls	r3, r2, #28
 8004974:	bf44      	itt	mi
 8004976:	232b      	movmi	r3, #43	; 0x2b
 8004978:	f88d 3053 	strbmi.w	r3, [sp, #83]	; 0x53
 800497c:	f89a 3000 	ldrb.w	r3, [sl]
 8004980:	2b2a      	cmp	r3, #42	; 0x2a
 8004982:	d015      	beq.n	80049b0 <_vfiprintf_r+0x13c>
 8004984:	4654      	mov	r4, sl
 8004986:	2000      	movs	r0, #0
 8004988:	f04f 0c0a 	mov.w	ip, #10
 800498c:	9a07      	ldr	r2, [sp, #28]
 800498e:	4621      	mov	r1, r4
 8004990:	f811 3b01 	ldrb.w	r3, [r1], #1
 8004994:	3b30      	subs	r3, #48	; 0x30
 8004996:	2b09      	cmp	r3, #9
 8004998:	d94e      	bls.n	8004a38 <_vfiprintf_r+0x1c4>
 800499a:	b1b0      	cbz	r0, 80049ca <_vfiprintf_r+0x156>
 800499c:	9207      	str	r2, [sp, #28]
 800499e:	e014      	b.n	80049ca <_vfiprintf_r+0x156>
 80049a0:	eba0 0308 	sub.w	r3, r0, r8
 80049a4:	fa09 f303 	lsl.w	r3, r9, r3
 80049a8:	4313      	orrs	r3, r2
 80049aa:	46a2      	mov	sl, r4
 80049ac:	9304      	str	r3, [sp, #16]
 80049ae:	e7d2      	b.n	8004956 <_vfiprintf_r+0xe2>
 80049b0:	9b03      	ldr	r3, [sp, #12]
 80049b2:	1d19      	adds	r1, r3, #4
 80049b4:	681b      	ldr	r3, [r3, #0]
 80049b6:	9103      	str	r1, [sp, #12]
 80049b8:	2b00      	cmp	r3, #0
 80049ba:	bfbb      	ittet	lt
 80049bc:	425b      	neglt	r3, r3
 80049be:	f042 0202 	orrlt.w	r2, r2, #2
 80049c2:	9307      	strge	r3, [sp, #28]
 80049c4:	9307      	strlt	r3, [sp, #28]
 80049c6:	bfb8      	it	lt
 80049c8:	9204      	strlt	r2, [sp, #16]
 80049ca:	7823      	ldrb	r3, [r4, #0]
 80049cc:	2b2e      	cmp	r3, #46	; 0x2e
 80049ce:	d10c      	bne.n	80049ea <_vfiprintf_r+0x176>
 80049d0:	7863      	ldrb	r3, [r4, #1]
 80049d2:	2b2a      	cmp	r3, #42	; 0x2a
 80049d4:	d135      	bne.n	8004a42 <_vfiprintf_r+0x1ce>
 80049d6:	9b03      	ldr	r3, [sp, #12]
 80049d8:	3402      	adds	r4, #2
 80049da:	1d1a      	adds	r2, r3, #4
 80049dc:	681b      	ldr	r3, [r3, #0]
 80049de:	9203      	str	r2, [sp, #12]
 80049e0:	2b00      	cmp	r3, #0
 80049e2:	bfb8      	it	lt
 80049e4:	f04f 33ff 	movlt.w	r3, #4294967295
 80049e8:	9305      	str	r3, [sp, #20]
 80049ea:	f8df a0d8 	ldr.w	sl, [pc, #216]	; 8004ac4 <_vfiprintf_r+0x250>
 80049ee:	2203      	movs	r2, #3
 80049f0:	4650      	mov	r0, sl
 80049f2:	7821      	ldrb	r1, [r4, #0]
 80049f4:	f000 fcf8 	bl	80053e8 <memchr>
 80049f8:	b140      	cbz	r0, 8004a0c <_vfiprintf_r+0x198>
 80049fa:	2340      	movs	r3, #64	; 0x40
 80049fc:	eba0 000a 	sub.w	r0, r0, sl
 8004a00:	fa03 f000 	lsl.w	r0, r3, r0
 8004a04:	9b04      	ldr	r3, [sp, #16]
 8004a06:	3401      	adds	r4, #1
 8004a08:	4303      	orrs	r3, r0
 8004a0a:	9304      	str	r3, [sp, #16]
 8004a0c:	f814 1b01 	ldrb.w	r1, [r4], #1
 8004a10:	2206      	movs	r2, #6
 8004a12:	482d      	ldr	r0, [pc, #180]	; (8004ac8 <_vfiprintf_r+0x254>)
 8004a14:	f88d 1028 	strb.w	r1, [sp, #40]	; 0x28
 8004a18:	f000 fce6 	bl	80053e8 <memchr>
 8004a1c:	2800      	cmp	r0, #0
 8004a1e:	d03f      	beq.n	8004aa0 <_vfiprintf_r+0x22c>
 8004a20:	4b2a      	ldr	r3, [pc, #168]	; (8004acc <_vfiprintf_r+0x258>)
 8004a22:	bb1b      	cbnz	r3, 8004a6c <_vfiprintf_r+0x1f8>
 8004a24:	9b03      	ldr	r3, [sp, #12]
 8004a26:	3307      	adds	r3, #7
 8004a28:	f023 0307 	bic.w	r3, r3, #7
 8004a2c:	3308      	adds	r3, #8
 8004a2e:	9303      	str	r3, [sp, #12]
 8004a30:	9b09      	ldr	r3, [sp, #36]	; 0x24
 8004a32:	443b      	add	r3, r7
 8004a34:	9309      	str	r3, [sp, #36]	; 0x24
 8004a36:	e767      	b.n	8004908 <_vfiprintf_r+0x94>
 8004a38:	460c      	mov	r4, r1
 8004a3a:	2001      	movs	r0, #1
 8004a3c:	fb0c 3202 	mla	r2, ip, r2, r3
 8004a40:	e7a5      	b.n	800498e <_vfiprintf_r+0x11a>
 8004a42:	2300      	movs	r3, #0
 8004a44:	f04f 0c0a 	mov.w	ip, #10
 8004a48:	4619      	mov	r1, r3
 8004a4a:	3401      	adds	r4, #1
 8004a4c:	9305      	str	r3, [sp, #20]
 8004a4e:	4620      	mov	r0, r4
 8004a50:	f810 2b01 	ldrb.w	r2, [r0], #1
 8004a54:	3a30      	subs	r2, #48	; 0x30
 8004a56:	2a09      	cmp	r2, #9
 8004a58:	d903      	bls.n	8004a62 <_vfiprintf_r+0x1ee>
 8004a5a:	2b00      	cmp	r3, #0
 8004a5c:	d0c5      	beq.n	80049ea <_vfiprintf_r+0x176>
 8004a5e:	9105      	str	r1, [sp, #20]
 8004a60:	e7c3      	b.n	80049ea <_vfiprintf_r+0x176>
 8004a62:	4604      	mov	r4, r0
 8004a64:	2301      	movs	r3, #1
 8004a66:	fb0c 2101 	mla	r1, ip, r1, r2
 8004a6a:	e7f0      	b.n	8004a4e <_vfiprintf_r+0x1da>
 8004a6c:	ab03      	add	r3, sp, #12
 8004a6e:	9300      	str	r3, [sp, #0]
 8004a70:	462a      	mov	r2, r5
 8004a72:	4630      	mov	r0, r6
 8004a74:	4b16      	ldr	r3, [pc, #88]	; (8004ad0 <_vfiprintf_r+0x25c>)
 8004a76:	a904      	add	r1, sp, #16
 8004a78:	f3af 8000 	nop.w
 8004a7c:	4607      	mov	r7, r0
 8004a7e:	1c78      	adds	r0, r7, #1
 8004a80:	d1d6      	bne.n	8004a30 <_vfiprintf_r+0x1bc>
 8004a82:	6e6b      	ldr	r3, [r5, #100]	; 0x64
 8004a84:	07d9      	lsls	r1, r3, #31
 8004a86:	d405      	bmi.n	8004a94 <_vfiprintf_r+0x220>
 8004a88:	89ab      	ldrh	r3, [r5, #12]
 8004a8a:	059a      	lsls	r2, r3, #22
 8004a8c:	d402      	bmi.n	8004a94 <_vfiprintf_r+0x220>
 8004a8e:	6da8      	ldr	r0, [r5, #88]	; 0x58
 8004a90:	f000 fc43 	bl	800531a <__retarget_lock_release_recursive>
 8004a94:	89ab      	ldrh	r3, [r5, #12]
 8004a96:	065b      	lsls	r3, r3, #25
 8004a98:	f53f af12 	bmi.w	80048c0 <_vfiprintf_r+0x4c>
 8004a9c:	9809      	ldr	r0, [sp, #36]	; 0x24
 8004a9e:	e711      	b.n	80048c4 <_vfiprintf_r+0x50>
 8004aa0:	ab03      	add	r3, sp, #12
 8004aa2:	9300      	str	r3, [sp, #0]
 8004aa4:	462a      	mov	r2, r5
 8004aa6:	4630      	mov	r0, r6
 8004aa8:	4b09      	ldr	r3, [pc, #36]	; (8004ad0 <_vfiprintf_r+0x25c>)
 8004aaa:	a904      	add	r1, sp, #16
 8004aac:	f000 f882 	bl	8004bb4 <_printf_i>
 8004ab0:	e7e4      	b.n	8004a7c <_vfiprintf_r+0x208>
 8004ab2:	bf00      	nop
 8004ab4:	080057b4 	.word	0x080057b4
 8004ab8:	080057d4 	.word	0x080057d4
 8004abc:	08005794 	.word	0x08005794
 8004ac0:	0800575e 	.word	0x0800575e
 8004ac4:	08005764 	.word	0x08005764
 8004ac8:	08005768 	.word	0x08005768
 8004acc:	00000000 	.word	0x00000000
 8004ad0:	0800484f 	.word	0x0800484f

08004ad4 <_printf_common>:
 8004ad4:	e92d 47f0 	stmdb	sp!, {r4, r5, r6, r7, r8, r9, sl, lr}
 8004ad8:	4616      	mov	r6, r2
 8004ada:	4699      	mov	r9, r3
 8004adc:	688a      	ldr	r2, [r1, #8]
 8004ade:	690b      	ldr	r3, [r1, #16]
 8004ae0:	4607      	mov	r7, r0
 8004ae2:	4293      	cmp	r3, r2
 8004ae4:	bfb8      	it	lt
 8004ae6:	4613      	movlt	r3, r2
 8004ae8:	6033      	str	r3, [r6, #0]
 8004aea:	f891 2043 	ldrb.w	r2, [r1, #67]	; 0x43
 8004aee:	460c      	mov	r4, r1
 8004af0:	f8dd 8020 	ldr.w	r8, [sp, #32]
 8004af4:	b10a      	cbz	r2, 8004afa <_printf_common+0x26>
 8004af6:	3301      	adds	r3, #1
 8004af8:	6033      	str	r3, [r6, #0]
 8004afa:	6823      	ldr	r3, [r4, #0]
 8004afc:	0699      	lsls	r1, r3, #26
 8004afe:	bf42      	ittt	mi
 8004b00:	6833      	ldrmi	r3, [r6, #0]
 8004b02:	3302      	addmi	r3, #2
 8004b04:	6033      	strmi	r3, [r6, #0]
 8004b06:	6825      	ldr	r5, [r4, #0]
 8004b08:	f015 0506 	ands.w	r5, r5, #6
 8004b0c:	d106      	bne.n	8004b1c <_printf_common+0x48>
 8004b0e:	f104 0a19 	add.w	sl, r4, #25
 8004b12:	68e3      	ldr	r3, [r4, #12]
 8004b14:	6832      	ldr	r2, [r6, #0]
 8004b16:	1a9b      	subs	r3, r3, r2
 8004b18:	42ab      	cmp	r3, r5
 8004b1a:	dc28      	bgt.n	8004b6e <_printf_common+0x9a>
 8004b1c:	f894 2043 	ldrb.w	r2, [r4, #67]	; 0x43
 8004b20:	1e13      	subs	r3, r2, #0
 8004b22:	6822      	ldr	r2, [r4, #0]
 8004b24:	bf18      	it	ne
 8004b26:	2301      	movne	r3, #1
 8004b28:	0692      	lsls	r2, r2, #26
 8004b2a:	d42d      	bmi.n	8004b88 <_printf_common+0xb4>
 8004b2c:	4649      	mov	r1, r9
 8004b2e:	4638      	mov	r0, r7
 8004b30:	f104 0243 	add.w	r2, r4, #67	; 0x43
 8004b34:	47c0      	blx	r8
 8004b36:	3001      	adds	r0, #1
 8004b38:	d020      	beq.n	8004b7c <_printf_common+0xa8>
 8004b3a:	6823      	ldr	r3, [r4, #0]
 8004b3c:	68e5      	ldr	r5, [r4, #12]
 8004b3e:	f003 0306 	and.w	r3, r3, #6
 8004b42:	2b04      	cmp	r3, #4
 8004b44:	bf18      	it	ne
 8004b46:	2500      	movne	r5, #0
 8004b48:	6832      	ldr	r2, [r6, #0]
 8004b4a:	f04f 0600 	mov.w	r6, #0
 8004b4e:	68a3      	ldr	r3, [r4, #8]
 8004b50:	bf08      	it	eq
 8004b52:	1aad      	subeq	r5, r5, r2
 8004b54:	6922      	ldr	r2, [r4, #16]
 8004b56:	bf08      	it	eq
 8004b58:	ea25 75e5 	biceq.w	r5, r5, r5, asr #31
 8004b5c:	4293      	cmp	r3, r2
 8004b5e:	bfc4      	itt	gt
 8004b60:	1a9b      	subgt	r3, r3, r2
 8004b62:	18ed      	addgt	r5, r5, r3
 8004b64:	341a      	adds	r4, #26
 8004b66:	42b5      	cmp	r5, r6
 8004b68:	d11a      	bne.n	8004ba0 <_printf_common+0xcc>
 8004b6a:	2000      	movs	r0, #0
 8004b6c:	e008      	b.n	8004b80 <_printf_common+0xac>
 8004b6e:	2301      	movs	r3, #1
 8004b70:	4652      	mov	r2, sl
 8004b72:	4649      	mov	r1, r9
 8004b74:	4638      	mov	r0, r7
 8004b76:	47c0      	blx	r8
 8004b78:	3001      	adds	r0, #1
 8004b7a:	d103      	bne.n	8004b84 <_printf_common+0xb0>
 8004b7c:	f04f 30ff 	mov.w	r0, #4294967295
 8004b80:	e8bd 87f0 	ldmia.w	sp!, {r4, r5, r6, r7, r8, r9, sl, pc}
 8004b84:	3501      	adds	r5, #1
 8004b86:	e7c4      	b.n	8004b12 <_printf_common+0x3e>
 8004b88:	2030      	movs	r0, #48	; 0x30
 8004b8a:	18e1      	adds	r1, r4, r3
 8004b8c:	f881 0043 	strb.w	r0, [r1, #67]	; 0x43
 8004b90:	1c5a      	adds	r2, r3, #1
 8004b92:	f894 1045 	ldrb.w	r1, [r4, #69]	; 0x45
 8004b96:	4422      	add	r2, r4
 8004b98:	3302      	adds	r3, #2
 8004b9a:	f882 1043 	strb.w	r1, [r2, #67]	; 0x43
 8004b9e:	e7c5      	b.n	8004b2c <_printf_common+0x58>
 8004ba0:	2301      	movs	r3, #1
 8004ba2:	4622      	mov	r2, r4
 8004ba4:	4649      	mov	r1, r9
 8004ba6:	4638      	mov	r0, r7
 8004ba8:	47c0      	blx	r8
 8004baa:	3001      	adds	r0, #1
 8004bac:	d0e6      	beq.n	8004b7c <_printf_common+0xa8>
 8004bae:	3601      	adds	r6, #1
 8004bb0:	e7d9      	b.n	8004b66 <_printf_common+0x92>
	...

08004bb4 <_printf_i>:
 8004bb4:	e92d 47ff 	stmdb	sp!, {r0, r1, r2, r3, r4, r5, r6, r7, r8, r9, sl, lr}
 8004bb8:	7e0f      	ldrb	r7, [r1, #24]
 8004bba:	4691      	mov	r9, r2
 8004bbc:	2f78      	cmp	r7, #120	; 0x78
 8004bbe:	4680      	mov	r8, r0
 8004bc0:	460c      	mov	r4, r1
 8004bc2:	469a      	mov	sl, r3
 8004bc4:	9d0c      	ldr	r5, [sp, #48]	; 0x30
 8004bc6:	f101 0243 	add.w	r2, r1, #67	; 0x43
 8004bca:	d807      	bhi.n	8004bdc <_printf_i+0x28>
 8004bcc:	2f62      	cmp	r7, #98	; 0x62
 8004bce:	d80a      	bhi.n	8004be6 <_printf_i+0x32>
 8004bd0:	2f00      	cmp	r7, #0
 8004bd2:	f000 80d9 	beq.w	8004d88 <_printf_i+0x1d4>
 8004bd6:	2f58      	cmp	r7, #88	; 0x58
 8004bd8:	f000 80a4 	beq.w	8004d24 <_printf_i+0x170>
 8004bdc:	f104 0542 	add.w	r5, r4, #66	; 0x42
 8004be0:	f884 7042 	strb.w	r7, [r4, #66]	; 0x42
 8004be4:	e03a      	b.n	8004c5c <_printf_i+0xa8>
 8004be6:	f1a7 0363 	sub.w	r3, r7, #99	; 0x63
 8004bea:	2b15      	cmp	r3, #21
 8004bec:	d8f6      	bhi.n	8004bdc <_printf_i+0x28>
 8004bee:	a101      	add	r1, pc, #4	; (adr r1, 8004bf4 <_printf_i+0x40>)
 8004bf0:	f851 f023 	ldr.w	pc, [r1, r3, lsl #2]
 8004bf4:	08004c4d 	.word	0x08004c4d
 8004bf8:	08004c61 	.word	0x08004c61
 8004bfc:	08004bdd 	.word	0x08004bdd
 8004c00:	08004bdd 	.word	0x08004bdd
 8004c04:	08004bdd 	.word	0x08004bdd
 8004c08:	08004bdd 	.word	0x08004bdd
 8004c0c:	08004c61 	.word	0x08004c61
 8004c10:	08004bdd 	.word	0x08004bdd
 8004c14:	08004bdd 	.word	0x08004bdd
 8004c18:	08004bdd 	.word	0x08004bdd
 8004c1c:	08004bdd 	.word	0x08004bdd
 8004c20:	08004d6f 	.word	0x08004d6f
 8004c24:	08004c91 	.word	0x08004c91
 8004c28:	08004d51 	.word	0x08004d51
 8004c2c:	08004bdd 	.word	0x08004bdd
 8004c30:	08004bdd 	.word	0x08004bdd
 8004c34:	08004d91 	.word	0x08004d91
 8004c38:	08004bdd 	.word	0x08004bdd
 8004c3c:	08004c91 	.word	0x08004c91
 8004c40:	08004bdd 	.word	0x08004bdd
 8004c44:	08004bdd 	.word	0x08004bdd
 8004c48:	08004d59 	.word	0x08004d59
 8004c4c:	682b      	ldr	r3, [r5, #0]
 8004c4e:	1d1a      	adds	r2, r3, #4
 8004c50:	681b      	ldr	r3, [r3, #0]
 8004c52:	602a      	str	r2, [r5, #0]
 8004c54:	f104 0542 	add.w	r5, r4, #66	; 0x42
 8004c58:	f884 3042 	strb.w	r3, [r4, #66]	; 0x42
 8004c5c:	2301      	movs	r3, #1
 8004c5e:	e0a4      	b.n	8004daa <_printf_i+0x1f6>
 8004c60:	6820      	ldr	r0, [r4, #0]
 8004c62:	6829      	ldr	r1, [r5, #0]
 8004c64:	0606      	lsls	r6, r0, #24
 8004c66:	f101 0304 	add.w	r3, r1, #4
 8004c6a:	d50a      	bpl.n	8004c82 <_printf_i+0xce>
 8004c6c:	680e      	ldr	r6, [r1, #0]
 8004c6e:	602b      	str	r3, [r5, #0]
 8004c70:	2e00      	cmp	r6, #0
 8004c72:	da03      	bge.n	8004c7c <_printf_i+0xc8>
 8004c74:	232d      	movs	r3, #45	; 0x2d
 8004c76:	4276      	negs	r6, r6
 8004c78:	f884 3043 	strb.w	r3, [r4, #67]	; 0x43
 8004c7c:	230a      	movs	r3, #10
 8004c7e:	485e      	ldr	r0, [pc, #376]	; (8004df8 <_printf_i+0x244>)
 8004c80:	e019      	b.n	8004cb6 <_printf_i+0x102>
 8004c82:	680e      	ldr	r6, [r1, #0]
 8004c84:	f010 0f40 	tst.w	r0, #64	; 0x40
 8004c88:	602b      	str	r3, [r5, #0]
 8004c8a:	bf18      	it	ne
 8004c8c:	b236      	sxthne	r6, r6
 8004c8e:	e7ef      	b.n	8004c70 <_printf_i+0xbc>
 8004c90:	682b      	ldr	r3, [r5, #0]
 8004c92:	6820      	ldr	r0, [r4, #0]
 8004c94:	1d19      	adds	r1, r3, #4
 8004c96:	6029      	str	r1, [r5, #0]
 8004c98:	0601      	lsls	r1, r0, #24
 8004c9a:	d501      	bpl.n	8004ca0 <_printf_i+0xec>
 8004c9c:	681e      	ldr	r6, [r3, #0]
 8004c9e:	e002      	b.n	8004ca6 <_printf_i+0xf2>
 8004ca0:	0646      	lsls	r6, r0, #25
 8004ca2:	d5fb      	bpl.n	8004c9c <_printf_i+0xe8>
 8004ca4:	881e      	ldrh	r6, [r3, #0]
 8004ca6:	2f6f      	cmp	r7, #111	; 0x6f
 8004ca8:	bf0c      	ite	eq
 8004caa:	2308      	moveq	r3, #8
 8004cac:	230a      	movne	r3, #10
 8004cae:	4852      	ldr	r0, [pc, #328]	; (8004df8 <_printf_i+0x244>)
 8004cb0:	2100      	movs	r1, #0
 8004cb2:	f884 1043 	strb.w	r1, [r4, #67]	; 0x43
 8004cb6:	6865      	ldr	r5, [r4, #4]
 8004cb8:	2d00      	cmp	r5, #0
 8004cba:	bfa8      	it	ge
 8004cbc:	6821      	ldrge	r1, [r4, #0]
 8004cbe:	60a5      	str	r5, [r4, #8]
 8004cc0:	bfa4      	itt	ge
 8004cc2:	f021 0104 	bicge.w	r1, r1, #4
 8004cc6:	6021      	strge	r1, [r4, #0]
 8004cc8:	b90e      	cbnz	r6, 8004cce <_printf_i+0x11a>
 8004cca:	2d00      	cmp	r5, #0
 8004ccc:	d04d      	beq.n	8004d6a <_printf_i+0x1b6>
 8004cce:	4615      	mov	r5, r2
 8004cd0:	fbb6 f1f3 	udiv	r1, r6, r3
 8004cd4:	fb03 6711 	mls	r7, r3, r1, r6
 8004cd8:	5dc7      	ldrb	r7, [r0, r7]
 8004cda:	f805 7d01 	strb.w	r7, [r5, #-1]!
 8004cde:	4637      	mov	r7, r6
 8004ce0:	42bb      	cmp	r3, r7
 8004ce2:	460e      	mov	r6, r1
 8004ce4:	d9f4      	bls.n	8004cd0 <_printf_i+0x11c>
 8004ce6:	2b08      	cmp	r3, #8
 8004ce8:	d10b      	bne.n	8004d02 <_printf_i+0x14e>
 8004cea:	6823      	ldr	r3, [r4, #0]
 8004cec:	07de      	lsls	r6, r3, #31
 8004cee:	d508      	bpl.n	8004d02 <_printf_i+0x14e>
 8004cf0:	6923      	ldr	r3, [r4, #16]
 8004cf2:	6861      	ldr	r1, [r4, #4]
 8004cf4:	4299      	cmp	r1, r3
 8004cf6:	bfde      	ittt	le
 8004cf8:	2330      	movle	r3, #48	; 0x30
 8004cfa:	f805 3c01 	strble.w	r3, [r5, #-1]
 8004cfe:	f105 35ff 	addle.w	r5, r5, #4294967295
 8004d02:	1b52      	subs	r2, r2, r5
 8004d04:	6122      	str	r2, [r4, #16]
 8004d06:	464b      	mov	r3, r9
 8004d08:	4621      	mov	r1, r4
 8004d0a:	4640      	mov	r0, r8
 8004d0c:	f8cd a000 	str.w	sl, [sp]
 8004d10:	aa03      	add	r2, sp, #12
 8004d12:	f7ff fedf 	bl	8004ad4 <_printf_common>
 8004d16:	3001      	adds	r0, #1
 8004d18:	d14c      	bne.n	8004db4 <_printf_i+0x200>
 8004d1a:	f04f 30ff 	mov.w	r0, #4294967295
 8004d1e:	b004      	add	sp, #16
 8004d20:	e8bd 87f0 	ldmia.w	sp!, {r4, r5, r6, r7, r8, r9, sl, pc}
 8004d24:	4834      	ldr	r0, [pc, #208]	; (8004df8 <_printf_i+0x244>)
 8004d26:	f881 7045 	strb.w	r7, [r1, #69]	; 0x45
 8004d2a:	6829      	ldr	r1, [r5, #0]
 8004d2c:	6823      	ldr	r3, [r4, #0]
 8004d2e:	f851 6b04 	ldr.w	r6, [r1], #4
 8004d32:	6029      	str	r1, [r5, #0]
 8004d34:	061d      	lsls	r5, r3, #24
 8004d36:	d514      	bpl.n	8004d62 <_printf_i+0x1ae>
 8004d38:	07df      	lsls	r7, r3, #31
 8004d3a:	bf44      	itt	mi
 8004d3c:	f043 0320 	orrmi.w	r3, r3, #32
 8004d40:	6023      	strmi	r3, [r4, #0]
 8004d42:	b91e      	cbnz	r6, 8004d4c <_printf_i+0x198>
 8004d44:	6823      	ldr	r3, [r4, #0]
 8004d46:	f023 0320 	bic.w	r3, r3, #32
 8004d4a:	6023      	str	r3, [r4, #0]
 8004d4c:	2310      	movs	r3, #16
 8004d4e:	e7af      	b.n	8004cb0 <_printf_i+0xfc>
 8004d50:	6823      	ldr	r3, [r4, #0]
 8004d52:	f043 0320 	orr.w	r3, r3, #32
 8004d56:	6023      	str	r3, [r4, #0]
 8004d58:	2378      	movs	r3, #120	; 0x78
 8004d5a:	4828      	ldr	r0, [pc, #160]	; (8004dfc <_printf_i+0x248>)
 8004d5c:	f884 3045 	strb.w	r3, [r4, #69]	; 0x45
 8004d60:	e7e3      	b.n	8004d2a <_printf_i+0x176>
 8004d62:	0659      	lsls	r1, r3, #25
 8004d64:	bf48      	it	mi
 8004d66:	b2b6      	uxthmi	r6, r6
 8004d68:	e7e6      	b.n	8004d38 <_printf_i+0x184>
 8004d6a:	4615      	mov	r5, r2
 8004d6c:	e7bb      	b.n	8004ce6 <_printf_i+0x132>
 8004d6e:	682b      	ldr	r3, [r5, #0]
 8004d70:	6826      	ldr	r6, [r4, #0]
 8004d72:	1d18      	adds	r0, r3, #4
 8004d74:	6961      	ldr	r1, [r4, #20]
 8004d76:	6028      	str	r0, [r5, #0]
 8004d78:	0635      	lsls	r5, r6, #24
 8004d7a:	681b      	ldr	r3, [r3, #0]
 8004d7c:	d501      	bpl.n	8004d82 <_printf_i+0x1ce>
 8004d7e:	6019      	str	r1, [r3, #0]
 8004d80:	e002      	b.n	8004d88 <_printf_i+0x1d4>
 8004d82:	0670      	lsls	r0, r6, #25
 8004d84:	d5fb      	bpl.n	8004d7e <_printf_i+0x1ca>
 8004d86:	8019      	strh	r1, [r3, #0]
 8004d88:	2300      	movs	r3, #0
 8004d8a:	4615      	mov	r5, r2
 8004d8c:	6123      	str	r3, [r4, #16]
 8004d8e:	e7ba      	b.n	8004d06 <_printf_i+0x152>
 8004d90:	682b      	ldr	r3, [r5, #0]
 8004d92:	2100      	movs	r1, #0
 8004d94:	1d1a      	adds	r2, r3, #4
 8004d96:	602a      	str	r2, [r5, #0]
 8004d98:	681d      	ldr	r5, [r3, #0]
 8004d9a:	6862      	ldr	r2, [r4, #4]
 8004d9c:	4628      	mov	r0, r5
 8004d9e:	f000 fb23 	bl	80053e8 <memchr>
 8004da2:	b108      	cbz	r0, 8004da8 <_printf_i+0x1f4>
 8004da4:	1b40      	subs	r0, r0, r5
 8004da6:	6060      	str	r0, [r4, #4]
 8004da8:	6863      	ldr	r3, [r4, #4]
 8004daa:	6123      	str	r3, [r4, #16]
 8004dac:	2300      	movs	r3, #0
 8004dae:	f884 3043 	strb.w	r3, [r4, #67]	; 0x43
 8004db2:	e7a8      	b.n	8004d06 <_printf_i+0x152>
 8004db4:	462a      	mov	r2, r5
 8004db6:	4649      	mov	r1, r9
 8004db8:	4640      	mov	r0, r8
 8004dba:	6923      	ldr	r3, [r4, #16]
 8004dbc:	47d0      	blx	sl
 8004dbe:	3001      	adds	r0, #1
 8004dc0:	d0ab      	beq.n	8004d1a <_printf_i+0x166>
 8004dc2:	6823      	ldr	r3, [r4, #0]
 8004dc4:	079b      	lsls	r3, r3, #30
 8004dc6:	d413      	bmi.n	8004df0 <_printf_i+0x23c>
 8004dc8:	68e0      	ldr	r0, [r4, #12]
 8004dca:	9b03      	ldr	r3, [sp, #12]
 8004dcc:	4298      	cmp	r0, r3
 8004dce:	bfb8      	it	lt
 8004dd0:	4618      	movlt	r0, r3
 8004dd2:	e7a4      	b.n	8004d1e <_printf_i+0x16a>
 8004dd4:	2301      	movs	r3, #1
 8004dd6:	4632      	mov	r2, r6
 8004dd8:	4649      	mov	r1, r9
 8004dda:	4640      	mov	r0, r8
 8004ddc:	47d0      	blx	sl
 8004dde:	3001      	adds	r0, #1
 8004de0:	d09b      	beq.n	8004d1a <_printf_i+0x166>
 8004de2:	3501      	adds	r5, #1
 8004de4:	68e3      	ldr	r3, [r4, #12]
 8004de6:	9903      	ldr	r1, [sp, #12]
 8004de8:	1a5b      	subs	r3, r3, r1
 8004dea:	42ab      	cmp	r3, r5
 8004dec:	dcf2      	bgt.n	8004dd4 <_printf_i+0x220>
 8004dee:	e7eb      	b.n	8004dc8 <_printf_i+0x214>
 8004df0:	2500      	movs	r5, #0
 8004df2:	f104 0619 	add.w	r6, r4, #25
 8004df6:	e7f5      	b.n	8004de4 <_printf_i+0x230>
 8004df8:	0800576f 	.word	0x0800576f
 8004dfc:	08005780 	.word	0x08005780

08004e00 <_sbrk_r>:
 8004e00:	b538      	push	{r3, r4, r5, lr}
 8004e02:	2300      	movs	r3, #0
 8004e04:	4d05      	ldr	r5, [pc, #20]	; (8004e1c <_sbrk_r+0x1c>)
 8004e06:	4604      	mov	r4, r0
 8004e08:	4608      	mov	r0, r1
 8004e0a:	602b      	str	r3, [r5, #0]
 8004e0c:	f7fd fa9e 	bl	800234c <_sbrk>
 8004e10:	1c43      	adds	r3, r0, #1
 8004e12:	d102      	bne.n	8004e1a <_sbrk_r+0x1a>
 8004e14:	682b      	ldr	r3, [r5, #0]
 8004e16:	b103      	cbz	r3, 8004e1a <_sbrk_r+0x1a>
 8004e18:	6023      	str	r3, [r4, #0]
 8004e1a:	bd38      	pop	{r3, r4, r5, pc}
 8004e1c:	2000026c 	.word	0x2000026c

08004e20 <__swbuf_r>:
 8004e20:	b5f8      	push	{r3, r4, r5, r6, r7, lr}
 8004e22:	460e      	mov	r6, r1
 8004e24:	4614      	mov	r4, r2
 8004e26:	4605      	mov	r5, r0
 8004e28:	b118      	cbz	r0, 8004e32 <__swbuf_r+0x12>
 8004e2a:	6983      	ldr	r3, [r0, #24]
 8004e2c:	b90b      	cbnz	r3, 8004e32 <__swbuf_r+0x12>
 8004e2e:	f000 f9d5 	bl	80051dc <__sinit>
 8004e32:	4b21      	ldr	r3, [pc, #132]	; (8004eb8 <__swbuf_r+0x98>)
 8004e34:	429c      	cmp	r4, r3
 8004e36:	d12b      	bne.n	8004e90 <__swbuf_r+0x70>
 8004e38:	686c      	ldr	r4, [r5, #4]
 8004e3a:	69a3      	ldr	r3, [r4, #24]
 8004e3c:	60a3      	str	r3, [r4, #8]
 8004e3e:	89a3      	ldrh	r3, [r4, #12]
 8004e40:	071a      	lsls	r2, r3, #28
 8004e42:	d52f      	bpl.n	8004ea4 <__swbuf_r+0x84>
 8004e44:	6923      	ldr	r3, [r4, #16]
 8004e46:	b36b      	cbz	r3, 8004ea4 <__swbuf_r+0x84>
 8004e48:	6923      	ldr	r3, [r4, #16]
 8004e4a:	6820      	ldr	r0, [r4, #0]
 8004e4c:	b2f6      	uxtb	r6, r6
 8004e4e:	1ac0      	subs	r0, r0, r3
 8004e50:	6963      	ldr	r3, [r4, #20]
 8004e52:	4637      	mov	r7, r6
 8004e54:	4283      	cmp	r3, r0
 8004e56:	dc04      	bgt.n	8004e62 <__swbuf_r+0x42>
 8004e58:	4621      	mov	r1, r4
 8004e5a:	4628      	mov	r0, r5
 8004e5c:	f000 f92a 	bl	80050b4 <_fflush_r>
 8004e60:	bb30      	cbnz	r0, 8004eb0 <__swbuf_r+0x90>
 8004e62:	68a3      	ldr	r3, [r4, #8]
 8004e64:	3001      	adds	r0, #1
 8004e66:	3b01      	subs	r3, #1
 8004e68:	60a3      	str	r3, [r4, #8]
 8004e6a:	6823      	ldr	r3, [r4, #0]
 8004e6c:	1c5a      	adds	r2, r3, #1
 8004e6e:	6022      	str	r2, [r4, #0]
 8004e70:	701e      	strb	r6, [r3, #0]
 8004e72:	6963      	ldr	r3, [r4, #20]
 8004e74:	4283      	cmp	r3, r0
 8004e76:	d004      	beq.n	8004e82 <__swbuf_r+0x62>
 8004e78:	89a3      	ldrh	r3, [r4, #12]
 8004e7a:	07db      	lsls	r3, r3, #31
 8004e7c:	d506      	bpl.n	8004e8c <__swbuf_r+0x6c>
 8004e7e:	2e0a      	cmp	r6, #10
 8004e80:	d104      	bne.n	8004e8c <__swbuf_r+0x6c>
 8004e82:	4621      	mov	r1, r4
 8004e84:	4628      	mov	r0, r5
 8004e86:	f000 f915 	bl	80050b4 <_fflush_r>
 8004e8a:	b988      	cbnz	r0, 8004eb0 <__swbuf_r+0x90>
 8004e8c:	4638      	mov	r0, r7
 8004e8e:	bdf8      	pop	{r3, r4, r5, r6, r7, pc}
 8004e90:	4b0a      	ldr	r3, [pc, #40]	; (8004ebc <__swbuf_r+0x9c>)
 8004e92:	429c      	cmp	r4, r3
 8004e94:	d101      	bne.n	8004e9a <__swbuf_r+0x7a>
 8004e96:	68ac      	ldr	r4, [r5, #8]
 8004e98:	e7cf      	b.n	8004e3a <__swbuf_r+0x1a>
 8004e9a:	4b09      	ldr	r3, [pc, #36]	; (8004ec0 <__swbuf_r+0xa0>)
 8004e9c:	429c      	cmp	r4, r3
 8004e9e:	bf08      	it	eq
 8004ea0:	68ec      	ldreq	r4, [r5, #12]
 8004ea2:	e7ca      	b.n	8004e3a <__swbuf_r+0x1a>
 8004ea4:	4621      	mov	r1, r4
 8004ea6:	4628      	mov	r0, r5
 8004ea8:	f000 f80c 	bl	8004ec4 <__swsetup_r>
 8004eac:	2800      	cmp	r0, #0
 8004eae:	d0cb      	beq.n	8004e48 <__swbuf_r+0x28>
 8004eb0:	f04f 37ff 	mov.w	r7, #4294967295
 8004eb4:	e7ea      	b.n	8004e8c <__swbuf_r+0x6c>
 8004eb6:	bf00      	nop
 8004eb8:	080057b4 	.word	0x080057b4
 8004ebc:	080057d4 	.word	0x080057d4
 8004ec0:	08005794 	.word	0x08005794

08004ec4 <__swsetup_r>:
 8004ec4:	4b32      	ldr	r3, [pc, #200]	; (8004f90 <__swsetup_r+0xcc>)
 8004ec6:	b570      	push	{r4, r5, r6, lr}
 8004ec8:	681d      	ldr	r5, [r3, #0]
 8004eca:	4606      	mov	r6, r0
 8004ecc:	460c      	mov	r4, r1
 8004ece:	b125      	cbz	r5, 8004eda <__swsetup_r+0x16>
 8004ed0:	69ab      	ldr	r3, [r5, #24]
 8004ed2:	b913      	cbnz	r3, 8004eda <__swsetup_r+0x16>
 8004ed4:	4628      	mov	r0, r5
 8004ed6:	f000 f981 	bl	80051dc <__sinit>
 8004eda:	4b2e      	ldr	r3, [pc, #184]	; (8004f94 <__swsetup_r+0xd0>)
 8004edc:	429c      	cmp	r4, r3
 8004ede:	d10f      	bne.n	8004f00 <__swsetup_r+0x3c>
 8004ee0:	686c      	ldr	r4, [r5, #4]
 8004ee2:	89a3      	ldrh	r3, [r4, #12]
 8004ee4:	f9b4 200c 	ldrsh.w	r2, [r4, #12]
 8004ee8:	0719      	lsls	r1, r3, #28
 8004eea:	d42c      	bmi.n	8004f46 <__swsetup_r+0x82>
 8004eec:	06dd      	lsls	r5, r3, #27
 8004eee:	d411      	bmi.n	8004f14 <__swsetup_r+0x50>
 8004ef0:	2309      	movs	r3, #9
 8004ef2:	6033      	str	r3, [r6, #0]
 8004ef4:	f042 0340 	orr.w	r3, r2, #64	; 0x40
 8004ef8:	f04f 30ff 	mov.w	r0, #4294967295
 8004efc:	81a3      	strh	r3, [r4, #12]
 8004efe:	e03e      	b.n	8004f7e <__swsetup_r+0xba>
 8004f00:	4b25      	ldr	r3, [pc, #148]	; (8004f98 <__swsetup_r+0xd4>)
 8004f02:	429c      	cmp	r4, r3
 8004f04:	d101      	bne.n	8004f0a <__swsetup_r+0x46>
 8004f06:	68ac      	ldr	r4, [r5, #8]
 8004f08:	e7eb      	b.n	8004ee2 <__swsetup_r+0x1e>
 8004f0a:	4b24      	ldr	r3, [pc, #144]	; (8004f9c <__swsetup_r+0xd8>)
 8004f0c:	429c      	cmp	r4, r3
 8004f0e:	bf08      	it	eq
 8004f10:	68ec      	ldreq	r4, [r5, #12]
 8004f12:	e7e6      	b.n	8004ee2 <__swsetup_r+0x1e>
 8004f14:	0758      	lsls	r0, r3, #29
 8004f16:	d512      	bpl.n	8004f3e <__swsetup_r+0x7a>
 8004f18:	6b61      	ldr	r1, [r4, #52]	; 0x34
 8004f1a:	b141      	cbz	r1, 8004f2e <__swsetup_r+0x6a>
 8004f1c:	f104 0344 	add.w	r3, r4, #68	; 0x44
 8004f20:	4299      	cmp	r1, r3
 8004f22:	d002      	beq.n	8004f2a <__swsetup_r+0x66>
 8004f24:	4630      	mov	r0, r6
 8004f26:	f7ff fba1 	bl	800466c <_free_r>
 8004f2a:	2300      	movs	r3, #0
 8004f2c:	6363      	str	r3, [r4, #52]	; 0x34
 8004f2e:	89a3      	ldrh	r3, [r4, #12]
 8004f30:	f023 0324 	bic.w	r3, r3, #36	; 0x24
 8004f34:	81a3      	strh	r3, [r4, #12]
 8004f36:	2300      	movs	r3, #0
 8004f38:	6063      	str	r3, [r4, #4]
 8004f3a:	6923      	ldr	r3, [r4, #16]
 8004f3c:	6023      	str	r3, [r4, #0]
 8004f3e:	89a3      	ldrh	r3, [r4, #12]
 8004f40:	f043 0308 	orr.w	r3, r3, #8
 8004f44:	81a3      	strh	r3, [r4, #12]
 8004f46:	6923      	ldr	r3, [r4, #16]
 8004f48:	b94b      	cbnz	r3, 8004f5e <__swsetup_r+0x9a>
 8004f4a:	89a3      	ldrh	r3, [r4, #12]
 8004f4c:	f403 7320 	and.w	r3, r3, #640	; 0x280
 8004f50:	f5b3 7f00 	cmp.w	r3, #512	; 0x200
 8004f54:	d003      	beq.n	8004f5e <__swsetup_r+0x9a>
 8004f56:	4621      	mov	r1, r4
 8004f58:	4630      	mov	r0, r6
 8004f5a:	f000 fa05 	bl	8005368 <__smakebuf_r>
 8004f5e:	89a0      	ldrh	r0, [r4, #12]
 8004f60:	f9b4 200c 	ldrsh.w	r2, [r4, #12]
 8004f64:	f010 0301 	ands.w	r3, r0, #1
 8004f68:	d00a      	beq.n	8004f80 <__swsetup_r+0xbc>
 8004f6a:	2300      	movs	r3, #0
 8004f6c:	60a3      	str	r3, [r4, #8]
 8004f6e:	6963      	ldr	r3, [r4, #20]
 8004f70:	425b      	negs	r3, r3
 8004f72:	61a3      	str	r3, [r4, #24]
 8004f74:	6923      	ldr	r3, [r4, #16]
 8004f76:	b943      	cbnz	r3, 8004f8a <__swsetup_r+0xc6>
 8004f78:	f010 0080 	ands.w	r0, r0, #128	; 0x80
 8004f7c:	d1ba      	bne.n	8004ef4 <__swsetup_r+0x30>
 8004f7e:	bd70      	pop	{r4, r5, r6, pc}
 8004f80:	0781      	lsls	r1, r0, #30
 8004f82:	bf58      	it	pl
 8004f84:	6963      	ldrpl	r3, [r4, #20]
 8004f86:	60a3      	str	r3, [r4, #8]
 8004f88:	e7f4      	b.n	8004f74 <__swsetup_r+0xb0>
 8004f8a:	2000      	movs	r0, #0
 8004f8c:	e7f7      	b.n	8004f7e <__swsetup_r+0xba>
 8004f8e:	bf00      	nop
 8004f90:	20000014 	.word	0x20000014
 8004f94:	080057b4 	.word	0x080057b4
 8004f98:	080057d4 	.word	0x080057d4
 8004f9c:	08005794 	.word	0x08005794

08004fa0 <abort>:
 8004fa0:	2006      	movs	r0, #6
 8004fa2:	b508      	push	{r3, lr}
 8004fa4:	f000 fa62 	bl	800546c <raise>
 8004fa8:	2001      	movs	r0, #1
 8004faa:	f7fd f95b 	bl	8002264 <_exit>
	...

08004fb0 <__sflush_r>:
 8004fb0:	898a      	ldrh	r2, [r1, #12]
 8004fb2:	b5f8      	push	{r3, r4, r5, r6, r7, lr}
 8004fb4:	4605      	mov	r5, r0
 8004fb6:	0710      	lsls	r0, r2, #28
 8004fb8:	460c      	mov	r4, r1
 8004fba:	d457      	bmi.n	800506c <__sflush_r+0xbc>
 8004fbc:	684b      	ldr	r3, [r1, #4]
 8004fbe:	2b00      	cmp	r3, #0
 8004fc0:	dc04      	bgt.n	8004fcc <__sflush_r+0x1c>
 8004fc2:	6c0b      	ldr	r3, [r1, #64]	; 0x40
 8004fc4:	2b00      	cmp	r3, #0
 8004fc6:	dc01      	bgt.n	8004fcc <__sflush_r+0x1c>
 8004fc8:	2000      	movs	r0, #0
 8004fca:	bdf8      	pop	{r3, r4, r5, r6, r7, pc}
 8004fcc:	6ae6      	ldr	r6, [r4, #44]	; 0x2c
 8004fce:	2e00      	cmp	r6, #0
 8004fd0:	d0fa      	beq.n	8004fc8 <__sflush_r+0x18>
 8004fd2:	2300      	movs	r3, #0
 8004fd4:	f412 5280 	ands.w	r2, r2, #4096	; 0x1000
 8004fd8:	682f      	ldr	r7, [r5, #0]
 8004fda:	602b      	str	r3, [r5, #0]
 8004fdc:	d032      	beq.n	8005044 <__sflush_r+0x94>
 8004fde:	6d60      	ldr	r0, [r4, #84]	; 0x54
 8004fe0:	89a3      	ldrh	r3, [r4, #12]
 8004fe2:	075a      	lsls	r2, r3, #29
 8004fe4:	d505      	bpl.n	8004ff2 <__sflush_r+0x42>
 8004fe6:	6863      	ldr	r3, [r4, #4]
 8004fe8:	1ac0      	subs	r0, r0, r3
 8004fea:	6b63      	ldr	r3, [r4, #52]	; 0x34
 8004fec:	b10b      	cbz	r3, 8004ff2 <__sflush_r+0x42>
 8004fee:	6c23      	ldr	r3, [r4, #64]	; 0x40
 8004ff0:	1ac0      	subs	r0, r0, r3
 8004ff2:	2300      	movs	r3, #0
 8004ff4:	4602      	mov	r2, r0
 8004ff6:	6ae6      	ldr	r6, [r4, #44]	; 0x2c
 8004ff8:	4628      	mov	r0, r5
 8004ffa:	6a21      	ldr	r1, [r4, #32]
 8004ffc:	47b0      	blx	r6
 8004ffe:	1c43      	adds	r3, r0, #1
 8005000:	89a3      	ldrh	r3, [r4, #12]
 8005002:	d106      	bne.n	8005012 <__sflush_r+0x62>
 8005004:	6829      	ldr	r1, [r5, #0]
 8005006:	291d      	cmp	r1, #29
 8005008:	d82c      	bhi.n	8005064 <__sflush_r+0xb4>
 800500a:	4a29      	ldr	r2, [pc, #164]	; (80050b0 <__sflush_r+0x100>)
 800500c:	40ca      	lsrs	r2, r1
 800500e:	07d6      	lsls	r6, r2, #31
 8005010:	d528      	bpl.n	8005064 <__sflush_r+0xb4>
 8005012:	2200      	movs	r2, #0
 8005014:	6062      	str	r2, [r4, #4]
 8005016:	6922      	ldr	r2, [r4, #16]
 8005018:	04d9      	lsls	r1, r3, #19
 800501a:	6022      	str	r2, [r4, #0]
 800501c:	d504      	bpl.n	8005028 <__sflush_r+0x78>
 800501e:	1c42      	adds	r2, r0, #1
 8005020:	d101      	bne.n	8005026 <__sflush_r+0x76>
 8005022:	682b      	ldr	r3, [r5, #0]
 8005024:	b903      	cbnz	r3, 8005028 <__sflush_r+0x78>
 8005026:	6560      	str	r0, [r4, #84]	; 0x54
 8005028:	6b61      	ldr	r1, [r4, #52]	; 0x34
 800502a:	602f      	str	r7, [r5, #0]
 800502c:	2900      	cmp	r1, #0
 800502e:	d0cb      	beq.n	8004fc8 <__sflush_r+0x18>
 8005030:	f104 0344 	add.w	r3, r4, #68	; 0x44
 8005034:	4299      	cmp	r1, r3
 8005036:	d002      	beq.n	800503e <__sflush_r+0x8e>
 8005038:	4628      	mov	r0, r5
 800503a:	f7ff fb17 	bl	800466c <_free_r>
 800503e:	2000      	movs	r0, #0
 8005040:	6360      	str	r0, [r4, #52]	; 0x34
 8005042:	e7c2      	b.n	8004fca <__sflush_r+0x1a>
 8005044:	6a21      	ldr	r1, [r4, #32]
 8005046:	2301      	movs	r3, #1
 8005048:	4628      	mov	r0, r5
 800504a:	47b0      	blx	r6
 800504c:	1c41      	adds	r1, r0, #1
 800504e:	d1c7      	bne.n	8004fe0 <__sflush_r+0x30>
 8005050:	682b      	ldr	r3, [r5, #0]
 8005052:	2b00      	cmp	r3, #0
 8005054:	d0c4      	beq.n	8004fe0 <__sflush_r+0x30>
 8005056:	2b1d      	cmp	r3, #29
 8005058:	d001      	beq.n	800505e <__sflush_r+0xae>
 800505a:	2b16      	cmp	r3, #22
 800505c:	d101      	bne.n	8005062 <__sflush_r+0xb2>
 800505e:	602f      	str	r7, [r5, #0]
 8005060:	e7b2      	b.n	8004fc8 <__sflush_r+0x18>
 8005062:	89a3      	ldrh	r3, [r4, #12]
 8005064:	f043 0340 	orr.w	r3, r3, #64	; 0x40
 8005068:	81a3      	strh	r3, [r4, #12]
 800506a:	e7ae      	b.n	8004fca <__sflush_r+0x1a>
 800506c:	690f      	ldr	r7, [r1, #16]
 800506e:	2f00      	cmp	r7, #0
 8005070:	d0aa      	beq.n	8004fc8 <__sflush_r+0x18>
 8005072:	0793      	lsls	r3, r2, #30
 8005074:	bf18      	it	ne
 8005076:	2300      	movne	r3, #0
 8005078:	680e      	ldr	r6, [r1, #0]
 800507a:	bf08      	it	eq
 800507c:	694b      	ldreq	r3, [r1, #20]
 800507e:	1bf6      	subs	r6, r6, r7
 8005080:	600f      	str	r7, [r1, #0]
 8005082:	608b      	str	r3, [r1, #8]
 8005084:	2e00      	cmp	r6, #0
 8005086:	dd9f      	ble.n	8004fc8 <__sflush_r+0x18>
 8005088:	4633      	mov	r3, r6
 800508a:	463a      	mov	r2, r7
 800508c:	4628      	mov	r0, r5
 800508e:	6a21      	ldr	r1, [r4, #32]
 8005090:	f8d4 c028 	ldr.w	ip, [r4, #40]	; 0x28
 8005094:	47e0      	blx	ip
 8005096:	2800      	cmp	r0, #0
 8005098:	dc06      	bgt.n	80050a8 <__sflush_r+0xf8>
 800509a:	89a3      	ldrh	r3, [r4, #12]
 800509c:	f04f 30ff 	mov.w	r0, #4294967295
 80050a0:	f043 0340 	orr.w	r3, r3, #64	; 0x40
 80050a4:	81a3      	strh	r3, [r4, #12]
 80050a6:	e790      	b.n	8004fca <__sflush_r+0x1a>
 80050a8:	4407      	add	r7, r0
 80050aa:	1a36      	subs	r6, r6, r0
 80050ac:	e7ea      	b.n	8005084 <__sflush_r+0xd4>
 80050ae:	bf00      	nop
 80050b0:	20400001 	.word	0x20400001

080050b4 <_fflush_r>:
 80050b4:	b538      	push	{r3, r4, r5, lr}
 80050b6:	690b      	ldr	r3, [r1, #16]
 80050b8:	4605      	mov	r5, r0
 80050ba:	460c      	mov	r4, r1
 80050bc:	b913      	cbnz	r3, 80050c4 <_fflush_r+0x10>
 80050be:	2500      	movs	r5, #0
 80050c0:	4628      	mov	r0, r5
 80050c2:	bd38      	pop	{r3, r4, r5, pc}
 80050c4:	b118      	cbz	r0, 80050ce <_fflush_r+0x1a>
 80050c6:	6983      	ldr	r3, [r0, #24]
 80050c8:	b90b      	cbnz	r3, 80050ce <_fflush_r+0x1a>
 80050ca:	f000 f887 	bl	80051dc <__sinit>
 80050ce:	4b14      	ldr	r3, [pc, #80]	; (8005120 <_fflush_r+0x6c>)
 80050d0:	429c      	cmp	r4, r3
 80050d2:	d11b      	bne.n	800510c <_fflush_r+0x58>
 80050d4:	686c      	ldr	r4, [r5, #4]
 80050d6:	f9b4 300c 	ldrsh.w	r3, [r4, #12]
 80050da:	2b00      	cmp	r3, #0
 80050dc:	d0ef      	beq.n	80050be <_fflush_r+0xa>
 80050de:	6e62      	ldr	r2, [r4, #100]	; 0x64
 80050e0:	07d0      	lsls	r0, r2, #31
 80050e2:	d404      	bmi.n	80050ee <_fflush_r+0x3a>
 80050e4:	0599      	lsls	r1, r3, #22
 80050e6:	d402      	bmi.n	80050ee <_fflush_r+0x3a>
 80050e8:	6da0      	ldr	r0, [r4, #88]	; 0x58
 80050ea:	f000 f915 	bl	8005318 <__retarget_lock_acquire_recursive>
 80050ee:	4628      	mov	r0, r5
 80050f0:	4621      	mov	r1, r4
 80050f2:	f7ff ff5d 	bl	8004fb0 <__sflush_r>
 80050f6:	6e63      	ldr	r3, [r4, #100]	; 0x64
 80050f8:	4605      	mov	r5, r0
 80050fa:	07da      	lsls	r2, r3, #31
 80050fc:	d4e0      	bmi.n	80050c0 <_fflush_r+0xc>
 80050fe:	89a3      	ldrh	r3, [r4, #12]
 8005100:	059b      	lsls	r3, r3, #22
 8005102:	d4dd      	bmi.n	80050c0 <_fflush_r+0xc>
 8005104:	6da0      	ldr	r0, [r4, #88]	; 0x58
 8005106:	f000 f908 	bl	800531a <__retarget_lock_release_recursive>
 800510a:	e7d9      	b.n	80050c0 <_fflush_r+0xc>
 800510c:	4b05      	ldr	r3, [pc, #20]	; (8005124 <_fflush_r+0x70>)
 800510e:	429c      	cmp	r4, r3
 8005110:	d101      	bne.n	8005116 <_fflush_r+0x62>
 8005112:	68ac      	ldr	r4, [r5, #8]
 8005114:	e7df      	b.n	80050d6 <_fflush_r+0x22>
 8005116:	4b04      	ldr	r3, [pc, #16]	; (8005128 <_fflush_r+0x74>)
 8005118:	429c      	cmp	r4, r3
 800511a:	bf08      	it	eq
 800511c:	68ec      	ldreq	r4, [r5, #12]
 800511e:	e7da      	b.n	80050d6 <_fflush_r+0x22>
 8005120:	080057b4 	.word	0x080057b4
 8005124:	080057d4 	.word	0x080057d4
 8005128:	08005794 	.word	0x08005794

0800512c <std>:
 800512c:	2300      	movs	r3, #0
 800512e:	b510      	push	{r4, lr}
 8005130:	4604      	mov	r4, r0
 8005132:	e9c0 3300 	strd	r3, r3, [r0]
 8005136:	e9c0 3304 	strd	r3, r3, [r0, #16]
 800513a:	6083      	str	r3, [r0, #8]
 800513c:	8181      	strh	r1, [r0, #12]
 800513e:	6643      	str	r3, [r0, #100]	; 0x64
 8005140:	81c2      	strh	r2, [r0, #14]
 8005142:	6183      	str	r3, [r0, #24]
 8005144:	4619      	mov	r1, r3
 8005146:	2208      	movs	r2, #8
 8005148:	305c      	adds	r0, #92	; 0x5c
 800514a:	f7ff fa11 	bl	8004570 <memset>
 800514e:	4b05      	ldr	r3, [pc, #20]	; (8005164 <std+0x38>)
 8005150:	6224      	str	r4, [r4, #32]
 8005152:	6263      	str	r3, [r4, #36]	; 0x24
 8005154:	4b04      	ldr	r3, [pc, #16]	; (8005168 <std+0x3c>)
 8005156:	62a3      	str	r3, [r4, #40]	; 0x28
 8005158:	4b04      	ldr	r3, [pc, #16]	; (800516c <std+0x40>)
 800515a:	62e3      	str	r3, [r4, #44]	; 0x2c
 800515c:	4b04      	ldr	r3, [pc, #16]	; (8005170 <std+0x44>)
 800515e:	6323      	str	r3, [r4, #48]	; 0x30
 8005160:	bd10      	pop	{r4, pc}
 8005162:	bf00      	nop
 8005164:	080054a5 	.word	0x080054a5
 8005168:	080054c7 	.word	0x080054c7
 800516c:	080054ff 	.word	0x080054ff
 8005170:	08005523 	.word	0x08005523

08005174 <_cleanup_r>:
 8005174:	4901      	ldr	r1, [pc, #4]	; (800517c <_cleanup_r+0x8>)
 8005176:	f000 b8af 	b.w	80052d8 <_fwalk_reent>
 800517a:	bf00      	nop
 800517c:	080050b5 	.word	0x080050b5

08005180 <__sfmoreglue>:
 8005180:	2268      	movs	r2, #104	; 0x68
 8005182:	b570      	push	{r4, r5, r6, lr}
 8005184:	1e4d      	subs	r5, r1, #1
 8005186:	4355      	muls	r5, r2
 8005188:	460e      	mov	r6, r1
 800518a:	f105 0174 	add.w	r1, r5, #116	; 0x74
 800518e:	f7ff fad5 	bl	800473c <_malloc_r>
 8005192:	4604      	mov	r4, r0
 8005194:	b140      	cbz	r0, 80051a8 <__sfmoreglue+0x28>
 8005196:	2100      	movs	r1, #0
 8005198:	e9c0 1600 	strd	r1, r6, [r0]
 800519c:	300c      	adds	r0, #12
 800519e:	60a0      	str	r0, [r4, #8]
 80051a0:	f105 0268 	add.w	r2, r5, #104	; 0x68
 80051a4:	f7ff f9e4 	bl	8004570 <memset>
 80051a8:	4620      	mov	r0, r4
 80051aa:	bd70      	pop	{r4, r5, r6, pc}

080051ac <__sfp_lock_acquire>:
 80051ac:	4801      	ldr	r0, [pc, #4]	; (80051b4 <__sfp_lock_acquire+0x8>)
 80051ae:	f000 b8b3 	b.w	8005318 <__retarget_lock_acquire_recursive>
 80051b2:	bf00      	nop
 80051b4:	20000269 	.word	0x20000269

080051b8 <__sfp_lock_release>:
 80051b8:	4801      	ldr	r0, [pc, #4]	; (80051c0 <__sfp_lock_release+0x8>)
 80051ba:	f000 b8ae 	b.w	800531a <__retarget_lock_release_recursive>
 80051be:	bf00      	nop
 80051c0:	20000269 	.word	0x20000269

080051c4 <__sinit_lock_acquire>:
 80051c4:	4801      	ldr	r0, [pc, #4]	; (80051cc <__sinit_lock_acquire+0x8>)
 80051c6:	f000 b8a7 	b.w	8005318 <__retarget_lock_acquire_recursive>
 80051ca:	bf00      	nop
 80051cc:	2000026a 	.word	0x2000026a

080051d0 <__sinit_lock_release>:
 80051d0:	4801      	ldr	r0, [pc, #4]	; (80051d8 <__sinit_lock_release+0x8>)
 80051d2:	f000 b8a2 	b.w	800531a <__retarget_lock_release_recursive>
 80051d6:	bf00      	nop
 80051d8:	2000026a 	.word	0x2000026a

080051dc <__sinit>:
 80051dc:	b510      	push	{r4, lr}
 80051de:	4604      	mov	r4, r0
 80051e0:	f7ff fff0 	bl	80051c4 <__sinit_lock_acquire>
 80051e4:	69a3      	ldr	r3, [r4, #24]
 80051e6:	b11b      	cbz	r3, 80051f0 <__sinit+0x14>
 80051e8:	e8bd 4010 	ldmia.w	sp!, {r4, lr}
 80051ec:	f7ff bff0 	b.w	80051d0 <__sinit_lock_release>
 80051f0:	e9c4 3312 	strd	r3, r3, [r4, #72]	; 0x48
 80051f4:	6523      	str	r3, [r4, #80]	; 0x50
 80051f6:	4b13      	ldr	r3, [pc, #76]	; (8005244 <__sinit+0x68>)
 80051f8:	4a13      	ldr	r2, [pc, #76]	; (8005248 <__sinit+0x6c>)
 80051fa:	681b      	ldr	r3, [r3, #0]
 80051fc:	62a2      	str	r2, [r4, #40]	; 0x28
 80051fe:	42a3      	cmp	r3, r4
 8005200:	bf08      	it	eq
 8005202:	2301      	moveq	r3, #1
 8005204:	4620      	mov	r0, r4
 8005206:	bf08      	it	eq
 8005208:	61a3      	streq	r3, [r4, #24]
 800520a:	f000 f81f 	bl	800524c <__sfp>
 800520e:	6060      	str	r0, [r4, #4]
 8005210:	4620      	mov	r0, r4
 8005212:	f000 f81b 	bl	800524c <__sfp>
 8005216:	60a0      	str	r0, [r4, #8]
 8005218:	4620      	mov	r0, r4
 800521a:	f000 f817 	bl	800524c <__sfp>
 800521e:	2200      	movs	r2, #0
 8005220:	2104      	movs	r1, #4
 8005222:	60e0      	str	r0, [r4, #12]
 8005224:	6860      	ldr	r0, [r4, #4]
 8005226:	f7ff ff81 	bl	800512c <std>
 800522a:	2201      	movs	r2, #1
 800522c:	2109      	movs	r1, #9
 800522e:	68a0      	ldr	r0, [r4, #8]
 8005230:	f7ff ff7c 	bl	800512c <std>
 8005234:	2202      	movs	r2, #2
 8005236:	2112      	movs	r1, #18
 8005238:	68e0      	ldr	r0, [r4, #12]
 800523a:	f7ff ff77 	bl	800512c <std>
 800523e:	2301      	movs	r3, #1
 8005240:	61a3      	str	r3, [r4, #24]
 8005242:	e7d1      	b.n	80051e8 <__sinit+0xc>
 8005244:	080056ac 	.word	0x080056ac
 8005248:	08005175 	.word	0x08005175

0800524c <__sfp>:
 800524c:	b5f8      	push	{r3, r4, r5, r6, r7, lr}
 800524e:	4607      	mov	r7, r0
 8005250:	f7ff ffac 	bl	80051ac <__sfp_lock_acquire>
 8005254:	4b1e      	ldr	r3, [pc, #120]	; (80052d0 <__sfp+0x84>)
 8005256:	681e      	ldr	r6, [r3, #0]
 8005258:	69b3      	ldr	r3, [r6, #24]
 800525a:	b913      	cbnz	r3, 8005262 <__sfp+0x16>
 800525c:	4630      	mov	r0, r6
 800525e:	f7ff ffbd 	bl	80051dc <__sinit>
 8005262:	3648      	adds	r6, #72	; 0x48
 8005264:	e9d6 3401 	ldrd	r3, r4, [r6, #4]
 8005268:	3b01      	subs	r3, #1
 800526a:	d503      	bpl.n	8005274 <__sfp+0x28>
 800526c:	6833      	ldr	r3, [r6, #0]
 800526e:	b30b      	cbz	r3, 80052b4 <__sfp+0x68>
 8005270:	6836      	ldr	r6, [r6, #0]
 8005272:	e7f7      	b.n	8005264 <__sfp+0x18>
 8005274:	f9b4 500c 	ldrsh.w	r5, [r4, #12]
 8005278:	b9d5      	cbnz	r5, 80052b0 <__sfp+0x64>
 800527a:	4b16      	ldr	r3, [pc, #88]	; (80052d4 <__sfp+0x88>)
 800527c:	f104 0058 	add.w	r0, r4, #88	; 0x58
 8005280:	60e3      	str	r3, [r4, #12]
 8005282:	6665      	str	r5, [r4, #100]	; 0x64
 8005284:	f000 f847 	bl	8005316 <__retarget_lock_init_recursive>
 8005288:	f7ff ff96 	bl	80051b8 <__sfp_lock_release>
 800528c:	2208      	movs	r2, #8
 800528e:	4629      	mov	r1, r5
 8005290:	e9c4 5501 	strd	r5, r5, [r4, #4]
 8005294:	e9c4 5504 	strd	r5, r5, [r4, #16]
 8005298:	6025      	str	r5, [r4, #0]
 800529a:	61a5      	str	r5, [r4, #24]
 800529c:	f104 005c 	add.w	r0, r4, #92	; 0x5c
 80052a0:	f7ff f966 	bl	8004570 <memset>
 80052a4:	e9c4 550d 	strd	r5, r5, [r4, #52]	; 0x34
 80052a8:	e9c4 5512 	strd	r5, r5, [r4, #72]	; 0x48
 80052ac:	4620      	mov	r0, r4
 80052ae:	bdf8      	pop	{r3, r4, r5, r6, r7, pc}
 80052b0:	3468      	adds	r4, #104	; 0x68
 80052b2:	e7d9      	b.n	8005268 <__sfp+0x1c>
 80052b4:	2104      	movs	r1, #4
 80052b6:	4638      	mov	r0, r7
 80052b8:	f7ff ff62 	bl	8005180 <__sfmoreglue>
 80052bc:	4604      	mov	r4, r0
 80052be:	6030      	str	r0, [r6, #0]
 80052c0:	2800      	cmp	r0, #0
 80052c2:	d1d5      	bne.n	8005270 <__sfp+0x24>
 80052c4:	f7ff ff78 	bl	80051b8 <__sfp_lock_release>
 80052c8:	230c      	movs	r3, #12
 80052ca:	603b      	str	r3, [r7, #0]
 80052cc:	e7ee      	b.n	80052ac <__sfp+0x60>
 80052ce:	bf00      	nop
 80052d0:	080056ac 	.word	0x080056ac
 80052d4:	ffff0001 	.word	0xffff0001

080052d8 <_fwalk_reent>:
 80052d8:	e92d 43f8 	stmdb	sp!, {r3, r4, r5, r6, r7, r8, r9, lr}
 80052dc:	4606      	mov	r6, r0
 80052de:	4688      	mov	r8, r1
 80052e0:	2700      	movs	r7, #0
 80052e2:	f100 0448 	add.w	r4, r0, #72	; 0x48
 80052e6:	e9d4 9501 	ldrd	r9, r5, [r4, #4]
 80052ea:	f1b9 0901 	subs.w	r9, r9, #1
 80052ee:	d505      	bpl.n	80052fc <_fwalk_reent+0x24>
 80052f0:	6824      	ldr	r4, [r4, #0]
 80052f2:	2c00      	cmp	r4, #0
 80052f4:	d1f7      	bne.n	80052e6 <_fwalk_reent+0xe>
 80052f6:	4638      	mov	r0, r7
 80052f8:	e8bd 83f8 	ldmia.w	sp!, {r3, r4, r5, r6, r7, r8, r9, pc}
 80052fc:	89ab      	ldrh	r3, [r5, #12]
 80052fe:	2b01      	cmp	r3, #1
 8005300:	d907      	bls.n	8005312 <_fwalk_reent+0x3a>
 8005302:	f9b5 300e 	ldrsh.w	r3, [r5, #14]
 8005306:	3301      	adds	r3, #1
 8005308:	d003      	beq.n	8005312 <_fwalk_reent+0x3a>
 800530a:	4629      	mov	r1, r5
 800530c:	4630      	mov	r0, r6
 800530e:	47c0      	blx	r8
 8005310:	4307      	orrs	r7, r0
 8005312:	3568      	adds	r5, #104	; 0x68
 8005314:	e7e9      	b.n	80052ea <_fwalk_reent+0x12>

08005316 <__retarget_lock_init_recursive>:
 8005316:	4770      	bx	lr

08005318 <__retarget_lock_acquire_recursive>:
 8005318:	4770      	bx	lr

0800531a <__retarget_lock_release_recursive>:
 800531a:	4770      	bx	lr

0800531c <__swhatbuf_r>:
 800531c:	b570      	push	{r4, r5, r6, lr}
 800531e:	460e      	mov	r6, r1
 8005320:	f9b1 100e 	ldrsh.w	r1, [r1, #14]
 8005324:	4614      	mov	r4, r2
 8005326:	2900      	cmp	r1, #0
 8005328:	461d      	mov	r5, r3
 800532a:	b096      	sub	sp, #88	; 0x58
 800532c:	da08      	bge.n	8005340 <__swhatbuf_r+0x24>
 800532e:	2200      	movs	r2, #0
 8005330:	f9b6 300c 	ldrsh.w	r3, [r6, #12]
 8005334:	602a      	str	r2, [r5, #0]
 8005336:	061a      	lsls	r2, r3, #24
 8005338:	d410      	bmi.n	800535c <__swhatbuf_r+0x40>
 800533a:	f44f 6380 	mov.w	r3, #1024	; 0x400
 800533e:	e00e      	b.n	800535e <__swhatbuf_r+0x42>
 8005340:	466a      	mov	r2, sp
 8005342:	f000 f915 	bl	8005570 <_fstat_r>
 8005346:	2800      	cmp	r0, #0
 8005348:	dbf1      	blt.n	800532e <__swhatbuf_r+0x12>
 800534a:	9a01      	ldr	r2, [sp, #4]
 800534c:	f402 4270 	and.w	r2, r2, #61440	; 0xf000
 8005350:	f5a2 5300 	sub.w	r3, r2, #8192	; 0x2000
 8005354:	425a      	negs	r2, r3
 8005356:	415a      	adcs	r2, r3
 8005358:	602a      	str	r2, [r5, #0]
 800535a:	e7ee      	b.n	800533a <__swhatbuf_r+0x1e>
 800535c:	2340      	movs	r3, #64	; 0x40
 800535e:	2000      	movs	r0, #0
 8005360:	6023      	str	r3, [r4, #0]
 8005362:	b016      	add	sp, #88	; 0x58
 8005364:	bd70      	pop	{r4, r5, r6, pc}
	...

08005368 <__smakebuf_r>:
 8005368:	898b      	ldrh	r3, [r1, #12]
 800536a:	b573      	push	{r0, r1, r4, r5, r6, lr}
 800536c:	079d      	lsls	r5, r3, #30
 800536e:	4606      	mov	r6, r0
 8005370:	460c      	mov	r4, r1
 8005372:	d507      	bpl.n	8005384 <__smakebuf_r+0x1c>
 8005374:	f104 0347 	add.w	r3, r4, #71	; 0x47
 8005378:	6023      	str	r3, [r4, #0]
 800537a:	6123      	str	r3, [r4, #16]
 800537c:	2301      	movs	r3, #1
 800537e:	6163      	str	r3, [r4, #20]
 8005380:	b002      	add	sp, #8
 8005382:	bd70      	pop	{r4, r5, r6, pc}
 8005384:	466a      	mov	r2, sp
 8005386:	ab01      	add	r3, sp, #4
 8005388:	f7ff ffc8 	bl	800531c <__swhatbuf_r>
 800538c:	9900      	ldr	r1, [sp, #0]
 800538e:	4605      	mov	r5, r0
 8005390:	4630      	mov	r0, r6
 8005392:	f7ff f9d3 	bl	800473c <_malloc_r>
 8005396:	b948      	cbnz	r0, 80053ac <__smakebuf_r+0x44>
 8005398:	f9b4 300c 	ldrsh.w	r3, [r4, #12]
 800539c:	059a      	lsls	r2, r3, #22
 800539e:	d4ef      	bmi.n	8005380 <__smakebuf_r+0x18>
 80053a0:	f023 0303 	bic.w	r3, r3, #3
 80053a4:	f043 0302 	orr.w	r3, r3, #2
 80053a8:	81a3      	strh	r3, [r4, #12]
 80053aa:	e7e3      	b.n	8005374 <__smakebuf_r+0xc>
 80053ac:	4b0d      	ldr	r3, [pc, #52]	; (80053e4 <__smakebuf_r+0x7c>)
 80053ae:	62b3      	str	r3, [r6, #40]	; 0x28
 80053b0:	89a3      	ldrh	r3, [r4, #12]
 80053b2:	6020      	str	r0, [r4, #0]
 80053b4:	f043 0380 	orr.w	r3, r3, #128	; 0x80
 80053b8:	81a3      	strh	r3, [r4, #12]
 80053ba:	9b00      	ldr	r3, [sp, #0]
 80053bc:	6120      	str	r0, [r4, #16]
 80053be:	6163      	str	r3, [r4, #20]
 80053c0:	9b01      	ldr	r3, [sp, #4]
 80053c2:	b15b      	cbz	r3, 80053dc <__smakebuf_r+0x74>
 80053c4:	4630      	mov	r0, r6
 80053c6:	f9b4 100e 	ldrsh.w	r1, [r4, #14]
 80053ca:	f000 f8e3 	bl	8005594 <_isatty_r>
 80053ce:	b128      	cbz	r0, 80053dc <__smakebuf_r+0x74>
 80053d0:	89a3      	ldrh	r3, [r4, #12]
 80053d2:	f023 0303 	bic.w	r3, r3, #3
 80053d6:	f043 0301 	orr.w	r3, r3, #1
 80053da:	81a3      	strh	r3, [r4, #12]
 80053dc:	89a0      	ldrh	r0, [r4, #12]
 80053de:	4305      	orrs	r5, r0
 80053e0:	81a5      	strh	r5, [r4, #12]
 80053e2:	e7cd      	b.n	8005380 <__smakebuf_r+0x18>
 80053e4:	08005175 	.word	0x08005175

080053e8 <memchr>:
 80053e8:	4603      	mov	r3, r0
 80053ea:	b510      	push	{r4, lr}
 80053ec:	b2c9      	uxtb	r1, r1
 80053ee:	4402      	add	r2, r0
 80053f0:	4293      	cmp	r3, r2
 80053f2:	4618      	mov	r0, r3
 80053f4:	d101      	bne.n	80053fa <memchr+0x12>
 80053f6:	2000      	movs	r0, #0
 80053f8:	e003      	b.n	8005402 <memchr+0x1a>
 80053fa:	7804      	ldrb	r4, [r0, #0]
 80053fc:	3301      	adds	r3, #1
 80053fe:	428c      	cmp	r4, r1
 8005400:	d1f6      	bne.n	80053f0 <memchr+0x8>
 8005402:	bd10      	pop	{r4, pc}

08005404 <__malloc_lock>:
 8005404:	4801      	ldr	r0, [pc, #4]	; (800540c <__malloc_lock+0x8>)
 8005406:	f7ff bf87 	b.w	8005318 <__retarget_lock_acquire_recursive>
 800540a:	bf00      	nop
 800540c:	20000268 	.word	0x20000268

08005410 <__malloc_unlock>:
 8005410:	4801      	ldr	r0, [pc, #4]	; (8005418 <__malloc_unlock+0x8>)
 8005412:	f7ff bf82 	b.w	800531a <__retarget_lock_release_recursive>
 8005416:	bf00      	nop
 8005418:	20000268 	.word	0x20000268

0800541c <_raise_r>:
 800541c:	291f      	cmp	r1, #31
 800541e:	b538      	push	{r3, r4, r5, lr}
 8005420:	4604      	mov	r4, r0
 8005422:	460d      	mov	r5, r1
 8005424:	d904      	bls.n	8005430 <_raise_r+0x14>
 8005426:	2316      	movs	r3, #22
 8005428:	6003      	str	r3, [r0, #0]
 800542a:	f04f 30ff 	mov.w	r0, #4294967295
 800542e:	bd38      	pop	{r3, r4, r5, pc}
 8005430:	6c42      	ldr	r2, [r0, #68]	; 0x44
 8005432:	b112      	cbz	r2, 800543a <_raise_r+0x1e>
 8005434:	f852 3021 	ldr.w	r3, [r2, r1, lsl #2]
 8005438:	b94b      	cbnz	r3, 800544e <_raise_r+0x32>
 800543a:	4620      	mov	r0, r4
 800543c:	f000 f830 	bl	80054a0 <_getpid_r>
 8005440:	462a      	mov	r2, r5
 8005442:	4601      	mov	r1, r0
 8005444:	4620      	mov	r0, r4
 8005446:	e8bd 4038 	ldmia.w	sp!, {r3, r4, r5, lr}
 800544a:	f000 b817 	b.w	800547c <_kill_r>
 800544e:	2b01      	cmp	r3, #1
 8005450:	d00a      	beq.n	8005468 <_raise_r+0x4c>
 8005452:	1c59      	adds	r1, r3, #1
 8005454:	d103      	bne.n	800545e <_raise_r+0x42>
 8005456:	2316      	movs	r3, #22
 8005458:	6003      	str	r3, [r0, #0]
 800545a:	2001      	movs	r0, #1
 800545c:	e7e7      	b.n	800542e <_raise_r+0x12>
 800545e:	2400      	movs	r4, #0
 8005460:	4628      	mov	r0, r5
 8005462:	f842 4025 	str.w	r4, [r2, r5, lsl #2]
 8005466:	4798      	blx	r3
 8005468:	2000      	movs	r0, #0
 800546a:	e7e0      	b.n	800542e <_raise_r+0x12>

0800546c <raise>:
 800546c:	4b02      	ldr	r3, [pc, #8]	; (8005478 <raise+0xc>)
 800546e:	4601      	mov	r1, r0
 8005470:	6818      	ldr	r0, [r3, #0]
 8005472:	f7ff bfd3 	b.w	800541c <_raise_r>
 8005476:	bf00      	nop
 8005478:	20000014 	.word	0x20000014

0800547c <_kill_r>:
 800547c:	b538      	push	{r3, r4, r5, lr}
 800547e:	2300      	movs	r3, #0
 8005480:	4d06      	ldr	r5, [pc, #24]	; (800549c <_kill_r+0x20>)
 8005482:	4604      	mov	r4, r0
 8005484:	4608      	mov	r0, r1
 8005486:	4611      	mov	r1, r2
 8005488:	602b      	str	r3, [r5, #0]
 800548a:	f7fc fedb 	bl	8002244 <_kill>
 800548e:	1c43      	adds	r3, r0, #1
 8005490:	d102      	bne.n	8005498 <_kill_r+0x1c>
 8005492:	682b      	ldr	r3, [r5, #0]
 8005494:	b103      	cbz	r3, 8005498 <_kill_r+0x1c>
 8005496:	6023      	str	r3, [r4, #0]
 8005498:	bd38      	pop	{r3, r4, r5, pc}
 800549a:	bf00      	nop
 800549c:	2000026c 	.word	0x2000026c

080054a0 <_getpid_r>:
 80054a0:	f7fc bec9 	b.w	8002236 <_getpid>

080054a4 <__sread>:
 80054a4:	b510      	push	{r4, lr}
 80054a6:	460c      	mov	r4, r1
 80054a8:	f9b1 100e 	ldrsh.w	r1, [r1, #14]
 80054ac:	f000 f894 	bl	80055d8 <_read_r>
 80054b0:	2800      	cmp	r0, #0
 80054b2:	bfab      	itete	ge
 80054b4:	6d63      	ldrge	r3, [r4, #84]	; 0x54
 80054b6:	89a3      	ldrhlt	r3, [r4, #12]
 80054b8:	181b      	addge	r3, r3, r0
 80054ba:	f423 5380 	biclt.w	r3, r3, #4096	; 0x1000
 80054be:	bfac      	ite	ge
 80054c0:	6563      	strge	r3, [r4, #84]	; 0x54
 80054c2:	81a3      	strhlt	r3, [r4, #12]
 80054c4:	bd10      	pop	{r4, pc}

080054c6 <__swrite>:
 80054c6:	e92d 41f0 	stmdb	sp!, {r4, r5, r6, r7, r8, lr}
 80054ca:	461f      	mov	r7, r3
 80054cc:	898b      	ldrh	r3, [r1, #12]
 80054ce:	4605      	mov	r5, r0
 80054d0:	05db      	lsls	r3, r3, #23
 80054d2:	460c      	mov	r4, r1
 80054d4:	4616      	mov	r6, r2
 80054d6:	d505      	bpl.n	80054e4 <__swrite+0x1e>
 80054d8:	2302      	movs	r3, #2
 80054da:	2200      	movs	r2, #0
 80054dc:	f9b1 100e 	ldrsh.w	r1, [r1, #14]
 80054e0:	f000 f868 	bl	80055b4 <_lseek_r>
 80054e4:	89a3      	ldrh	r3, [r4, #12]
 80054e6:	4632      	mov	r2, r6
 80054e8:	f423 5380 	bic.w	r3, r3, #4096	; 0x1000
 80054ec:	81a3      	strh	r3, [r4, #12]
 80054ee:	4628      	mov	r0, r5
 80054f0:	463b      	mov	r3, r7
 80054f2:	f9b4 100e 	ldrsh.w	r1, [r4, #14]
 80054f6:	e8bd 41f0 	ldmia.w	sp!, {r4, r5, r6, r7, r8, lr}
 80054fa:	f000 b817 	b.w	800552c <_write_r>

080054fe <__sseek>:
 80054fe:	b510      	push	{r4, lr}
 8005500:	460c      	mov	r4, r1
 8005502:	f9b1 100e 	ldrsh.w	r1, [r1, #14]
 8005506:	f000 f855 	bl	80055b4 <_lseek_r>
 800550a:	1c43      	adds	r3, r0, #1
 800550c:	89a3      	ldrh	r3, [r4, #12]
 800550e:	bf15      	itete	ne
 8005510:	6560      	strne	r0, [r4, #84]	; 0x54
 8005512:	f423 5380 	biceq.w	r3, r3, #4096	; 0x1000
 8005516:	f443 5380 	orrne.w	r3, r3, #4096	; 0x1000
 800551a:	81a3      	strheq	r3, [r4, #12]
 800551c:	bf18      	it	ne
 800551e:	81a3      	strhne	r3, [r4, #12]
 8005520:	bd10      	pop	{r4, pc}

08005522 <__sclose>:
 8005522:	f9b1 100e 	ldrsh.w	r1, [r1, #14]
 8005526:	f000 b813 	b.w	8005550 <_close_r>
	...

0800552c <_write_r>:
 800552c:	b538      	push	{r3, r4, r5, lr}
 800552e:	4604      	mov	r4, r0
 8005530:	4608      	mov	r0, r1
 8005532:	4611      	mov	r1, r2
 8005534:	2200      	movs	r2, #0
 8005536:	4d05      	ldr	r5, [pc, #20]	; (800554c <_write_r+0x20>)
 8005538:	602a      	str	r2, [r5, #0]
 800553a:	461a      	mov	r2, r3
 800553c:	f7fc feb9 	bl	80022b2 <_write>
 8005540:	1c43      	adds	r3, r0, #1
 8005542:	d102      	bne.n	800554a <_write_r+0x1e>
 8005544:	682b      	ldr	r3, [r5, #0]
 8005546:	b103      	cbz	r3, 800554a <_write_r+0x1e>
 8005548:	6023      	str	r3, [r4, #0]
 800554a:	bd38      	pop	{r3, r4, r5, pc}
 800554c:	2000026c 	.word	0x2000026c

08005550 <_close_r>:
 8005550:	b538      	push	{r3, r4, r5, lr}
 8005552:	2300      	movs	r3, #0
 8005554:	4d05      	ldr	r5, [pc, #20]	; (800556c <_close_r+0x1c>)
 8005556:	4604      	mov	r4, r0
 8005558:	4608      	mov	r0, r1
 800555a:	602b      	str	r3, [r5, #0]
 800555c:	f7fc fec5 	bl	80022ea <_close>
 8005560:	1c43      	adds	r3, r0, #1
 8005562:	d102      	bne.n	800556a <_close_r+0x1a>
 8005564:	682b      	ldr	r3, [r5, #0]
 8005566:	b103      	cbz	r3, 800556a <_close_r+0x1a>
 8005568:	6023      	str	r3, [r4, #0]
 800556a:	bd38      	pop	{r3, r4, r5, pc}
 800556c:	2000026c 	.word	0x2000026c

08005570 <_fstat_r>:
 8005570:	b538      	push	{r3, r4, r5, lr}
 8005572:	2300      	movs	r3, #0
 8005574:	4d06      	ldr	r5, [pc, #24]	; (8005590 <_fstat_r+0x20>)
 8005576:	4604      	mov	r4, r0
 8005578:	4608      	mov	r0, r1
 800557a:	4611      	mov	r1, r2
 800557c:	602b      	str	r3, [r5, #0]
 800557e:	f7fc febf 	bl	8002300 <_fstat>
 8005582:	1c43      	adds	r3, r0, #1
 8005584:	d102      	bne.n	800558c <_fstat_r+0x1c>
 8005586:	682b      	ldr	r3, [r5, #0]
 8005588:	b103      	cbz	r3, 800558c <_fstat_r+0x1c>
 800558a:	6023      	str	r3, [r4, #0]
 800558c:	bd38      	pop	{r3, r4, r5, pc}
 800558e:	bf00      	nop
 8005590:	2000026c 	.word	0x2000026c

08005594 <_isatty_r>:
 8005594:	b538      	push	{r3, r4, r5, lr}
 8005596:	2300      	movs	r3, #0
 8005598:	4d05      	ldr	r5, [pc, #20]	; (80055b0 <_isatty_r+0x1c>)
 800559a:	4604      	mov	r4, r0
 800559c:	4608      	mov	r0, r1
 800559e:	602b      	str	r3, [r5, #0]
 80055a0:	f7fc febd 	bl	800231e <_isatty>
 80055a4:	1c43      	adds	r3, r0, #1
 80055a6:	d102      	bne.n	80055ae <_isatty_r+0x1a>
 80055a8:	682b      	ldr	r3, [r5, #0]
 80055aa:	b103      	cbz	r3, 80055ae <_isatty_r+0x1a>
 80055ac:	6023      	str	r3, [r4, #0]
 80055ae:	bd38      	pop	{r3, r4, r5, pc}
 80055b0:	2000026c 	.word	0x2000026c

080055b4 <_lseek_r>:
 80055b4:	b538      	push	{r3, r4, r5, lr}
 80055b6:	4604      	mov	r4, r0
 80055b8:	4608      	mov	r0, r1
 80055ba:	4611      	mov	r1, r2
 80055bc:	2200      	movs	r2, #0
 80055be:	4d05      	ldr	r5, [pc, #20]	; (80055d4 <_lseek_r+0x20>)
 80055c0:	602a      	str	r2, [r5, #0]
 80055c2:	461a      	mov	r2, r3
 80055c4:	f7fc feb5 	bl	8002332 <_lseek>
 80055c8:	1c43      	adds	r3, r0, #1
 80055ca:	d102      	bne.n	80055d2 <_lseek_r+0x1e>
 80055cc:	682b      	ldr	r3, [r5, #0]
 80055ce:	b103      	cbz	r3, 80055d2 <_lseek_r+0x1e>
 80055d0:	6023      	str	r3, [r4, #0]
 80055d2:	bd38      	pop	{r3, r4, r5, pc}
 80055d4:	2000026c 	.word	0x2000026c

080055d8 <_read_r>:
 80055d8:	b538      	push	{r3, r4, r5, lr}
 80055da:	4604      	mov	r4, r0
 80055dc:	4608      	mov	r0, r1
 80055de:	4611      	mov	r1, r2
 80055e0:	2200      	movs	r2, #0
 80055e2:	4d05      	ldr	r5, [pc, #20]	; (80055f8 <_read_r+0x20>)
 80055e4:	602a      	str	r2, [r5, #0]
 80055e6:	461a      	mov	r2, r3
 80055e8:	f7fc fe46 	bl	8002278 <_read>
 80055ec:	1c43      	adds	r3, r0, #1
 80055ee:	d102      	bne.n	80055f6 <_read_r+0x1e>
 80055f0:	682b      	ldr	r3, [r5, #0]
 80055f2:	b103      	cbz	r3, 80055f6 <_read_r+0x1e>
 80055f4:	6023      	str	r3, [r4, #0]
 80055f6:	bd38      	pop	{r3, r4, r5, pc}
 80055f8:	2000026c 	.word	0x2000026c

080055fc <_init>:
 80055fc:	b5f8      	push	{r3, r4, r5, r6, r7, lr}
 80055fe:	bf00      	nop
 8005600:	bcf8      	pop	{r3, r4, r5, r6, r7}
 8005602:	bc08      	pop	{r3}
 8005604:	469e      	mov	lr, r3
 8005606:	4770      	bx	lr

08005608 <_fini>:
 8005608:	b5f8      	push	{r3, r4, r5, r6, r7, lr}
 800560a:	bf00      	nop
 800560c:	bcf8      	pop	{r3, r4, r5, r6, r7}
 800560e:	bc08      	pop	{r3}
 8005610:	469e      	mov	lr, r3
 8005612:	4770      	bx	lr
